(dp0
S'mem'
p1
(dp2
S'WritebackTmp'
p3
(lp4
S'0'
p5
ag5
ag5
ag5
ag5
ag5
ag5
ag5
ag5
ag5
ag5
ag5
ag5
ag5
ag5
ag5
ag5
ag5
asS'SwapTotal'
p6
(lp7
S'1046524'
p8
aS'1046524'
p9
aS'1046524'
p10
aS'1046524'
p11
aS'1046524'
p12
aS'1046524'
p13
aS'1046524'
p14
aS'1046524'
p15
aS'1046524'
p16
aS'1046524'
p17
aS'1046524'
p18
aS'1046524'
p19
aS'1046524'
p20
aS'1046524'
p21
aS'1046524'
p22
aS'1046524'
p23
aS'1046524'
p24
aS'1046524'
p25
asS'Active(anon)'
p26
(lp27
S'8348'
p28
aS'12616'
p29
aS'15688'
p30
aS'262936'
p31
aS'516508'
p32
aS'635472'
p33
aS'771584'
p34
aS'878088'
p35
aS'899808'
p36
aS'1197416'
p37
aS'1197596'
p38
aS'1201268'
p39
aS'1318952'
p40
aS'1412220'
p41
aS'1497944'
p42
aS'1652404'
p43
aS'1652412'
p44
aS'1694388'
p45
asS'SwapFree'
p46
(lp47
S'1024104'
p48
aS'1024104'
p49
aS'1024104'
p50
aS'1024104'
p51
aS'1024104'
p52
aS'1024104'
p53
aS'1024104'
p54
aS'1024104'
p55
aS'1024104'
p56
aS'1024104'
p57
aS'1024104'
p58
aS'1024104'
p59
aS'1024104'
p60
aS'1024104'
p61
aS'1024104'
p62
aS'1024104'
p63
aS'1024104'
p64
aS'1024104'
p65
asS'DirectMap4k'
p66
(lp67
S'38848'
p68
aS'38848'
p69
aS'38848'
p70
aS'38848'
p71
aS'38848'
p72
aS'38848'
p73
aS'38848'
p74
aS'38848'
p75
aS'38848'
p76
aS'38848'
p77
aS'38848'
p78
aS'38848'
p79
aS'38848'
p80
aS'38848'
p81
aS'38848'
p82
aS'38848'
p83
aS'38848'
p84
aS'38848'
p85
asS'KernelStack'
p86
(lp87
S'1272'
p88
aS'1272'
p89
aS'1360'
p90
aS'1360'
p91
aS'1360'
p92
aS'1360'
p93
aS'1360'
p94
aS'1360'
p95
aS'1360'
p96
aS'1360'
p97
aS'1360'
p98
aS'1360'
p99
aS'1360'
p100
aS'1360'
p101
aS'1360'
p102
aS'1360'
p103
aS'1360'
p104
aS'1360'
p105
asS'MemFree'
p106
(lp107
S'3789220'
p108
aS'3768092'
p109
aS'3756396'
p110
aS'3508024'
p111
aS'3254072'
p112
aS'3134784'
p113
aS'2998508'
p114
aS'2891868'
p115
aS'2870168'
p116
aS'2572320'
p117
aS'2572320'
p118
aS'2568476'
p119
aS'2450800'
p120
aS'2357304'
p121
aS'2271744'
p122
aS'2116868'
p123
aS'2116868'
p124
aS'2074708'
p125
asS'HugePages_Rsvd'
p126
(lp127
g5
ag5
ag5
ag5
ag5
ag5
ag5
ag5
ag5
ag5
ag5
ag5
ag5
ag5
ag5
ag5
ag5
ag5
asS'Committed_AS'
p128
(lp129
S'195292'
p130
aS'291284'
p131
aS'297280'
p132
aS'553852'
p133
aS'798572'
p134
aS'953976'
p135
aS'1066128'
p136
aS'1201384'
p137
aS'1365060'
p138
aS'1454788'
p139
aS'1454788'
p140
aS'1663468'
p141
aS'1681980'
p142
aS'1681980'
p143
aS'1987764'
p144
aS'1984372'
p145
aS'1984372'
p146
aS'2323228'
p147
asS'Active(file)'
p148
(lp149
S'142808'
p150
aS'143136'
p151
aS'143700'
p152
aS'143808'
p153
aS'143808'
p154
aS'143808'
p155
aS'143808'
p156
aS'143808'
p157
aS'143808'
p158
aS'143808'
p159
aS'143808'
p160
aS'143808'
p161
aS'143808'
p162
aS'143808'
p163
aS'143808'
p164
aS'143808'
p165
aS'143808'
p166
aS'143808'
p167
asS'NFS_Unstable'
p168
(lp169
g5
ag5
ag5
ag5
ag5
ag5
ag5
ag5
ag5
ag5
ag5
ag5
ag5
ag5
ag5
ag5
ag5
ag5
asS'VmallocChunk'
p170
(lp171
S'34359713404'
p172
aS'34359713404'
p173
aS'34359713404'
p174
aS'34359713404'
p175
aS'34359713404'
p176
aS'34359713404'
p177
aS'34359713404'
p178
aS'34359713404'
p179
aS'34359713404'
p180
aS'34359713404'
p181
aS'34359713404'
p182
aS'34359713404'
p183
aS'34359713404'
p184
aS'34359713404'
p185
aS'34359713404'
p186
aS'34359713404'
p187
aS'34359713404'
p188
aS'34359713404'
p189
asS'Writeback'
p190
(lp191
g5
ag5
ag5
ag5
ag5
ag5
ag5
ag5
ag5
ag5
ag5
ag5
ag5
ag5
ag5
ag5
ag5
ag5
asS'Inactive(file)'
p192
(lp193
S'28296'
p194
aS'44320'
p195
aS'52400'
p196
aS'53036'
p197
aS'53036'
p198
aS'53036'
p199
aS'53036'
p200
aS'53036'
p201
aS'53036'
p202
aS'53036'
p203
aS'53036'
p204
aS'53036'
p205
aS'53036'
p206
aS'53036'
p207
aS'53036'
p208
aS'53036'
p209
aS'53036'
p210
aS'53036'
p211
asS'MemTotal'
p212
(lp213
S'4055496'
p214
aS'4055496'
p215
aS'4055496'
p216
aS'4055496'
p217
aS'4055496'
p218
aS'4055496'
p219
aS'4055496'
p220
aS'4055496'
p221
aS'4055496'
p222
aS'4055496'
p223
aS'4055496'
p224
aS'4055496'
p225
aS'4055496'
p226
aS'4055496'
p227
aS'4055496'
p228
aS'4055496'
p229
aS'4055496'
p230
aS'4055496'
p231
asS'VmallocUsed'
p232
(lp233
S'21480'
p234
aS'21480'
p235
aS'21480'
p236
aS'21480'
p237
aS'21480'
p238
aS'21480'
p239
aS'21480'
p240
aS'21480'
p241
aS'21480'
p242
aS'21480'
p243
aS'21480'
p244
aS'21480'
p245
aS'21480'
p246
aS'21480'
p247
aS'21480'
p248
aS'21480'
p249
aS'21480'
p250
aS'21480'
p251
asS'HugePages_Free'
p252
(lp253
g5
ag5
ag5
ag5
ag5
ag5
ag5
ag5
ag5
ag5
ag5
ag5
ag5
ag5
ag5
ag5
ag5
ag5
asS'AnonHugePages'
p254
(lp255
g5
ag5
ag5
ag5
ag5
ag5
ag5
ag5
ag5
ag5
ag5
ag5
ag5
ag5
ag5
ag5
ag5
ag5
asS'AnonPages'
p256
(lp257
S'9544'
p258
aS'13676'
p259
aS'16684'
p260
aS'263992'
p261
aS'517548'
p262
aS'636424'
p263
aS'772620'
p264
aS'879096'
p265
aS'900816'
p266
aS'1198480'
p267
aS'1198576'
p268
aS'1202324'
p269
aS'1319948'
p270
aS'1413264'
p271
aS'1499024'
p272
aS'1653392'
p273
aS'1653392'
p274
aS'1695520'
p275
asS'Active'
p276
(lp277
S'151156'
p278
aS'155752'
p279
aS'159388'
p280
aS'406744'
p281
aS'660316'
p282
aS'779280'
p283
aS'915392'
p284
aS'1021896'
p285
aS'1043616'
p286
aS'1341224'
p287
aS'1341404'
p288
aS'1345076'
p289
aS'1462760'
p290
aS'1556028'
p291
aS'1641752'
p292
aS'1796212'
p293
aS'1796220'
p294
aS'1838196'
p295
asS'Inactive(anon)'
p296
(lp297
S'4936'
p298
aS'4936'
p299
aS'4936'
p300
aS'4936'
p301
aS'4936'
p302
aS'4936'
p303
aS'4936'
p304
aS'4936'
p305
aS'4936'
p306
aS'4936'
p307
aS'4936'
p308
aS'4936'
p309
aS'4936'
p310
aS'4936'
p311
aS'4936'
p312
aS'4936'
p313
aS'4936'
p314
aS'4936'
p315
asS'CommitLimit'
p316
(lp317
S'3074272'
p318
aS'3074272'
p319
aS'3074272'
p320
aS'3074272'
p321
aS'3074272'
p322
aS'3074272'
p323
aS'3074272'
p324
aS'3074272'
p325
aS'3074272'
p326
aS'3074272'
p327
aS'3074272'
p328
aS'3074272'
p329
aS'3074272'
p330
aS'3074272'
p331
aS'3074272'
p332
aS'3074272'
p333
aS'3074272'
p334
aS'3074272'
p335
asS'Hugepagesize'
p336
(lp337
S'2048'
p338
aS'2048'
p339
aS'2048'
p340
aS'2048'
p341
aS'2048'
p342
aS'2048'
p343
aS'2048'
p344
aS'2048'
p345
aS'2048'
p346
aS'2048'
p347
aS'2048'
p348
aS'2048'
p349
aS'2048'
p350
aS'2048'
p351
aS'2048'
p352
aS'2048'
p353
aS'2048'
p354
aS'2048'
p355
asS'Cached'
p356
(lp357
S'164840'
p358
aS'180704'
p359
aS'189116'
p360
aS'189692'
p361
aS'189692'
p362
aS'189692'
p363
aS'189692'
p364
aS'189692'
p365
aS'189692'
p366
aS'189692'
p367
aS'189692'
p368
aS'189692'
p369
aS'189692'
p370
aS'189692'
p371
aS'189692'
p372
aS'189692'
p373
aS'189692'
p374
aS'189692'
p375
asS'SwapCached'
p376
(lp377
S'4336'
p378
aS'4336'
p379
aS'4336'
p380
aS'4336'
p381
aS'4336'
p382
aS'4336'
p383
aS'4336'
p384
aS'4336'
p385
aS'4336'
p386
aS'4336'
p387
aS'4336'
p388
aS'4336'
p389
aS'4336'
p390
aS'4336'
p391
aS'4336'
p392
aS'4336'
p393
aS'4336'
p394
aS'4336'
p395
asS'VmallocTotal'
p396
(lp397
S'34359738367'
p398
aS'34359738367'
p399
aS'34359738367'
p400
aS'34359738367'
p401
aS'34359738367'
p402
aS'34359738367'
p403
aS'34359738367'
p404
aS'34359738367'
p405
aS'34359738367'
p406
aS'34359738367'
p407
aS'34359738367'
p408
aS'34359738367'
p409
aS'34359738367'
p410
aS'34359738367'
p411
aS'34359738367'
p412
aS'34359738367'
p413
aS'34359738367'
p414
aS'34359738367'
p415
asS'Shmem'
p416
(lp417
S'8'
p418
ag418
ag418
ag418
ag418
ag418
ag418
ag418
ag418
ag418
ag418
ag418
ag418
ag418
ag418
ag418
ag418
ag418
asS'Mapped'
p419
(lp420
S'2328'
p421
aS'9072'
p422
aS'9956'
p423
aS'11976'
p424
aS'12052'
p425
aS'12068'
p426
aS'12080'
p427
aS'12080'
p428
aS'12084'
p429
aS'12084'
p430
aS'12084'
p431
aS'12084'
p432
aS'12124'
p433
aS'12124'
p434
aS'12124'
p435
aS'12124'
p436
aS'12124'
p437
aS'12124'
p438
asS'SUnreclaim'
p439
(lp440
S'11468'
p441
aS'11468'
p442
aS'11468'
p443
aS'11468'
p444
aS'11468'
p445
aS'11468'
p446
aS'11468'
p447
aS'11468'
p448
aS'11468'
p449
aS'11468'
p450
aS'11468'
p451
aS'11468'
p452
aS'11468'
p453
aS'11468'
p454
aS'11468'
p455
aS'11468'
p456
aS'11468'
p457
aS'11468'
p458
asS'Unevictable'
p459
(lp460
g5
ag5
ag5
ag5
ag5
ag5
ag5
ag5
ag5
ag5
ag5
ag5
ag5
ag5
ag5
ag5
ag5
ag5
asS'SReclaimable'
p461
(lp462
S'8456'
p463
aS'8472'
p464
aS'8480'
p465
aS'8484'
p466
aS'8484'
p467
aS'8484'
p468
aS'8484'
p469
aS'8484'
p470
aS'8484'
p471
aS'8484'
p472
aS'8484'
p473
aS'8484'
p474
aS'8484'
p475
aS'8484'
p476
aS'8484'
p477
aS'8484'
p478
aS'8484'
p479
aS'8484'
p480
asS'Mlocked'
p481
(lp482
g5
ag5
ag5
ag5
ag5
ag5
ag5
ag5
ag5
ag5
ag5
ag5
ag5
ag5
ag5
ag5
ag5
ag5
asS'DirectMap2M'
p483
(lp484
S'4155392'
p485
aS'4155392'
p486
aS'4155392'
p487
aS'4155392'
p488
aS'4155392'
p489
aS'4155392'
p490
aS'4155392'
p491
aS'4155392'
p492
aS'4155392'
p493
aS'4155392'
p494
aS'4155392'
p495
aS'4155392'
p496
aS'4155392'
p497
aS'4155392'
p498
aS'4155392'
p499
aS'4155392'
p500
aS'4155392'
p501
aS'4155392'
p502
asS'HugePages_Surp'
p503
(lp504
g5
ag5
ag5
ag5
ag5
ag5
ag5
ag5
ag5
ag5
ag5
ag5
ag5
ag5
ag5
ag5
ag5
ag5
asS'Bounce'
p505
(lp506
g5
ag5
ag5
ag5
ag5
ag5
ag5
ag5
ag5
ag5
ag5
ag5
ag5
ag5
ag5
ag5
ag5
ag5
asS'Inactive'
p507
(lp508
S'33232'
p509
aS'49256'
p510
aS'57336'
p511
aS'57972'
p512
aS'57972'
p513
aS'57972'
p514
aS'57972'
p515
aS'57972'
p516
aS'57972'
p517
aS'57972'
p518
aS'57972'
p519
aS'57972'
p520
aS'57972'
p521
aS'57972'
p522
aS'57972'
p523
aS'57972'
p524
aS'57972'
p525
aS'57972'
p526
asS'PageTables'
p527
(lp528
S'3608'
p529
aS'3744'
p530
aS'3732'
p531
aS'4228'
p532
aS'4788'
p533
aS'4912'
p534
aS'5248'
p535
aS'5496'
p536
aS'5456'
p537
aS'6044'
p538
aS'6080'
p539
aS'6080'
p540
aS'6320'
p541
aS'6476'
p542
aS'6664'
p543
aS'6980'
p544
aS'6980'
p545
aS'7056'
p546
asS'HardwareCorrupted'
p547
(lp548
g5
ag5
ag5
ag5
ag5
ag5
ag5
ag5
ag5
ag5
ag5
ag5
ag5
ag5
ag5
ag5
ag5
ag5
asS'HugePages_Total'
p549
(lp550
g5
ag5
ag5
ag5
ag5
ag5
ag5
ag5
ag5
ag5
ag5
ag5
ag5
ag5
ag5
ag5
ag5
ag5
asS'Slab'
p551
(lp552
S'19924'
p553
aS'19940'
p554
aS'19948'
p555
aS'19952'
p556
aS'19952'
p557
aS'19952'
p558
aS'19952'
p559
aS'19952'
p560
aS'19952'
p561
aS'19952'
p562
aS'19952'
p563
aS'19952'
p564
aS'19952'
p565
aS'19952'
p566
aS'19952'
p567
aS'19952'
p568
aS'19952'
p569
aS'19952'
p570
asS'Buffers'
p571
(lp572
S'6276'
p573
aS'6868'
p574
aS'7160'
p575
aS'7160'
p576
aS'7160'
p577
aS'7160'
p578
aS'7160'
p579
aS'7160'
p580
aS'7160'
p581
aS'7160'
p582
aS'7160'
p583
aS'7160'
p584
aS'7160'
p585
aS'7160'
p586
aS'7160'
p587
aS'7160'
p588
aS'7160'
p589
aS'7160'
p590
asS'Dirty'
p591
(lp592
S'68'
p593
aS'68'
p594
aS'100'
p595
aS'100'
p596
aS'100'
p597
aS'100'
p598
aS'100'
p599
aS'100'
p600
ag418
aS'20'
p601
aS'20'
p602
aS'20'
p603
aS'20'
p604
ag418
aS'20'
p605
aS'20'
p606
aS'20'
p607
aS'20'
p608
assS'cpu'
p609
(dp610
S'intr_396'
p611
(lp612
g5
ag5
ag5
ag5
ag5
ag5
ag5
ag5
ag5
ag5
ag5
ag5
ag5
ag5
ag5
ag5
ag5
ag5
asS'intr_397'
p613
(lp614
g5
ag5
ag5
ag5
ag5
ag5
ag5
ag5
ag5
ag5
ag5
ag5
ag5
ag5
ag5
ag5
ag5
ag5
asS'intr_394'
p615
(lp616
g5
ag5
ag5
ag5
ag5
ag5
ag5
ag5
ag5
ag5
ag5
ag5
ag5
ag5
ag5
ag5
ag5
ag5
asS'intr_395'
p617
(lp618
g5
ag5
ag5
ag5
ag5
ag5
ag5
ag5
ag5
ag5
ag5
ag5
ag5
ag5
ag5
ag5
ag5
ag5
asS'intr_392'
p619
(lp620
g5
ag5
ag5
ag5
ag5
ag5
ag5
ag5
ag5
ag5
ag5
ag5
ag5
ag5
ag5
ag5
ag5
ag5
asS'intr_393'
p621
(lp622
g5
ag5
ag5
ag5
ag5
ag5
ag5
ag5
ag5
ag5
ag5
ag5
ag5
ag5
ag5
ag5
ag5
ag5
asS'intr_390'
p623
(lp624
g5
ag5
ag5
ag5
ag5
ag5
ag5
ag5
ag5
ag5
ag5
ag5
ag5
ag5
ag5
ag5
ag5
ag5
asS'intr_391'
p625
(lp626
g5
ag5
ag5
ag5
ag5
ag5
ag5
ag5
ag5
ag5
ag5
ag5
ag5
ag5
ag5
ag5
ag5
ag5
asS'intr_543'
p627
(lp628
g5
ag5
ag5
ag5
ag5
ag5
ag5
ag5
ag5
ag5
ag5
ag5
ag5
ag5
ag5
ag5
ag5
ag5
asS'intr_542'
p629
(lp630
g5
ag5
ag5
ag5
ag5
ag5
ag5
ag5
ag5
ag5
ag5
ag5
ag5
ag5
ag5
ag5
ag5
ag5
asS'intr_541'
p631
(lp632
g5
ag5
ag5
ag5
ag5
ag5
ag5
ag5
ag5
ag5
ag5
ag5
ag5
ag5
ag5
ag5
ag5
ag5
asS'intr_540'
p633
(lp634
g5
ag5
ag5
ag5
ag5
ag5
ag5
ag5
ag5
ag5
ag5
ag5
ag5
ag5
ag5
ag5
ag5
ag5
asS'intr_468'
p635
(lp636
g5
ag5
ag5
ag5
ag5
ag5
ag5
ag5
ag5
ag5
ag5
ag5
ag5
ag5
ag5
ag5
ag5
ag5
asS'intr_431'
p637
(lp638
g5
ag5
ag5
ag5
ag5
ag5
ag5
ag5
ag5
ag5
ag5
ag5
ag5
ag5
ag5
ag5
ag5
ag5
asS'intr_398'
p639
(lp640
g5
ag5
ag5
ag5
ag5
ag5
ag5
ag5
ag5
ag5
ag5
ag5
ag5
ag5
ag5
ag5
ag5
ag5
asS'intr_399'
p641
(lp642
g5
ag5
ag5
ag5
ag5
ag5
ag5
ag5
ag5
ag5
ag5
ag5
ag5
ag5
ag5
ag5
ag5
ag5
asS'intr_430'
p643
(lp644
g5
ag5
ag5
ag5
ag5
ag5
ag5
ag5
ag5
ag5
ag5
ag5
ag5
ag5
ag5
ag5
ag5
ag5
asS'intr_437'
p645
(lp646
g5
ag5
ag5
ag5
ag5
ag5
ag5
ag5
ag5
ag5
ag5
ag5
ag5
ag5
ag5
ag5
ag5
ag5
asS'intr_436'
p647
(lp648
g5
ag5
ag5
ag5
ag5
ag5
ag5
ag5
ag5
ag5
ag5
ag5
ag5
ag5
ag5
ag5
ag5
ag5
asS'intr_78'
p649
(lp650
g5
ag5
ag5
ag5
ag5
ag5
ag5
ag5
ag5
ag5
ag5
ag5
ag5
ag5
ag5
ag5
ag5
ag5
asS'intr_79'
p651
(lp652
g5
ag5
ag5
ag5
ag5
ag5
ag5
ag5
ag5
ag5
ag5
ag5
ag5
ag5
ag5
ag5
ag5
ag5
asS'intr_435'
p653
(lp654
g5
ag5
ag5
ag5
ag5
ag5
ag5
ag5
ag5
ag5
ag5
ag5
ag5
ag5
ag5
ag5
ag5
ag5
asS'intr_70'
p655
(lp656
g5
ag5
ag5
ag5
ag5
ag5
ag5
ag5
ag5
ag5
ag5
ag5
ag5
ag5
ag5
ag5
ag5
ag5
asS'intr_71'
p657
(lp658
g5
ag5
ag5
ag5
ag5
ag5
ag5
ag5
ag5
ag5
ag5
ag5
ag5
ag5
ag5
ag5
ag5
ag5
asS'intr_72'
p659
(lp660
g5
ag5
ag5
ag5
ag5
ag5
ag5
ag5
ag5
ag5
ag5
ag5
ag5
ag5
ag5
ag5
ag5
ag5
asS'intr_73'
p661
(lp662
g5
ag5
ag5
ag5
ag5
ag5
ag5
ag5
ag5
ag5
ag5
ag5
ag5
ag5
ag5
ag5
ag5
ag5
asS'intr_74'
p663
(lp664
g5
ag5
ag5
ag5
ag5
ag5
ag5
ag5
ag5
ag5
ag5
ag5
ag5
ag5
ag5
ag5
ag5
ag5
asS'intr_75'
p665
(lp666
g5
ag5
ag5
ag5
ag5
ag5
ag5
ag5
ag5
ag5
ag5
ag5
ag5
ag5
ag5
ag5
ag5
ag5
asS'intr_76'
p667
(lp668
g5
ag5
ag5
ag5
ag5
ag5
ag5
ag5
ag5
ag5
ag5
ag5
ag5
ag5
ag5
ag5
ag5
ag5
asS'intr_77'
p669
(lp670
g5
ag5
ag5
ag5
ag5
ag5
ag5
ag5
ag5
ag5
ag5
ag5
ag5
ag5
ag5
ag5
ag5
ag5
asS'intr_268'
p671
(lp672
g5
ag5
ag5
ag5
ag5
ag5
ag5
ag5
ag5
ag5
ag5
ag5
ag5
ag5
ag5
ag5
ag5
ag5
asS'intr_269'
p673
(lp674
g5
ag5
ag5
ag5
ag5
ag5
ag5
ag5
ag5
ag5
ag5
ag5
ag5
ag5
ag5
ag5
ag5
ag5
asS'intr_262'
p675
(lp676
g5
ag5
ag5
ag5
ag5
ag5
ag5
ag5
ag5
ag5
ag5
ag5
ag5
ag5
ag5
ag5
ag5
ag5
asS'intr_263'
p677
(lp678
g5
ag5
ag5
ag5
ag5
ag5
ag5
ag5
ag5
ag5
ag5
ag5
ag5
ag5
ag5
ag5
ag5
ag5
asS'intr_260'
p679
(lp680
g5
ag5
ag5
ag5
ag5
ag5
ag5
ag5
ag5
ag5
ag5
ag5
ag5
ag5
ag5
ag5
ag5
ag5
asS'intr_261'
p681
(lp682
g5
ag5
ag5
ag5
ag5
ag5
ag5
ag5
ag5
ag5
ag5
ag5
ag5
ag5
ag5
ag5
ag5
ag5
asS'intr_266'
p683
(lp684
g5
ag5
ag5
ag5
ag5
ag5
ag5
ag5
ag5
ag5
ag5
ag5
ag5
ag5
ag5
ag5
ag5
ag5
asS'intr_267'
p685
(lp686
g5
ag5
ag5
ag5
ag5
ag5
ag5
ag5
ag5
ag5
ag5
ag5
ag5
ag5
ag5
ag5
ag5
ag5
asS'intr_264'
p687
(lp688
g5
ag5
ag5
ag5
ag5
ag5
ag5
ag5
ag5
ag5
ag5
ag5
ag5
ag5
ag5
ag5
ag5
ag5
asS'intr_265'
p689
(lp690
g5
ag5
ag5
ag5
ag5
ag5
ag5
ag5
ag5
ag5
ag5
ag5
ag5
ag5
ag5
ag5
ag5
ag5
asS'intr_301'
p691
(lp692
g5
ag5
ag5
ag5
ag5
ag5
ag5
ag5
ag5
ag5
ag5
ag5
ag5
ag5
ag5
ag5
ag5
ag5
asS'intr_300'
p693
(lp694
g5
ag5
ag5
ag5
ag5
ag5
ag5
ag5
ag5
ag5
ag5
ag5
ag5
ag5
ag5
ag5
ag5
ag5
asS'intr_303'
p695
(lp696
g5
ag5
ag5
ag5
ag5
ag5
ag5
ag5
ag5
ag5
ag5
ag5
ag5
ag5
ag5
ag5
ag5
ag5
asS'intr_302'
p697
(lp698
g5
ag5
ag5
ag5
ag5
ag5
ag5
ag5
ag5
ag5
ag5
ag5
ag5
ag5
ag5
ag5
ag5
ag5
asS'intr_305'
p699
(lp700
g5
ag5
ag5
ag5
ag5
ag5
ag5
ag5
ag5
ag5
ag5
ag5
ag5
ag5
ag5
ag5
ag5
ag5
asS'intr_304'
p701
(lp702
g5
ag5
ag5
ag5
ag5
ag5
ag5
ag5
ag5
ag5
ag5
ag5
ag5
ag5
ag5
ag5
ag5
ag5
asS'intr_307'
p703
(lp704
g5
ag5
ag5
ag5
ag5
ag5
ag5
ag5
ag5
ag5
ag5
ag5
ag5
ag5
ag5
ag5
ag5
ag5
asS'intr_306'
p705
(lp706
g5
ag5
ag5
ag5
ag5
ag5
ag5
ag5
ag5
ag5
ag5
ag5
ag5
ag5
ag5
ag5
ag5
ag5
asS'intr_309'
p707
(lp708
g5
ag5
ag5
ag5
ag5
ag5
ag5
ag5
ag5
ag5
ag5
ag5
ag5
ag5
ag5
ag5
ag5
ag5
asS'intr_308'
p709
(lp710
g5
ag5
ag5
ag5
ag5
ag5
ag5
ag5
ag5
ag5
ag5
ag5
ag5
ag5
ag5
ag5
ag5
ag5
asS'intr_466'
p711
(lp712
g5
ag5
ag5
ag5
ag5
ag5
ag5
ag5
ag5
ag5
ag5
ag5
ag5
ag5
ag5
ag5
ag5
ag5
asS'intr_492'
p713
(lp714
g5
ag5
ag5
ag5
ag5
ag5
ag5
ag5
ag5
ag5
ag5
ag5
ag5
ag5
ag5
ag5
ag5
ag5
asS'intr_467'
p715
(lp716
g5
ag5
ag5
ag5
ag5
ag5
ag5
ag5
ag5
ag5
ag5
ag5
ag5
ag5
ag5
ag5
ag5
ag5
asS'intr_460'
p717
(lp718
g5
ag5
ag5
ag5
ag5
ag5
ag5
ag5
ag5
ag5
ag5
ag5
ag5
ag5
ag5
ag5
ag5
ag5
asS'intr_461'
p719
(lp720
g5
ag5
ag5
ag5
ag5
ag5
ag5
ag5
ag5
ag5
ag5
ag5
ag5
ag5
ag5
ag5
ag5
ag5
asS'intr_462'
p721
(lp722
g5
ag5
ag5
ag5
ag5
ag5
ag5
ag5
ag5
ag5
ag5
ag5
ag5
ag5
ag5
ag5
ag5
ag5
asS'cpu1_10'
p723
(lp724
g5
ag5
ag5
ag5
ag5
ag5
ag5
ag5
ag5
ag5
ag5
ag5
ag5
ag5
ag5
ag5
ag5
ag5
asS'cpu_10'
p725
(lp726
g5
ag5
ag5
ag5
ag5
ag5
ag5
ag5
ag5
ag5
ag5
ag5
ag5
ag5
ag5
ag5
ag5
ag5
asS'intr_463'
p727
(lp728
g5
ag5
ag5
ag5
ag5
ag5
ag5
ag5
ag5
ag5
ag5
ag5
ag5
ag5
ag5
ag5
ag5
ag5
asS'intr_495'
p729
(lp730
g5
ag5
ag5
ag5
ag5
ag5
ag5
ag5
ag5
ag5
ag5
ag5
ag5
ag5
ag5
ag5
ag5
ag5
asS'intr_790'
p731
(lp732
g5
ag5
ag5
ag5
ag5
ag5
ag5
ag5
ag5
ag5
ag5
ag5
ag5
ag5
ag5
ag5
ag5
ag5
asS'intr_547'
p733
(lp734
g5
ag5
ag5
ag5
ag5
ag5
ag5
ag5
ag5
ag5
ag5
ag5
ag5
ag5
ag5
ag5
ag5
ag5
asS'intr_494'
p735
(lp736
g5
ag5
ag5
ag5
ag5
ag5
ag5
ag5
ag5
ag5
ag5
ag5
ag5
ag5
ag5
ag5
ag5
ag5
asS'intr_469'
p737
(lp738
g5
ag5
ag5
ag5
ag5
ag5
ag5
ag5
ag5
ag5
ag5
ag5
ag5
ag5
ag5
ag5
ag5
ag5
asS'intr_545'
p739
(lp740
g5
ag5
ag5
ag5
ag5
ag5
ag5
ag5
ag5
ag5
ag5
ag5
ag5
ag5
ag5
ag5
ag5
ag5
asS'intr_544'
p741
(lp742
g5
ag5
ag5
ag5
ag5
ag5
ag5
ag5
ag5
ag5
ag5
ag5
ag5
ag5
ag5
ag5
ag5
ag5
asS'intr_165'
p743
(lp744
g5
ag5
ag5
ag5
ag5
ag5
ag5
ag5
ag5
ag5
ag5
ag5
ag5
ag5
ag5
ag5
ag5
ag5
asS'intr_164'
p745
(lp746
g5
ag5
ag5
ag5
ag5
ag5
ag5
ag5
ag5
ag5
ag5
ag5
ag5
ag5
ag5
ag5
ag5
ag5
asS'intr_167'
p747
(lp748
g5
ag5
ag5
ag5
ag5
ag5
ag5
ag5
ag5
ag5
ag5
ag5
ag5
ag5
ag5
ag5
ag5
ag5
asS'intr_166'
p749
(lp750
g5
ag5
ag5
ag5
ag5
ag5
ag5
ag5
ag5
ag5
ag5
ag5
ag5
ag5
ag5
ag5
ag5
ag5
asS'intr_161'
p751
(lp752
g5
ag5
ag5
ag5
ag5
ag5
ag5
ag5
ag5
ag5
ag5
ag5
ag5
ag5
ag5
ag5
ag5
ag5
asS'intr_160'
p753
(lp754
g5
ag5
ag5
ag5
ag5
ag5
ag5
ag5
ag5
ag5
ag5
ag5
ag5
ag5
ag5
ag5
ag5
ag5
asS'intr_163'
p755
(lp756
g5
ag5
ag5
ag5
ag5
ag5
ag5
ag5
ag5
ag5
ag5
ag5
ag5
ag5
ag5
ag5
ag5
ag5
asS'intr_162'
p757
(lp758
g5
ag5
ag5
ag5
ag5
ag5
ag5
ag5
ag5
ag5
ag5
ag5
ag5
ag5
ag5
ag5
ag5
ag5
asS'intr_604'
p759
(lp760
g5
ag5
ag5
ag5
ag5
ag5
ag5
ag5
ag5
ag5
ag5
ag5
ag5
ag5
ag5
ag5
ag5
ag5
asS'intr_605'
p761
(lp762
g5
ag5
ag5
ag5
ag5
ag5
ag5
ag5
ag5
ag5
ag5
ag5
ag5
ag5
ag5
ag5
ag5
ag5
asS'intr_606'
p763
(lp764
g5
ag5
ag5
ag5
ag5
ag5
ag5
ag5
ag5
ag5
ag5
ag5
ag5
ag5
ag5
ag5
ag5
ag5
asS'intr_607'
p765
(lp766
g5
ag5
ag5
ag5
ag5
ag5
ag5
ag5
ag5
ag5
ag5
ag5
ag5
ag5
ag5
ag5
ag5
ag5
asS'intr_169'
p767
(lp768
g5
ag5
ag5
ag5
ag5
ag5
ag5
ag5
ag5
ag5
ag5
ag5
ag5
ag5
ag5
ag5
ag5
ag5
asS'intr_168'
p769
(lp770
g5
ag5
ag5
ag5
ag5
ag5
ag5
ag5
ag5
ag5
ag5
ag5
ag5
ag5
ag5
ag5
ag5
ag5
asS'intr_602'
p771
(lp772
g5
ag5
ag5
ag5
ag5
ag5
ag5
ag5
ag5
ag5
ag5
ag5
ag5
ag5
ag5
ag5
ag5
ag5
asS'intr_603'
p773
(lp774
g5
ag5
ag5
ag5
ag5
ag5
ag5
ag5
ag5
ag5
ag5
ag5
ag5
ag5
ag5
ag5
ag5
ag5
asS'intr_763'
p775
(lp776
g5
ag5
ag5
ag5
ag5
ag5
ag5
ag5
ag5
ag5
ag5
ag5
ag5
ag5
ag5
ag5
ag5
ag5
asS'intr_762'
p777
(lp778
g5
ag5
ag5
ag5
ag5
ag5
ag5
ag5
ag5
ag5
ag5
ag5
ag5
ag5
ag5
ag5
ag5
ag5
asS'intr_761'
p779
(lp780
g5
ag5
ag5
ag5
ag5
ag5
ag5
ag5
ag5
ag5
ag5
ag5
ag5
ag5
ag5
ag5
ag5
ag5
asS'intr_760'
p781
(lp782
g5
ag5
ag5
ag5
ag5
ag5
ag5
ag5
ag5
ag5
ag5
ag5
ag5
ag5
ag5
ag5
ag5
ag5
asS'intr_767'
p783
(lp784
g5
ag5
ag5
ag5
ag5
ag5
ag5
ag5
ag5
ag5
ag5
ag5
ag5
ag5
ag5
ag5
ag5
ag5
asS'intr_453'
p785
(lp786
g5
ag5
ag5
ag5
ag5
ag5
ag5
ag5
ag5
ag5
ag5
ag5
ag5
ag5
ag5
ag5
ag5
ag5
asS'intr_765'
p787
(lp788
g5
ag5
ag5
ag5
ag5
ag5
ag5
ag5
ag5
ag5
ag5
ag5
ag5
ag5
ag5
ag5
ag5
ag5
asS'intr_764'
p789
(lp790
g5
ag5
ag5
ag5
ag5
ag5
ag5
ag5
ag5
ag5
ag5
ag5
ag5
ag5
ag5
ag5
ag5
ag5
asS'intr_769'
p791
(lp792
g5
ag5
ag5
ag5
ag5
ag5
ag5
ag5
ag5
ag5
ag5
ag5
ag5
ag5
ag5
ag5
ag5
ag5
asS'intr_768'
p793
(lp794
g5
ag5
ag5
ag5
ag5
ag5
ag5
ag5
ag5
ag5
ag5
ag5
ag5
ag5
ag5
ag5
ag5
ag5
asS'intr_528'
p795
(lp796
g5
ag5
ag5
ag5
ag5
ag5
ag5
ag5
ag5
ag5
ag5
ag5
ag5
ag5
ag5
ag5
ag5
ag5
asS'intr_110'
p797
(lp798
g5
ag5
ag5
ag5
ag5
ag5
ag5
ag5
ag5
ag5
ag5
ag5
ag5
ag5
ag5
ag5
ag5
ag5
asS'intr_111'
p799
(lp800
g5
ag5
ag5
ag5
ag5
ag5
ag5
ag5
ag5
ag5
ag5
ag5
ag5
ag5
ag5
ag5
ag5
ag5
asS'intr_112'
p801
(lp802
g5
ag5
ag5
ag5
ag5
ag5
ag5
ag5
ag5
ag5
ag5
ag5
ag5
ag5
ag5
ag5
ag5
ag5
asS'intr_113'
p803
(lp804
g5
ag5
ag5
ag5
ag5
ag5
ag5
ag5
ag5
ag5
ag5
ag5
ag5
ag5
ag5
ag5
ag5
ag5
asS'intr_114'
p805
(lp806
g5
ag5
ag5
ag5
ag5
ag5
ag5
ag5
ag5
ag5
ag5
ag5
ag5
ag5
ag5
ag5
ag5
ag5
asS'intr_115'
p807
(lp808
g5
ag5
ag5
ag5
ag5
ag5
ag5
ag5
ag5
ag5
ag5
ag5
ag5
ag5
ag5
ag5
ag5
ag5
asS'intr_116'
p809
(lp810
g5
ag5
ag5
ag5
ag5
ag5
ag5
ag5
ag5
ag5
ag5
ag5
ag5
ag5
ag5
ag5
ag5
ag5
asS'intr_117'
p811
(lp812
g5
ag5
ag5
ag5
ag5
ag5
ag5
ag5
ag5
ag5
ag5
ag5
ag5
ag5
ag5
ag5
ag5
ag5
asS'intr_118'
p813
(lp814
g5
ag5
ag5
ag5
ag5
ag5
ag5
ag5
ag5
ag5
ag5
ag5
ag5
ag5
ag5
ag5
ag5
ag5
asS'intr_119'
p815
(lp816
g5
ag5
ag5
ag5
ag5
ag5
ag5
ag5
ag5
ag5
ag5
ag5
ag5
ag5
ag5
ag5
ag5
ag5
asS'intr_509'
p817
(lp818
g5
ag5
ag5
ag5
ag5
ag5
ag5
ag5
ag5
ag5
ag5
ag5
ag5
ag5
ag5
ag5
ag5
ag5
asS'intr_508'
p819
(lp820
g5
ag5
ag5
ag5
ag5
ag5
ag5
ag5
ag5
ag5
ag5
ag5
ag5
ag5
ag5
ag5
ag5
ag5
asS'intr_697'
p821
(lp822
g5
ag5
ag5
ag5
ag5
ag5
ag5
ag5
ag5
ag5
ag5
ag5
ag5
ag5
ag5
ag5
ag5
ag5
asS'intr_499'
p823
(lp824
g5
ag5
ag5
ag5
ag5
ag5
ag5
ag5
ag5
ag5
ag5
ag5
ag5
ag5
ag5
ag5
ag5
ag5
asS'intr_695'
p825
(lp826
g5
ag5
ag5
ag5
ag5
ag5
ag5
ag5
ag5
ag5
ag5
ag5
ag5
ag5
ag5
ag5
ag5
ag5
asS'intr_694'
p827
(lp828
g5
ag5
ag5
ag5
ag5
ag5
ag5
ag5
ag5
ag5
ag5
ag5
ag5
ag5
ag5
ag5
ag5
ag5
asS'intr_693'
p829
(lp830
g5
ag5
ag5
ag5
ag5
ag5
ag5
ag5
ag5
ag5
ag5
ag5
ag5
ag5
ag5
ag5
ag5
ag5
asS'intr_692'
p831
(lp832
g5
ag5
ag5
ag5
ag5
ag5
ag5
ag5
ag5
ag5
ag5
ag5
ag5
ag5
ag5
ag5
ag5
ag5
asS'intr_691'
p833
(lp834
g5
ag5
ag5
ag5
ag5
ag5
ag5
ag5
ag5
ag5
ag5
ag5
ag5
ag5
ag5
ag5
ag5
ag5
asS'intr_498'
p835
(lp836
g5
ag5
ag5
ag5
ag5
ag5
ag5
ag5
ag5
ag5
ag5
ag5
ag5
ag5
ag5
ag5
ag5
ag5
asS'intr_699'
p837
(lp838
g5
ag5
ag5
ag5
ag5
ag5
ag5
ag5
ag5
ag5
ag5
ag5
ag5
ag5
ag5
ag5
ag5
ag5
asS'intr_698'
p839
(lp840
g5
ag5
ag5
ag5
ag5
ag5
ag5
ag5
ag5
ag5
ag5
ag5
ag5
ag5
ag5
ag5
ag5
ag5
asS'intr_598'
p841
(lp842
g5
ag5
ag5
ag5
ag5
ag5
ag5
ag5
ag5
ag5
ag5
ag5
ag5
ag5
ag5
ag5
ag5
ag5
asS'intr_599'
p843
(lp844
g5
ag5
ag5
ag5
ag5
ag5
ag5
ag5
ag5
ag5
ag5
ag5
ag5
ag5
ag5
ag5
ag5
ag5
asS'cpu1_1'
p845
(lp846
S'159480'
p847
aS'159480'
p848
aS'159480'
p849
aS'159541'
p850
aS'159588'
p851
aS'159637'
p852
aS'159728'
p853
aS'159817'
p854
aS'159910'
p855
aS'159986'
p856
aS'160086'
p857
aS'160180'
p858
aS'160278'
p859
aS'160374'
p860
aS'160454'
p861
aS'160548'
p862
aS'160647'
p863
aS'160736'
p864
asS'intr_594'
p865
(lp866
g5
ag5
ag5
ag5
ag5
ag5
ag5
ag5
ag5
ag5
ag5
ag5
ag5
ag5
ag5
ag5
ag5
ag5
asS'intr_595'
p867
(lp868
g5
ag5
ag5
ag5
ag5
ag5
ag5
ag5
ag5
ag5
ag5
ag5
ag5
ag5
ag5
ag5
ag5
ag5
asS'intr_596'
p869
(lp870
g5
ag5
ag5
ag5
ag5
ag5
ag5
ag5
ag5
ag5
ag5
ag5
ag5
ag5
ag5
ag5
ag5
ag5
asS'intr_597'
p871
(lp872
g5
ag5
ag5
ag5
ag5
ag5
ag5
ag5
ag5
ag5
ag5
ag5
ag5
ag5
ag5
ag5
ag5
ag5
asS'intr_590'
p873
(lp874
g5
ag5
ag5
ag5
ag5
ag5
ag5
ag5
ag5
ag5
ag5
ag5
ag5
ag5
ag5
ag5
ag5
ag5
asS'intr_591'
p875
(lp876
g5
ag5
ag5
ag5
ag5
ag5
ag5
ag5
ag5
ag5
ag5
ag5
ag5
ag5
ag5
ag5
ag5
ag5
asS'intr_592'
p877
(lp878
g5
ag5
ag5
ag5
ag5
ag5
ag5
ag5
ag5
ag5
ag5
ag5
ag5
ag5
ag5
ag5
ag5
ag5
asS'intr_593'
p879
(lp880
g5
ag5
ag5
ag5
ag5
ag5
ag5
ag5
ag5
ag5
ag5
ag5
ag5
ag5
ag5
ag5
ag5
ag5
asS'intr_491'
p881
(lp882
g5
ag5
ag5
ag5
ag5
ag5
ag5
ag5
ag5
ag5
ag5
ag5
ag5
ag5
ag5
ag5
ag5
ag5
asS'intr_439'
p883
(lp884
g5
ag5
ag5
ag5
ag5
ag5
ag5
ag5
ag5
ag5
ag5
ag5
ag5
ag5
ag5
ag5
ag5
ag5
asS'intr_438'
p885
(lp886
g5
ag5
ag5
ag5
ag5
ag5
ag5
ag5
ag5
ag5
ag5
ag5
ag5
ag5
ag5
ag5
ag5
ag5
asS'intr_349'
p887
(lp888
g5
ag5
ag5
ag5
ag5
ag5
ag5
ag5
ag5
ag5
ag5
ag5
ag5
ag5
ag5
ag5
ag5
ag5
asS'intr_348'
p889
(lp890
g5
ag5
ag5
ag5
ag5
ag5
ag5
ag5
ag5
ag5
ag5
ag5
ag5
ag5
ag5
ag5
ag5
ag5
asS'intr_490'
p891
(lp892
g5
ag5
ag5
ag5
ag5
ag5
ag5
ag5
ag5
ag5
ag5
ag5
ag5
ag5
ag5
ag5
ag5
ag5
asS'intr_345'
p893
(lp894
g5
ag5
ag5
ag5
ag5
ag5
ag5
ag5
ag5
ag5
ag5
ag5
ag5
ag5
ag5
ag5
ag5
ag5
asS'intr_344'
p895
(lp896
g5
ag5
ag5
ag5
ag5
ag5
ag5
ag5
ag5
ag5
ag5
ag5
ag5
ag5
ag5
ag5
ag5
ag5
asS'intr_347'
p897
(lp898
g5
ag5
ag5
ag5
ag5
ag5
ag5
ag5
ag5
ag5
ag5
ag5
ag5
ag5
ag5
ag5
ag5
ag5
asS'intr_346'
p899
(lp900
g5
ag5
ag5
ag5
ag5
ag5
ag5
ag5
ag5
ag5
ag5
ag5
ag5
ag5
ag5
ag5
ag5
ag5
asS'intr_341'
p901
(lp902
g5
ag5
ag5
ag5
ag5
ag5
ag5
ag5
ag5
ag5
ag5
ag5
ag5
ag5
ag5
ag5
ag5
ag5
asS'intr_340'
p903
(lp904
g5
ag5
ag5
ag5
ag5
ag5
ag5
ag5
ag5
ag5
ag5
ag5
ag5
ag5
ag5
ag5
ag5
ag5
asS'intr_343'
p905
(lp906
g5
ag5
ag5
ag5
ag5
ag5
ag5
ag5
ag5
ag5
ag5
ag5
ag5
ag5
ag5
ag5
ag5
ag5
asS'intr_342'
p907
(lp908
g5
ag5
ag5
ag5
ag5
ag5
ag5
ag5
ag5
ag5
ag5
ag5
ag5
ag5
ag5
ag5
ag5
ag5
asS'intr_96'
p909
(lp910
g5
ag5
ag5
ag5
ag5
ag5
ag5
ag5
ag5
ag5
ag5
ag5
ag5
ag5
ag5
ag5
ag5
ag5
asS'intr_189'
p911
(lp912
g5
ag5
ag5
ag5
ag5
ag5
ag5
ag5
ag5
ag5
ag5
ag5
ag5
ag5
ag5
ag5
ag5
ag5
asS'intr_188'
p913
(lp914
g5
ag5
ag5
ag5
ag5
ag5
ag5
ag5
ag5
ag5
ag5
ag5
ag5
ag5
ag5
ag5
ag5
ag5
asS'intr_673'
p915
(lp916
g5
ag5
ag5
ag5
ag5
ag5
ag5
ag5
ag5
ag5
ag5
ag5
ag5
ag5
ag5
ag5
ag5
ag5
asS'intr_97'
p917
(lp918
g5
ag5
ag5
ag5
ag5
ag5
ag5
ag5
ag5
ag5
ag5
ag5
ag5
ag5
ag5
ag5
ag5
ag5
asS'intr_183'
p919
(lp920
g5
ag5
ag5
ag5
ag5
ag5
ag5
ag5
ag5
ag5
ag5
ag5
ag5
ag5
ag5
ag5
ag5
ag5
asS'intr_182'
p921
(lp922
g5
ag5
ag5
ag5
ag5
ag5
ag5
ag5
ag5
ag5
ag5
ag5
ag5
ag5
ag5
ag5
ag5
ag5
asS'intr_181'
p923
(lp924
g5
ag5
ag5
ag5
ag5
ag5
ag5
ag5
ag5
ag5
ag5
ag5
ag5
ag5
ag5
ag5
ag5
ag5
asS'intr_180'
p925
(lp926
g5
ag5
ag5
ag5
ag5
ag5
ag5
ag5
ag5
ag5
ag5
ag5
ag5
ag5
ag5
ag5
ag5
ag5
asS'intr_187'
p927
(lp928
g5
ag5
ag5
ag5
ag5
ag5
ag5
ag5
ag5
ag5
ag5
ag5
ag5
ag5
ag5
ag5
ag5
ag5
asS'intr_186'
p929
(lp930
g5
ag5
ag5
ag5
ag5
ag5
ag5
ag5
ag5
ag5
ag5
ag5
ag5
ag5
ag5
ag5
ag5
ag5
asS'intr_185'
p931
(lp932
g5
ag5
ag5
ag5
ag5
ag5
ag5
ag5
ag5
ag5
ag5
ag5
ag5
ag5
ag5
ag5
ag5
ag5
asS'intr_184'
p933
(lp934
g5
ag5
ag5
ag5
ag5
ag5
ag5
ag5
ag5
ag5
ag5
ag5
ag5
ag5
ag5
ag5
ag5
ag5
asS'intr_749'
p935
(lp936
g5
ag5
ag5
ag5
ag5
ag5
ag5
ag5
ag5
ag5
ag5
ag5
ag5
ag5
ag5
ag5
ag5
ag5
asS'intr_95'
p937
(lp938
g5
ag5
ag5
ag5
ag5
ag5
ag5
ag5
ag5
ag5
ag5
ag5
ag5
ag5
ag5
ag5
ag5
ag5
asS'intr_497'
p939
(lp940
g5
ag5
ag5
ag5
ag5
ag5
ag5
ag5
ag5
ag5
ag5
ag5
ag5
ag5
ag5
ag5
ag5
ag5
asS'intr_92'
p941
(lp942
g5
ag5
ag5
ag5
ag5
ag5
ag5
ag5
ag5
ag5
ag5
ag5
ag5
ag5
ag5
ag5
ag5
ag5
asS'intr_496'
p943
(lp944
g5
ag5
ag5
ag5
ag5
ag5
ag5
ag5
ag5
ag5
ag5
ag5
ag5
ag5
ag5
ag5
ag5
ag5
asS'intr_93'
p945
(lp946
g5
ag5
ag5
ag5
ag5
ag5
ag5
ag5
ag5
ag5
ag5
ag5
ag5
ag5
ag5
ag5
ag5
ag5
asS'intr_90'
p947
(lp948
g5
ag5
ag5
ag5
ag5
ag5
ag5
ag5
ag5
ag5
ag5
ag5
ag5
ag5
ag5
ag5
ag5
ag5
asS'intr_688'
p949
(lp950
g5
ag5
ag5
ag5
ag5
ag5
ag5
ag5
ag5
ag5
ag5
ag5
ag5
ag5
ag5
ag5
ag5
ag5
asS'intr_91'
p951
(lp952
g5
ag5
ag5
ag5
ag5
ag5
ag5
ag5
ag5
ag5
ag5
ag5
ag5
ag5
ag5
ag5
ag5
ag5
asS'intr_748'
p953
(lp954
g5
ag5
ag5
ag5
ag5
ag5
ag5
ag5
ag5
ag5
ag5
ag5
ag5
ag5
ag5
ag5
ag5
ag5
asS'intr_568'
p955
(lp956
g5
ag5
ag5
ag5
ag5
ag5
ag5
ag5
ag5
ag5
ag5
ag5
ag5
ag5
ag5
ag5
ag5
ag5
asS'intr_757'
p957
(lp958
g5
ag5
ag5
ag5
ag5
ag5
ag5
ag5
ag5
ag5
ag5
ag5
ag5
ag5
ag5
ag5
ag5
ag5
asS'cpu1_9'
p959
(lp960
g5
ag5
ag5
ag5
ag5
ag5
ag5
ag5
ag5
ag5
ag5
ag5
ag5
ag5
ag5
ag5
ag5
ag5
asS'intr_231'
p961
(lp962
g5
ag5
ag5
ag5
ag5
ag5
ag5
ag5
ag5
ag5
ag5
ag5
ag5
ag5
ag5
ag5
ag5
ag5
asS'intr_230'
p963
(lp964
g5
ag5
ag5
ag5
ag5
ag5
ag5
ag5
ag5
ag5
ag5
ag5
ag5
ag5
ag5
ag5
ag5
ag5
asS'intr_233'
p965
(lp966
g5
ag5
ag5
ag5
ag5
ag5
ag5
ag5
ag5
ag5
ag5
ag5
ag5
ag5
ag5
ag5
ag5
ag5
asS'intr_232'
p967
(lp968
g5
ag5
ag5
ag5
ag5
ag5
ag5
ag5
ag5
ag5
ag5
ag5
ag5
ag5
ag5
ag5
ag5
ag5
asS'intr_235'
p969
(lp970
g5
ag5
ag5
ag5
ag5
ag5
ag5
ag5
ag5
ag5
ag5
ag5
ag5
ag5
ag5
ag5
ag5
ag5
asS'intr_149'
p971
(lp972
g5
ag5
ag5
ag5
ag5
ag5
ag5
ag5
ag5
ag5
ag5
ag5
ag5
ag5
ag5
ag5
ag5
ag5
asS'intr_237'
p973
(lp974
g5
ag5
ag5
ag5
ag5
ag5
ag5
ag5
ag5
ag5
ag5
ag5
ag5
ag5
ag5
ag5
ag5
ag5
asS'intr_236'
p975
(lp976
g5
ag5
ag5
ag5
ag5
ag5
ag5
ag5
ag5
ag5
ag5
ag5
ag5
ag5
ag5
ag5
ag5
ag5
asS'intr_239'
p977
(lp978
g5
ag5
ag5
ag5
ag5
ag5
ag5
ag5
ag5
ag5
ag5
ag5
ag5
ag5
ag5
ag5
ag5
ag5
asS'intr_238'
p979
(lp980
g5
ag5
ag5
ag5
ag5
ag5
ag5
ag5
ag5
ag5
ag5
ag5
ag5
ag5
ag5
ag5
ag5
ag5
asS'intr_332'
p981
(lp982
g5
ag5
ag5
ag5
ag5
ag5
ag5
ag5
ag5
ag5
ag5
ag5
ag5
ag5
ag5
ag5
ag5
ag5
asS'intr_148'
p983
(lp984
g5
ag5
ag5
ag5
ag5
ag5
ag5
ag5
ag5
ag5
ag5
ag5
ag5
ag5
ag5
ag5
ag5
ag5
asS'intr_334'
p985
(lp986
g5
ag5
ag5
ag5
ag5
ag5
ag5
ag5
ag5
ag5
ag5
ag5
ag5
ag5
ag5
ag5
ag5
ag5
asS'intr_335'
p987
(lp988
g5
ag5
ag5
ag5
ag5
ag5
ag5
ag5
ag5
ag5
ag5
ag5
ag5
ag5
ag5
ag5
ag5
ag5
asS'intr_336'
p989
(lp990
g5
ag5
ag5
ag5
ag5
ag5
ag5
ag5
ag5
ag5
ag5
ag5
ag5
ag5
ag5
ag5
ag5
ag5
asS'intr_337'
p991
(lp992
g5
ag5
ag5
ag5
ag5
ag5
ag5
ag5
ag5
ag5
ag5
ag5
ag5
ag5
ag5
ag5
ag5
ag5
asS'intr_147'
p993
(lp994
g5
ag5
ag5
ag5
ag5
ag5
ag5
ag5
ag5
ag5
ag5
ag5
ag5
ag5
ag5
ag5
ag5
ag5
asS'intr_138'
p995
(lp996
g5
ag5
ag5
ag5
ag5
ag5
ag5
ag5
ag5
ag5
ag5
ag5
ag5
ag5
ag5
ag5
ag5
ag5
asS'intr_146'
p997
(lp998
g5
ag5
ag5
ag5
ag5
ag5
ag5
ag5
ag5
ag5
ag5
ag5
ag5
ag5
ag5
ag5
ag5
ag5
asS'intr_139'
p999
(lp1000
g5
ag5
ag5
ag5
ag5
ag5
ag5
ag5
ag5
ag5
ag5
ag5
ag5
ag5
ag5
ag5
ag5
ag5
asS'intr_145'
p1001
(lp1002
g5
ag5
ag5
ag5
ag5
ag5
ag5
ag5
ag5
ag5
ag5
ag5
ag5
ag5
ag5
ag5
ag5
ag5
asS'intr_338'
p1003
(lp1004
g5
ag5
ag5
ag5
ag5
ag5
ag5
ag5
ag5
ag5
ag5
ag5
ag5
ag5
ag5
ag5
ag5
ag5
asS'intr_144'
p1005
(lp1006
g5
ag5
ag5
ag5
ag5
ag5
ag5
ag5
ag5
ag5
ag5
ag5
ag5
ag5
ag5
ag5
ag5
ag5
asS'intr_729'
p1007
(lp1008
g5
ag5
ag5
ag5
ag5
ag5
ag5
ag5
ag5
ag5
ag5
ag5
ag5
ag5
ag5
ag5
ag5
ag5
asS'intr_339'
p1009
(lp1010
g5
ag5
ag5
ag5
ag5
ag5
ag5
ag5
ag5
ag5
ag5
ag5
ag5
ag5
ag5
ag5
ag5
ag5
asS'intr_727'
p1011
(lp1012
g5
ag5
ag5
ag5
ag5
ag5
ag5
ag5
ag5
ag5
ag5
ag5
ag5
ag5
ag5
ag5
ag5
ag5
asS'intr_8'
p1013
(lp1014
S'2'
p1015
ag1015
ag1015
ag1015
ag1015
ag1015
ag1015
ag1015
ag1015
ag1015
ag1015
ag1015
ag1015
ag1015
ag1015
ag1015
ag1015
ag1015
asS'intr_725'
p1016
(lp1017
g5
ag5
ag5
ag5
ag5
ag5
ag5
ag5
ag5
ag5
ag5
ag5
ag5
ag5
ag5
ag5
ag5
ag5
asS'intr_724'
p1018
(lp1019
g5
ag5
ag5
ag5
ag5
ag5
ag5
ag5
ag5
ag5
ag5
ag5
ag5
ag5
ag5
ag5
ag5
ag5
asS'intr_723'
p1020
(lp1021
g5
ag5
ag5
ag5
ag5
ag5
ag5
ag5
ag5
ag5
ag5
ag5
ag5
ag5
ag5
ag5
ag5
ag5
asS'intr_722'
p1022
(lp1023
g5
ag5
ag5
ag5
ag5
ag5
ag5
ag5
ag5
ag5
ag5
ag5
ag5
ag5
ag5
ag5
ag5
ag5
asS'intr_721'
p1024
(lp1025
g5
ag5
ag5
ag5
ag5
ag5
ag5
ag5
ag5
ag5
ag5
ag5
ag5
ag5
ag5
ag5
ag5
ag5
asS'intr_142'
p1026
(lp1027
g5
ag5
ag5
ag5
ag5
ag5
ag5
ag5
ag5
ag5
ag5
ag5
ag5
ag5
ag5
ag5
ag5
ag5
asS'intr_141'
p1028
(lp1029
g5
ag5
ag5
ag5
ag5
ag5
ag5
ag5
ag5
ag5
ag5
ag5
ag5
ag5
ag5
ag5
ag5
ag5
asS'intr_140'
p1030
(lp1031
g5
ag5
ag5
ag5
ag5
ag5
ag5
ag5
ag5
ag5
ag5
ag5
ag5
ag5
ag5
ag5
ag5
ag5
asS'intr_563'
p1032
(lp1033
g5
ag5
ag5
ag5
ag5
ag5
ag5
ag5
ag5
ag5
ag5
ag5
ag5
ag5
ag5
ag5
ag5
ag5
asS'intr_234'
p1034
(lp1035
g5
ag5
ag5
ag5
ag5
ag5
ag5
ag5
ag5
ag5
ag5
ag5
ag5
ag5
ag5
ag5
ag5
ag5
asS'intr_802'
p1036
(lp1037
g5
ag5
ag5
ag5
ag5
ag5
ag5
ag5
ag5
ag5
ag5
ag5
ag5
ag5
ag5
ag5
ag5
ag5
asS'intr_330'
p1038
(lp1039
g5
ag5
ag5
ag5
ag5
ag5
ag5
ag5
ag5
ag5
ag5
ag5
ag5
ag5
ag5
ag5
ag5
ag5
asS'intr_800'
p1040
(lp1041
g5
ag5
ag5
ag5
ag5
ag5
ag5
ag5
ag5
ag5
ag5
ag5
ag5
ag5
ag5
ag5
ag5
ag5
asS'intr_801'
p1042
(lp1043
g5
ag5
ag5
ag5
ag5
ag5
ag5
ag5
ag5
ag5
ag5
ag5
ag5
ag5
ag5
ag5
ag5
ag5
asS'intr_806'
p1044
(lp1045
g5
ag5
ag5
ag5
ag5
ag5
ag5
ag5
ag5
ag5
ag5
ag5
ag5
ag5
ag5
ag5
ag5
ag5
asS'intr_807'
p1046
(lp1047
g5
ag5
ag5
ag5
ag5
ag5
ag5
ag5
ag5
ag5
ag5
ag5
ag5
ag5
ag5
ag5
ag5
ag5
asS'intr_804'
p1048
(lp1049
g5
ag5
ag5
ag5
ag5
ag5
ag5
ag5
ag5
ag5
ag5
ag5
ag5
ag5
ag5
ag5
ag5
ag5
asS'intr_331'
p1050
(lp1051
g5
ag5
ag5
ag5
ag5
ag5
ag5
ag5
ag5
ag5
ag5
ag5
ag5
ag5
ag5
ag5
ag5
ag5
asS'intr_789'
p1052
(lp1053
g5
ag5
ag5
ag5
ag5
ag5
ag5
ag5
ag5
ag5
ag5
ag5
ag5
ag5
ag5
ag5
ag5
ag5
asS'intr_808'
p1054
(lp1055
g5
ag5
ag5
ag5
ag5
ag5
ag5
ag5
ag5
ag5
ag5
ag5
ag5
ag5
ag5
ag5
ag5
ag5
asS'intr_809'
p1056
(lp1057
g5
ag5
ag5
ag5
ag5
ag5
ag5
ag5
ag5
ag5
ag5
ag5
ag5
ag5
ag5
ag5
ag5
ag5
asS'intr_788'
p1058
(lp1059
g5
ag5
ag5
ag5
ag5
ag5
ag5
ag5
ag5
ag5
ag5
ag5
ag5
ag5
ag5
ag5
ag5
ag5
asS'intr_333'
p1060
(lp1061
g5
ag5
ag5
ag5
ag5
ag5
ag5
ag5
ag5
ag5
ag5
ag5
ag5
ag5
ag5
ag5
ag5
ag5
asS'intr_158'
p1062
(lp1063
g5
ag5
ag5
ag5
ag5
ag5
ag5
ag5
ag5
ag5
ag5
ag5
ag5
ag5
ag5
ag5
ag5
ag5
asS'intr_159'
p1064
(lp1065
g5
ag5
ag5
ag5
ag5
ag5
ag5
ag5
ag5
ag5
ag5
ag5
ag5
ag5
ag5
ag5
ag5
ag5
asS'intr_154'
p1066
(lp1067
g5
ag5
ag5
ag5
ag5
ag5
ag5
ag5
ag5
ag5
ag5
ag5
ag5
ag5
ag5
ag5
ag5
ag5
asS'intr_155'
p1068
(lp1069
g5
ag5
ag5
ag5
ag5
ag5
ag5
ag5
ag5
ag5
ag5
ag5
ag5
ag5
ag5
ag5
ag5
ag5
asS'intr_156'
p1070
(lp1071
g5
ag5
ag5
ag5
ag5
ag5
ag5
ag5
ag5
ag5
ag5
ag5
ag5
ag5
ag5
ag5
ag5
ag5
asS'intr_157'
p1072
(lp1073
g5
ag5
ag5
ag5
ag5
ag5
ag5
ag5
ag5
ag5
ag5
ag5
ag5
ag5
ag5
ag5
ag5
ag5
asS'intr_150'
p1074
(lp1075
g5
ag5
ag5
ag5
ag5
ag5
ag5
ag5
ag5
ag5
ag5
ag5
ag5
ag5
ag5
ag5
ag5
ag5
asS'intr_151'
p1076
(lp1077
g5
ag5
ag5
ag5
ag5
ag5
ag5
ag5
ag5
ag5
ag5
ag5
ag5
ag5
ag5
ag5
ag5
ag5
asS'intr_152'
p1078
(lp1079
g5
ag5
ag5
ag5
ag5
ag5
ag5
ag5
ag5
ag5
ag5
ag5
ag5
ag5
ag5
ag5
ag5
ag5
asS'intr_153'
p1080
(lp1081
g5
ag5
ag5
ag5
ag5
ag5
ag5
ag5
ag5
ag5
ag5
ag5
ag5
ag5
ag5
ag5
ag5
ag5
asS'intr_653'
p1082
(lp1083
g5
ag5
ag5
ag5
ag5
ag5
ag5
ag5
ag5
ag5
ag5
ag5
ag5
ag5
ag5
ag5
ag5
ag5
asS'intr_652'
p1084
(lp1085
g5
ag5
ag5
ag5
ag5
ag5
ag5
ag5
ag5
ag5
ag5
ag5
ag5
ag5
ag5
ag5
ag5
ag5
asS'intr_651'
p1086
(lp1087
g5
ag5
ag5
ag5
ag5
ag5
ag5
ag5
ag5
ag5
ag5
ag5
ag5
ag5
ag5
ag5
ag5
ag5
asS'intr_650'
p1088
(lp1089
g5
ag5
ag5
ag5
ag5
ag5
ag5
ag5
ag5
ag5
ag5
ag5
ag5
ag5
ag5
ag5
ag5
ag5
asS'intr_657'
p1090
(lp1091
g5
ag5
ag5
ag5
ag5
ag5
ag5
ag5
ag5
ag5
ag5
ag5
ag5
ag5
ag5
ag5
ag5
ag5
asS'intr_656'
p1092
(lp1093
g5
ag5
ag5
ag5
ag5
ag5
ag5
ag5
ag5
ag5
ag5
ag5
ag5
ag5
ag5
ag5
ag5
ag5
asS'intr_655'
p1094
(lp1095
g5
ag5
ag5
ag5
ag5
ag5
ag5
ag5
ag5
ag5
ag5
ag5
ag5
ag5
ag5
ag5
ag5
ag5
asS'intr_654'
p1096
(lp1097
g5
ag5
ag5
ag5
ag5
ag5
ag5
ag5
ag5
ag5
ag5
ag5
ag5
ag5
ag5
ag5
ag5
ag5
asS'intr_792'
p1098
(lp1099
g5
ag5
ag5
ag5
ag5
ag5
ag5
ag5
ag5
ag5
ag5
ag5
ag5
ag5
ag5
ag5
ag5
ag5
asS'intr_793'
p1100
(lp1101
g5
ag5
ag5
ag5
ag5
ag5
ag5
ag5
ag5
ag5
ag5
ag5
ag5
ag5
ag5
ag5
ag5
ag5
asS'intr_659'
p1102
(lp1103
g5
ag5
ag5
ag5
ag5
ag5
ag5
ag5
ag5
ag5
ag5
ag5
ag5
ag5
ag5
ag5
ag5
ag5
asS'intr_658'
p1104
(lp1105
g5
ag5
ag5
ag5
ag5
ag5
ag5
ag5
ag5
ag5
ag5
ag5
ag5
ag5
ag5
ag5
ag5
ag5
asS'intr_796'
p1106
(lp1107
g5
ag5
ag5
ag5
ag5
ag5
ag5
ag5
ag5
ag5
ag5
ag5
ag5
ag5
ag5
ag5
ag5
ag5
asS'intr_797'
p1108
(lp1109
g5
ag5
ag5
ag5
ag5
ag5
ag5
ag5
ag5
ag5
ag5
ag5
ag5
ag5
ag5
ag5
ag5
ag5
asS'intr_794'
p1110
(lp1111
g5
ag5
ag5
ag5
ag5
ag5
ag5
ag5
ag5
ag5
ag5
ag5
ag5
ag5
ag5
ag5
ag5
ag5
asS'intr_795'
p1112
(lp1113
g5
ag5
ag5
ag5
ag5
ag5
ag5
ag5
ag5
ag5
ag5
ag5
ag5
ag5
ag5
ag5
ag5
ag5
asS'intr_781'
p1114
(lp1115
g5
ag5
ag5
ag5
ag5
ag5
ag5
ag5
ag5
ag5
ag5
ag5
ag5
ag5
ag5
ag5
ag5
ag5
asS'softirq_10'
p1116
(lp1117
S'1434'
p1118
aS'1435'
p1119
aS'1435'
p1120
aS'1435'
p1121
aS'1435'
p1122
aS'1435'
p1123
aS'1435'
p1124
aS'1435'
p1125
aS'1435'
p1126
aS'1435'
p1127
aS'1435'
p1128
aS'1435'
p1129
aS'1435'
p1130
aS'1435'
p1131
aS'1435'
p1132
aS'1435'
p1133
aS'1435'
p1134
aS'1435'
p1135
asS'intr_783'
p1136
(lp1137
g5
ag5
ag5
ag5
ag5
ag5
ag5
ag5
ag5
ag5
ag5
ag5
ag5
ag5
ag5
ag5
ag5
ag5
asS'btime_1'
p1138
(lp1139
S'1329431306'
p1140
aS'1329431306'
p1141
aS'1329431306'
p1142
aS'1329431306'
p1143
aS'1329431306'
p1144
aS'1329431306'
p1145
aS'1329431306'
p1146
aS'1329431306'
p1147
aS'1329431306'
p1148
aS'1329431306'
p1149
aS'1329431306'
p1150
aS'1329431306'
p1151
aS'1329431306'
p1152
aS'1329431306'
p1153
aS'1329431306'
p1154
aS'1329431306'
p1155
aS'1329431306'
p1156
aS'1329431306'
p1157
asS'intr_782'
p1158
(lp1159
g5
ag5
ag5
ag5
ag5
ag5
ag5
ag5
ag5
ag5
ag5
ag5
ag5
ag5
ag5
ag5
ag5
ag5
asS'intr_389'
p1160
(lp1161
g5
ag5
ag5
ag5
ag5
ag5
ag5
ag5
ag5
ag5
ag5
ag5
ag5
ag5
ag5
ag5
ag5
ag5
asS'intr_388'
p1162
(lp1163
g5
ag5
ag5
ag5
ag5
ag5
ag5
ag5
ag5
ag5
ag5
ag5
ag5
ag5
ag5
ag5
ag5
ag5
asS'intr_381'
p1164
(lp1165
g5
ag5
ag5
ag5
ag5
ag5
ag5
ag5
ag5
ag5
ag5
ag5
ag5
ag5
ag5
ag5
ag5
ag5
asS'intr_380'
p1166
(lp1167
g5
ag5
ag5
ag5
ag5
ag5
ag5
ag5
ag5
ag5
ag5
ag5
ag5
ag5
ag5
ag5
ag5
ag5
asS'intr_383'
p1168
(lp1169
g5
ag5
ag5
ag5
ag5
ag5
ag5
ag5
ag5
ag5
ag5
ag5
ag5
ag5
ag5
ag5
ag5
ag5
asS'intr_382'
p1170
(lp1171
g5
ag5
ag5
ag5
ag5
ag5
ag5
ag5
ag5
ag5
ag5
ag5
ag5
ag5
ag5
ag5
ag5
ag5
asS'intr_385'
p1172
(lp1173
g5
ag5
ag5
ag5
ag5
ag5
ag5
ag5
ag5
ag5
ag5
ag5
ag5
ag5
ag5
ag5
ag5
ag5
asS'intr_384'
p1174
(lp1175
g5
ag5
ag5
ag5
ag5
ag5
ag5
ag5
ag5
ag5
ag5
ag5
ag5
ag5
ag5
ag5
ag5
ag5
asS'intr_387'
p1176
(lp1177
g5
ag5
ag5
ag5
ag5
ag5
ag5
ag5
ag5
ag5
ag5
ag5
ag5
ag5
ag5
ag5
ag5
ag5
asS'intr_386'
p1178
(lp1179
g5
ag5
ag5
ag5
ag5
ag5
ag5
ag5
ag5
ag5
ag5
ag5
ag5
ag5
ag5
ag5
ag5
ag5
asS'intr_477'
p1180
(lp1181
g5
ag5
ag5
ag5
ag5
ag5
ag5
ag5
ag5
ag5
ag5
ag5
ag5
ag5
ag5
ag5
ag5
ag5
asS'intr_476'
p1182
(lp1183
g5
ag5
ag5
ag5
ag5
ag5
ag5
ag5
ag5
ag5
ag5
ag5
ag5
ag5
ag5
ag5
ag5
ag5
asS'intr_475'
p1184
(lp1185
g5
ag5
ag5
ag5
ag5
ag5
ag5
ag5
ag5
ag5
ag5
ag5
ag5
ag5
ag5
ag5
ag5
ag5
asS'intr_474'
p1186
(lp1187
g5
ag5
ag5
ag5
ag5
ag5
ag5
ag5
ag5
ag5
ag5
ag5
ag5
ag5
ag5
ag5
ag5
ag5
asS'intr_473'
p1188
(lp1189
g5
ag5
ag5
ag5
ag5
ag5
ag5
ag5
ag5
ag5
ag5
ag5
ag5
ag5
ag5
ag5
ag5
ag5
asS'intr_472'
p1190
(lp1191
g5
ag5
ag5
ag5
ag5
ag5
ag5
ag5
ag5
ag5
ag5
ag5
ag5
ag5
ag5
ag5
ag5
ag5
asS'intr_471'
p1192
(lp1193
g5
ag5
ag5
ag5
ag5
ag5
ag5
ag5
ag5
ag5
ag5
ag5
ag5
ag5
ag5
ag5
ag5
ag5
asS'intr_470'
p1194
(lp1195
g5
ag5
ag5
ag5
ag5
ag5
ag5
ag5
ag5
ag5
ag5
ag5
ag5
ag5
ag5
ag5
ag5
ag5
asS'intr_576'
p1196
(lp1197
g5
ag5
ag5
ag5
ag5
ag5
ag5
ag5
ag5
ag5
ag5
ag5
ag5
ag5
ag5
ag5
ag5
ag5
asS'intr_577'
p1198
(lp1199
g5
ag5
ag5
ag5
ag5
ag5
ag5
ag5
ag5
ag5
ag5
ag5
ag5
ag5
ag5
ag5
ag5
ag5
asS'intr_574'
p1200
(lp1201
g5
ag5
ag5
ag5
ag5
ag5
ag5
ag5
ag5
ag5
ag5
ag5
ag5
ag5
ag5
ag5
ag5
ag5
asS'intr_575'
p1202
(lp1203
g5
ag5
ag5
ag5
ag5
ag5
ag5
ag5
ag5
ag5
ag5
ag5
ag5
ag5
ag5
ag5
ag5
ag5
asS'intr_572'
p1204
(lp1205
g5
ag5
ag5
ag5
ag5
ag5
ag5
ag5
ag5
ag5
ag5
ag5
ag5
ag5
ag5
ag5
ag5
ag5
asS'intr_573'
p1206
(lp1207
g5
ag5
ag5
ag5
ag5
ag5
ag5
ag5
ag5
ag5
ag5
ag5
ag5
ag5
ag5
ag5
ag5
ag5
asS'intr_479'
p1208
(lp1209
g5
ag5
ag5
ag5
ag5
ag5
ag5
ag5
ag5
ag5
ag5
ag5
ag5
ag5
ag5
ag5
ag5
ag5
asS'intr_478'
p1210
(lp1211
g5
ag5
ag5
ag5
ag5
ag5
ag5
ag5
ag5
ag5
ag5
ag5
ag5
ag5
ag5
ag5
ag5
ag5
asS'intr_45'
p1212
(lp1213
g5
ag5
ag5
ag5
ag5
ag5
ag5
ag5
ag5
ag5
ag5
ag5
ag5
ag5
ag5
ag5
ag5
ag5
asS'intr_44'
p1214
(lp1215
g5
ag5
ag5
ag5
ag5
ag5
ag5
ag5
ag5
ag5
ag5
ag5
ag5
ag5
ag5
ag5
ag5
ag5
asS'intr_47'
p1216
(lp1217
g5
ag5
ag5
ag5
ag5
ag5
ag5
ag5
ag5
ag5
ag5
ag5
ag5
ag5
ag5
ag5
ag5
ag5
asS'intr_46'
p1218
(lp1219
g5
ag5
ag5
ag5
ag5
ag5
ag5
ag5
ag5
ag5
ag5
ag5
ag5
ag5
ag5
ag5
ag5
ag5
asS'intr_41'
p1220
(lp1221
g5
ag5
ag5
ag5
ag5
ag5
ag5
ag5
ag5
ag5
ag5
ag5
ag5
ag5
ag5
ag5
ag5
ag5
asS'intr_40'
p1222
(lp1223
g5
ag5
ag5
ag5
ag5
ag5
ag5
ag5
ag5
ag5
ag5
ag5
ag5
ag5
ag5
ag5
ag5
ag5
asS'intr_43'
p1224
(lp1225
g5
ag5
ag5
ag5
ag5
ag5
ag5
ag5
ag5
ag5
ag5
ag5
ag5
ag5
ag5
ag5
ag5
ag5
asS'intr_42'
p1226
(lp1227
g5
ag5
ag5
ag5
ag5
ag5
ag5
ag5
ag5
ag5
ag5
ag5
ag5
ag5
ag5
ag5
ag5
ag5
asS'intr_49'
p1228
(lp1229
g5
ag5
ag5
ag5
ag5
ag5
ag5
ag5
ag5
ag5
ag5
ag5
ag5
ag5
ag5
ag5
ag5
ag5
asS'intr_48'
p1230
(lp1231
g5
ag5
ag5
ag5
ag5
ag5
ag5
ag5
ag5
ag5
ag5
ag5
ag5
ag5
ag5
ag5
ag5
ag5
asS'cpu0_5'
p1232
(lp1233
S'75171'
p1234
aS'75262'
p1235
aS'75354'
p1236
aS'75355'
p1237
aS'75355'
p1238
aS'75355'
p1239
aS'75355'
p1240
aS'75355'
p1241
aS'75355'
p1242
aS'75355'
p1243
aS'75355'
p1244
aS'75355'
p1245
aS'75355'
p1246
aS'75355'
p1247
aS'75355'
p1248
aS'75355'
p1249
aS'75355'
p1250
aS'75355'
p1251
asS'cpu0_4'
p1252
(lp1253
S'14344672'
p1254
aS'14344677'
p1255
aS'14344677'
p1256
aS'14344710'
p1257
aS'14344726'
p1258
aS'14344733'
p1259
aS'14344808'
p1260
aS'14344854'
p1261
aS'14344927'
p1262
aS'14344935'
p1263
aS'14345035'
p1264
aS'14345095'
p1265
aS'14345162'
p1266
aS'14345261'
p1267
aS'14345278'
p1268
aS'14345356'
p1269
aS'14345454'
p1270
aS'14345496'
p1271
asS'cpu0_7'
p1272
(lp1273
S'23304'
p1274
aS'23304'
p1275
aS'23305'
p1276
aS'23305'
p1277
aS'23305'
p1278
aS'23305'
p1279
aS'23306'
p1280
aS'23306'
p1281
aS'23306'
p1282
aS'23306'
p1283
aS'23307'
p1284
aS'23307'
p1285
aS'23307'
p1286
aS'23307'
p1287
aS'23307'
p1288
aS'23307'
p1289
aS'23308'
p1290
aS'23308'
p1291
asS'cpu0_6'
p1292
(lp1293
g5
ag5
ag5
ag5
ag5
ag5
ag5
ag5
ag5
ag5
ag5
ag5
ag5
ag5
ag5
ag5
ag5
ag5
asS'cpu0_1'
p1294
(lp1295
S'175226'
p1296
aS'175226'
p1297
aS'175228'
p1298
aS'175286'
p1299
aS'175362'
p1300
aS'175454'
p1301
aS'175477'
p1302
aS'175526'
p1303
aS'175552'
p1304
aS'175635'
p1305
aS'175635'
p1306
aS'175674'
p1307
aS'175704'
p1308
aS'175704'
p1309
aS'175782'
p1310
aS'175802'
p1311
aS'175802'
p1312
aS'175860'
p1313
asS'cpu0_3'
p1314
(lp1315
S'46341'
p1316
aS'46344'
p1317
aS'46349'
p1318
aS'46358'
p1319
aS'46366'
p1320
aS'46367'
p1321
aS'46369'
p1322
aS'46374'
p1323
aS'46375'
p1324
aS'46384'
p1325
aS'46384'
p1326
aS'46386'
p1327
aS'46389'
p1328
aS'46390'
p1329
aS'46395'
p1330
aS'46398'
p1331
aS'46399'
p1332
aS'46399'
p1333
asS'cpu0_2'
p1334
(lp1335
S'2197'
p1336
aS'2197'
p1337
aS'2197'
p1338
aS'2197'
p1339
aS'2197'
p1340
aS'2197'
p1341
aS'2197'
p1342
aS'2197'
p1343
aS'2197'
p1344
aS'2197'
p1345
aS'2197'
p1346
aS'2197'
p1347
aS'2197'
p1348
aS'2197'
p1349
aS'2197'
p1350
aS'2197'
p1351
aS'2197'
p1352
aS'2197'
p1353
asS'cpu0_9'
p1354
(lp1355
g5
ag5
ag5
ag5
ag5
ag5
ag5
ag5
ag5
ag5
ag5
ag5
ag5
ag5
ag5
ag5
ag5
ag5
asS'cpu0_8'
p1356
(lp1357
g5
ag5
ag5
ag5
ag5
ag5
ag5
ag5
ag5
ag5
ag5
ag5
ag5
ag5
ag5
ag5
ag5
ag5
asS'intr_751'
p1358
(lp1359
g5
ag5
ag5
ag5
ag5
ag5
ag5
ag5
ag5
ag5
ag5
ag5
ag5
ag5
ag5
ag5
ag5
ag5
asS'procs_running_1'
p1360
(lp1361
S'1'
p1362
ag1362
ag1362
aS'3'
p1363
ag1015
ag1363
ag1015
ag1015
ag1363
ag1015
ag1015
aS'4'
p1364
ag1015
ag1015
ag1363
ag1015
ag1015
ag1015
asS'intr_420'
p1365
(lp1366
g5
ag5
ag5
ag5
ag5
ag5
ag5
ag5
ag5
ag5
ag5
ag5
ag5
ag5
ag5
ag5
ag5
ag5
asS'intr_279'
p1367
(lp1368
g5
ag5
ag5
ag5
ag5
ag5
ag5
ag5
ag5
ag5
ag5
ag5
ag5
ag5
ag5
ag5
ag5
ag5
asS'intr_278'
p1369
(lp1370
g5
ag5
ag5
ag5
ag5
ag5
ag5
ag5
ag5
ag5
ag5
ag5
ag5
ag5
ag5
ag5
ag5
ag5
asS'intr_421'
p1371
(lp1372
g5
ag5
ag5
ag5
ag5
ag5
ag5
ag5
ag5
ag5
ag5
ag5
ag5
ag5
ag5
ag5
ag5
ag5
asS'intr_275'
p1373
(lp1374
g5
ag5
ag5
ag5
ag5
ag5
ag5
ag5
ag5
ag5
ag5
ag5
ag5
ag5
ag5
ag5
ag5
ag5
asS'intr_274'
p1375
(lp1376
g5
ag5
ag5
ag5
ag5
ag5
ag5
ag5
ag5
ag5
ag5
ag5
ag5
ag5
ag5
ag5
ag5
ag5
asS'intr_277'
p1377
(lp1378
g5
ag5
ag5
ag5
ag5
ag5
ag5
ag5
ag5
ag5
ag5
ag5
ag5
ag5
ag5
ag5
ag5
ag5
asS'intr_276'
p1379
(lp1380
g5
ag5
ag5
ag5
ag5
ag5
ag5
ag5
ag5
ag5
ag5
ag5
ag5
ag5
ag5
ag5
ag5
ag5
asS'intr_271'
p1381
(lp1382
g5
ag5
ag5
ag5
ag5
ag5
ag5
ag5
ag5
ag5
ag5
ag5
ag5
ag5
ag5
ag5
ag5
ag5
asS'intr_270'
p1383
(lp1384
g5
ag5
ag5
ag5
ag5
ag5
ag5
ag5
ag5
ag5
ag5
ag5
ag5
ag5
ag5
ag5
ag5
ag5
asS'intr_273'
p1385
(lp1386
g5
ag5
ag5
ag5
ag5
ag5
ag5
ag5
ag5
ag5
ag5
ag5
ag5
ag5
ag5
ag5
ag5
ag5
asS'intr_272'
p1387
(lp1388
g5
ag5
ag5
ag5
ag5
ag5
ag5
ag5
ag5
ag5
ag5
ag5
ag5
ag5
ag5
ag5
ag5
ag5
asS'intr_374'
p1389
(lp1390
g5
ag5
ag5
ag5
ag5
ag5
ag5
ag5
ag5
ag5
ag5
ag5
ag5
ag5
ag5
ag5
ag5
ag5
asS'intr_375'
p1391
(lp1392
g5
ag5
ag5
ag5
ag5
ag5
ag5
ag5
ag5
ag5
ag5
ag5
ag5
ag5
ag5
ag5
ag5
ag5
asS'intr_376'
p1393
(lp1394
g5
ag5
ag5
ag5
ag5
ag5
ag5
ag5
ag5
ag5
ag5
ag5
ag5
ag5
ag5
ag5
ag5
ag5
asS'intr_351'
p1395
(lp1396
g5
ag5
ag5
ag5
ag5
ag5
ag5
ag5
ag5
ag5
ag5
ag5
ag5
ag5
ag5
ag5
ag5
ag5
asS'intr_370'
p1397
(lp1398
g5
ag5
ag5
ag5
ag5
ag5
ag5
ag5
ag5
ag5
ag5
ag5
ag5
ag5
ag5
ag5
ag5
ag5
asS'intr_371'
p1399
(lp1400
g5
ag5
ag5
ag5
ag5
ag5
ag5
ag5
ag5
ag5
ag5
ag5
ag5
ag5
ag5
ag5
ag5
ag5
asS'intr_372'
p1401
(lp1402
g5
ag5
ag5
ag5
ag5
ag5
ag5
ag5
ag5
ag5
ag5
ag5
ag5
ag5
ag5
ag5
ag5
ag5
asS'intr_373'
p1403
(lp1404
g5
ag5
ag5
ag5
ag5
ag5
ag5
ag5
ag5
ag5
ag5
ag5
ag5
ag5
ag5
ag5
ag5
ag5
asS'intr_424'
p1405
(lp1406
g5
ag5
ag5
ag5
ag5
ag5
ag5
ag5
ag5
ag5
ag5
ag5
ag5
ag5
ag5
ag5
ag5
ag5
asS'intr_728'
p1407
(lp1408
g5
ag5
ag5
ag5
ag5
ag5
ag5
ag5
ag5
ag5
ag5
ag5
ag5
ag5
ag5
ag5
ag5
ag5
asS'intr_378'
p1409
(lp1410
g5
ag5
ag5
ag5
ag5
ag5
ag5
ag5
ag5
ag5
ag5
ag5
ag5
ag5
ag5
ag5
ag5
ag5
asS'intr_379'
p1411
(lp1412
g5
ag5
ag5
ag5
ag5
ag5
ag5
ag5
ag5
ag5
ag5
ag5
ag5
ag5
ag5
ag5
ag5
ag5
asS'intr_425'
p1413
(lp1414
g5
ag5
ag5
ag5
ag5
ag5
ag5
ag5
ag5
ag5
ag5
ag5
ag5
ag5
ag5
ag5
ag5
ag5
asS'intr_426'
p1415
(lp1416
g5
ag5
ag5
ag5
ag5
ag5
ag5
ag5
ag5
ag5
ag5
ag5
ag5
ag5
ag5
ag5
ag5
ag5
asS'intr_726'
p1417
(lp1418
g5
ag5
ag5
ag5
ag5
ag5
ag5
ag5
ag5
ag5
ag5
ag5
ag5
ag5
ag5
ag5
ag5
ag5
asS'intr_427'
p1419
(lp1420
g5
ag5
ag5
ag5
ag5
ag5
ag5
ag5
ag5
ag5
ag5
ag5
ag5
ag5
ag5
ag5
ag5
ag5
asS'procs_blocked_1'
p1421
(lp1422
g1362
ag1362
ag1362
ag5
ag5
ag5
ag5
ag5
ag5
ag5
ag5
ag5
ag5
ag5
ag5
ag5
ag5
ag5
asS'intr_358'
p1423
(lp1424
g5
ag5
ag5
ag5
ag5
ag5
ag5
ag5
ag5
ag5
ag5
ag5
ag5
ag5
ag5
ag5
ag5
ag5
asS'intr_720'
p1425
(lp1426
g5
ag5
ag5
ag5
ag5
ag5
ag5
ag5
ag5
ag5
ag5
ag5
ag5
ag5
ag5
ag5
ag5
ag5
asS'intr_208'
p1427
(lp1428
g5
ag5
ag5
ag5
ag5
ag5
ag5
ag5
ag5
ag5
ag5
ag5
ag5
ag5
ag5
ag5
ag5
ag5
asS'intr_209'
p1429
(lp1430
g5
ag5
ag5
ag5
ag5
ag5
ag5
ag5
ag5
ag5
ag5
ag5
ag5
ag5
ag5
ag5
ag5
ag5
asS'intr_559'
p1431
(lp1432
g5
ag5
ag5
ag5
ag5
ag5
ag5
ag5
ag5
ag5
ag5
ag5
ag5
ag5
ag5
ag5
ag5
ag5
asS'intr_200'
p1433
(lp1434
g5
ag5
ag5
ag5
ag5
ag5
ag5
ag5
ag5
ag5
ag5
ag5
ag5
ag5
ag5
ag5
ag5
ag5
asS'intr_201'
p1435
(lp1436
g5
ag5
ag5
ag5
ag5
ag5
ag5
ag5
ag5
ag5
ag5
ag5
ag5
ag5
ag5
ag5
ag5
ag5
asS'intr_202'
p1437
(lp1438
g5
ag5
ag5
ag5
ag5
ag5
ag5
ag5
ag5
ag5
ag5
ag5
ag5
ag5
ag5
ag5
ag5
ag5
asS'intr_203'
p1439
(lp1440
g5
ag5
ag5
ag5
ag5
ag5
ag5
ag5
ag5
ag5
ag5
ag5
ag5
ag5
ag5
ag5
ag5
ag5
asS'intr_204'
p1441
(lp1442
g5
ag5
ag5
ag5
ag5
ag5
ag5
ag5
ag5
ag5
ag5
ag5
ag5
ag5
ag5
ag5
ag5
ag5
asS'intr_205'
p1443
(lp1444
g5
ag5
ag5
ag5
ag5
ag5
ag5
ag5
ag5
ag5
ag5
ag5
ag5
ag5
ag5
ag5
ag5
ag5
asS'intr_206'
p1445
(lp1446
g5
ag5
ag5
ag5
ag5
ag5
ag5
ag5
ag5
ag5
ag5
ag5
ag5
ag5
ag5
ag5
ag5
ag5
asS'intr_207'
p1447
(lp1448
g5
ag5
ag5
ag5
ag5
ag5
ag5
ag5
ag5
ag5
ag5
ag5
ag5
ag5
ag5
ag5
ag5
ag5
asS'intr_359'
p1449
(lp1450
g5
ag5
ag5
ag5
ag5
ag5
ag5
ag5
ag5
ag5
ag5
ag5
ag5
ag5
ag5
ag5
ag5
ag5
asS'intr_619'
p1451
(lp1452
g5
ag5
ag5
ag5
ag5
ag5
ag5
ag5
ag5
ag5
ag5
ag5
ag5
ag5
ag5
ag5
ag5
ag5
asS'intr_618'
p1453
(lp1454
g5
ag5
ag5
ag5
ag5
ag5
ag5
ag5
ag5
ag5
ag5
ag5
ag5
ag5
ag5
ag5
ag5
ag5
asS'intr_617'
p1455
(lp1456
g5
ag5
ag5
ag5
ag5
ag5
ag5
ag5
ag5
ag5
ag5
ag5
ag5
ag5
ag5
ag5
ag5
ag5
asS'intr_616'
p1457
(lp1458
g5
ag5
ag5
ag5
ag5
ag5
ag5
ag5
ag5
ag5
ag5
ag5
ag5
ag5
ag5
ag5
ag5
ag5
asS'intr_615'
p1459
(lp1460
g5
ag5
ag5
ag5
ag5
ag5
ag5
ag5
ag5
ag5
ag5
ag5
ag5
ag5
ag5
ag5
ag5
ag5
asS'intr_614'
p1461
(lp1462
g5
ag5
ag5
ag5
ag5
ag5
ag5
ag5
ag5
ag5
ag5
ag5
ag5
ag5
ag5
ag5
ag5
ag5
asS'intr_613'
p1463
(lp1464
g5
ag5
ag5
ag5
ag5
ag5
ag5
ag5
ag5
ag5
ag5
ag5
ag5
ag5
ag5
ag5
ag5
ag5
asS'intr_612'
p1465
(lp1466
g5
ag5
ag5
ag5
ag5
ag5
ag5
ag5
ag5
ag5
ag5
ag5
ag5
ag5
ag5
ag5
ag5
ag5
asS'intr_611'
p1467
(lp1468
g5
ag5
ag5
ag5
ag5
ag5
ag5
ag5
ag5
ag5
ag5
ag5
ag5
ag5
ag5
ag5
ag5
ag5
asS'intr_610'
p1469
(lp1470
g5
ag5
ag5
ag5
ag5
ag5
ag5
ag5
ag5
ag5
ag5
ag5
ag5
ag5
ag5
ag5
ag5
ag5
asS'intr_756'
p1471
(lp1472
g5
ag5
ag5
ag5
ag5
ag5
ag5
ag5
ag5
ag5
ag5
ag5
ag5
ag5
ag5
ag5
ag5
ag5
asS'intr_550'
p1473
(lp1474
g5
ag5
ag5
ag5
ag5
ag5
ag5
ag5
ag5
ag5
ag5
ag5
ag5
ag5
ag5
ag5
ag5
ag5
asS'intr_754'
p1475
(lp1476
g5
ag5
ag5
ag5
ag5
ag5
ag5
ag5
ag5
ag5
ag5
ag5
ag5
ag5
ag5
ag5
ag5
ag5
asS'intr_755'
p1477
(lp1478
g5
ag5
ag5
ag5
ag5
ag5
ag5
ag5
ag5
ag5
ag5
ag5
ag5
ag5
ag5
ag5
ag5
ag5
asS'intr_752'
p1479
(lp1480
g5
ag5
ag5
ag5
ag5
ag5
ag5
ag5
ag5
ag5
ag5
ag5
ag5
ag5
ag5
ag5
ag5
ag5
asS'intr_753'
p1481
(lp1482
g5
ag5
ag5
ag5
ag5
ag5
ag5
ag5
ag5
ag5
ag5
ag5
ag5
ag5
ag5
ag5
ag5
ag5
asS'intr_750'
p1483
(lp1484
g5
ag5
ag5
ag5
ag5
ag5
ag5
ag5
ag5
ag5
ag5
ag5
ag5
ag5
ag5
ag5
ag5
ag5
asS'intr_551'
p1485
(lp1486
g5
ag5
ag5
ag5
ag5
ag5
ag5
ag5
ag5
ag5
ag5
ag5
ag5
ag5
ag5
ag5
ag5
ag5
asS'intr_758'
p1487
(lp1488
g5
ag5
ag5
ag5
ag5
ag5
ag5
ag5
ag5
ag5
ag5
ag5
ag5
ag5
ag5
ag5
ag5
ag5
asS'intr_759'
p1489
(lp1490
g5
ag5
ag5
ag5
ag5
ag5
ag5
ag5
ag5
ag5
ag5
ag5
ag5
ag5
ag5
ag5
ag5
ag5
asS'intr_538'
p1491
(lp1492
g5
ag5
ag5
ag5
ag5
ag5
ag5
ag5
ag5
ag5
ag5
ag5
ag5
ag5
ag5
ag5
ag5
ag5
asS'intr_539'
p1493
(lp1494
g5
ag5
ag5
ag5
ag5
ag5
ag5
ag5
ag5
ag5
ag5
ag5
ag5
ag5
ag5
ag5
ag5
ag5
asS'intr_532'
p1495
(lp1496
g5
ag5
ag5
ag5
ag5
ag5
ag5
ag5
ag5
ag5
ag5
ag5
ag5
ag5
ag5
ag5
ag5
ag5
asS'intr_533'
p1497
(lp1498
g5
ag5
ag5
ag5
ag5
ag5
ag5
ag5
ag5
ag5
ag5
ag5
ag5
ag5
ag5
ag5
ag5
ag5
asS'intr_530'
p1499
(lp1500
g5
ag5
ag5
ag5
ag5
ag5
ag5
ag5
ag5
ag5
ag5
ag5
ag5
ag5
ag5
ag5
ag5
ag5
asS'intr_531'
p1501
(lp1502
g5
ag5
ag5
ag5
ag5
ag5
ag5
ag5
ag5
ag5
ag5
ag5
ag5
ag5
ag5
ag5
ag5
ag5
asS'intr_536'
p1503
(lp1504
g5
ag5
ag5
ag5
ag5
ag5
ag5
ag5
ag5
ag5
ag5
ag5
ag5
ag5
ag5
ag5
ag5
ag5
asS'intr_537'
p1505
(lp1506
g5
ag5
ag5
ag5
ag5
ag5
ag5
ag5
ag5
ag5
ag5
ag5
ag5
ag5
ag5
ag5
ag5
ag5
asS'intr_534'
p1507
(lp1508
g5
ag5
ag5
ag5
ag5
ag5
ag5
ag5
ag5
ag5
ag5
ag5
ag5
ag5
ag5
ag5
ag5
ag5
asS'intr_535'
p1509
(lp1510
g5
ag5
ag5
ag5
ag5
ag5
ag5
ag5
ag5
ag5
ag5
ag5
ag5
ag5
ag5
ag5
ag5
ag5
asS'intr_103'
p1511
(lp1512
g5
ag5
ag5
ag5
ag5
ag5
ag5
ag5
ag5
ag5
ag5
ag5
ag5
ag5
ag5
ag5
ag5
ag5
asS'intr_102'
p1513
(lp1514
g5
ag5
ag5
ag5
ag5
ag5
ag5
ag5
ag5
ag5
ag5
ag5
ag5
ag5
ag5
ag5
ag5
ag5
asS'intr_101'
p1515
(lp1516
g5
ag5
ag5
ag5
ag5
ag5
ag5
ag5
ag5
ag5
ag5
ag5
ag5
ag5
ag5
ag5
ag5
ag5
asS'intr_100'
p1517
(lp1518
g5
ag5
ag5
ag5
ag5
ag5
ag5
ag5
ag5
ag5
ag5
ag5
ag5
ag5
ag5
ag5
ag5
ag5
asS'intr_107'
p1519
(lp1520
g5
ag5
ag5
ag5
ag5
ag5
ag5
ag5
ag5
ag5
ag5
ag5
ag5
ag5
ag5
ag5
ag5
ag5
asS'intr_106'
p1521
(lp1522
g5
ag5
ag5
ag5
ag5
ag5
ag5
ag5
ag5
ag5
ag5
ag5
ag5
ag5
ag5
ag5
ag5
ag5
asS'intr_105'
p1523
(lp1524
g5
ag5
ag5
ag5
ag5
ag5
ag5
ag5
ag5
ag5
ag5
ag5
ag5
ag5
ag5
ag5
ag5
ag5
asS'intr_104'
p1525
(lp1526
g5
ag5
ag5
ag5
ag5
ag5
ag5
ag5
ag5
ag5
ag5
ag5
ag5
ag5
ag5
ag5
ag5
ag5
asS'intr_109'
p1527
(lp1528
g5
ag5
ag5
ag5
ag5
ag5
ag5
ag5
ag5
ag5
ag5
ag5
ag5
ag5
ag5
ag5
ag5
ag5
asS'intr_108'
p1529
(lp1530
g5
ag5
ag5
ag5
ag5
ag5
ag5
ag5
ag5
ag5
ag5
ag5
ag5
ag5
ag5
ag5
ag5
ag5
asS'intr_89'
p1531
(lp1532
g5
ag5
ag5
ag5
ag5
ag5
ag5
ag5
ag5
ag5
ag5
ag5
ag5
ag5
ag5
ag5
ag5
ag5
asS'intr_88'
p1533
(lp1534
g5
ag5
ag5
ag5
ag5
ag5
ag5
ag5
ag5
ag5
ag5
ag5
ag5
ag5
ag5
ag5
ag5
ag5
asS'intr_81'
p1535
(lp1536
g5
ag5
ag5
ag5
ag5
ag5
ag5
ag5
ag5
ag5
ag5
ag5
ag5
ag5
ag5
ag5
ag5
ag5
asS'intr_80'
p1537
(lp1538
g5
ag5
ag5
ag5
ag5
ag5
ag5
ag5
ag5
ag5
ag5
ag5
ag5
ag5
ag5
ag5
ag5
ag5
asS'intr_83'
p1539
(lp1540
g5
ag5
ag5
ag5
ag5
ag5
ag5
ag5
ag5
ag5
ag5
ag5
ag5
ag5
ag5
ag5
ag5
ag5
asS'intr_82'
p1541
(lp1542
g5
ag5
ag5
ag5
ag5
ag5
ag5
ag5
ag5
ag5
ag5
ag5
ag5
ag5
ag5
ag5
ag5
ag5
asS'intr_85'
p1543
(lp1544
g5
ag5
ag5
ag5
ag5
ag5
ag5
ag5
ag5
ag5
ag5
ag5
ag5
ag5
ag5
ag5
ag5
ag5
asS'intr_84'
p1545
(lp1546
g5
ag5
ag5
ag5
ag5
ag5
ag5
ag5
ag5
ag5
ag5
ag5
ag5
ag5
ag5
ag5
ag5
ag5
asS'intr_87'
p1547
(lp1548
g5
ag5
ag5
ag5
ag5
ag5
ag5
ag5
ag5
ag5
ag5
ag5
ag5
ag5
ag5
ag5
ag5
ag5
asS'intr_86'
p1549
(lp1550
g5
ag5
ag5
ag5
ag5
ag5
ag5
ag5
ag5
ag5
ag5
ag5
ag5
ag5
ag5
ag5
ag5
ag5
asS'intr_562'
p1551
(lp1552
g5
ag5
ag5
ag5
ag5
ag5
ag5
ag5
ag5
ag5
ag5
ag5
ag5
ag5
ag5
ag5
ag5
ag5
asS'intr_589'
p1553
(lp1554
g5
ag5
ag5
ag5
ag5
ag5
ag5
ag5
ag5
ag5
ag5
ag5
ag5
ag5
ag5
ag5
ag5
ag5
asS'intr_588'
p1555
(lp1556
g5
ag5
ag5
ag5
ag5
ag5
ag5
ag5
ag5
ag5
ag5
ag5
ag5
ag5
ag5
ag5
ag5
ag5
asS'intr_587'
p1557
(lp1558
g5
ag5
ag5
ag5
ag5
ag5
ag5
ag5
ag5
ag5
ag5
ag5
ag5
ag5
ag5
ag5
ag5
ag5
asS'intr_586'
p1559
(lp1560
g5
ag5
ag5
ag5
ag5
ag5
ag5
ag5
ag5
ag5
ag5
ag5
ag5
ag5
ag5
ag5
ag5
ag5
asS'intr_585'
p1561
(lp1562
g5
ag5
ag5
ag5
ag5
ag5
ag5
ag5
ag5
ag5
ag5
ag5
ag5
ag5
ag5
ag5
ag5
ag5
asS'intr_584'
p1563
(lp1564
g5
ag5
ag5
ag5
ag5
ag5
ag5
ag5
ag5
ag5
ag5
ag5
ag5
ag5
ag5
ag5
ag5
ag5
asS'intr_583'
p1565
(lp1566
g5
ag5
ag5
ag5
ag5
ag5
ag5
ag5
ag5
ag5
ag5
ag5
ag5
ag5
ag5
ag5
ag5
ag5
asS'intr_582'
p1567
(lp1568
g5
ag5
ag5
ag5
ag5
ag5
ag5
ag5
ag5
ag5
ag5
ag5
ag5
ag5
ag5
ag5
ag5
ag5
asS'intr_581'
p1569
(lp1570
g5
ag5
ag5
ag5
ag5
ag5
ag5
ag5
ag5
ag5
ag5
ag5
ag5
ag5
ag5
ag5
ag5
ag5
asS'intr_580'
p1571
(lp1572
g5
ag5
ag5
ag5
ag5
ag5
ag5
ag5
ag5
ag5
ag5
ag5
ag5
ag5
ag5
ag5
ag5
ag5
asS'intr_569'
p1573
(lp1574
g5
ag5
ag5
ag5
ag5
ag5
ag5
ag5
ag5
ag5
ag5
ag5
ag5
ag5
ag5
ag5
ag5
ag5
asS'intr_408'
p1575
(lp1576
g5
ag5
ag5
ag5
ag5
ag5
ag5
ag5
ag5
ag5
ag5
ag5
ag5
ag5
ag5
ag5
ag5
ag5
asS'intr_409'
p1577
(lp1578
g5
ag5
ag5
ag5
ag5
ag5
ag5
ag5
ag5
ag5
ag5
ag5
ag5
ag5
ag5
ag5
ag5
ag5
asS'intr_406'
p1579
(lp1580
g5
ag5
ag5
ag5
ag5
ag5
ag5
ag5
ag5
ag5
ag5
ag5
ag5
ag5
ag5
ag5
ag5
ag5
asS'intr_407'
p1581
(lp1582
g5
ag5
ag5
ag5
ag5
ag5
ag5
ag5
ag5
ag5
ag5
ag5
ag5
ag5
ag5
ag5
ag5
ag5
asS'intr_404'
p1583
(lp1584
g5
ag5
ag5
ag5
ag5
ag5
ag5
ag5
ag5
ag5
ag5
ag5
ag5
ag5
ag5
ag5
ag5
ag5
asS'intr_405'
p1585
(lp1586
g5
ag5
ag5
ag5
ag5
ag5
ag5
ag5
ag5
ag5
ag5
ag5
ag5
ag5
ag5
ag5
ag5
ag5
asS'intr_402'
p1587
(lp1588
g5
ag5
ag5
ag5
ag5
ag5
ag5
ag5
ag5
ag5
ag5
ag5
ag5
ag5
ag5
ag5
ag5
ag5
asS'intr_403'
p1589
(lp1590
g5
ag5
ag5
ag5
ag5
ag5
ag5
ag5
ag5
ag5
ag5
ag5
ag5
ag5
ag5
ag5
ag5
ag5
asS'intr_400'
p1591
(lp1592
g5
ag5
ag5
ag5
ag5
ag5
ag5
ag5
ag5
ag5
ag5
ag5
ag5
ag5
ag5
ag5
ag5
ag5
asS'intr_401'
p1593
(lp1594
g5
ag5
ag5
ag5
ag5
ag5
ag5
ag5
ag5
ag5
ag5
ag5
ag5
ag5
ag5
ag5
ag5
ag5
asS'intr_803'
p1595
(lp1596
g5
ag5
ag5
ag5
ag5
ag5
ag5
ag5
ag5
ag5
ag5
ag5
ag5
ag5
ag5
ag5
ag5
ag5
asS'intr_18'
p1597
(lp1598
S'587033'
p1599
aS'587143'
p1600
aS'587393'
p1601
aS'587401'
p1602
aS'587401'
p1603
aS'587401'
p1604
aS'587401'
p1605
aS'587401'
p1606
aS'587403'
p1607
aS'587403'
p1608
aS'587403'
p1609
aS'587403'
p1610
aS'587403'
p1611
aS'587404'
p1612
aS'587404'
p1613
aS'587404'
p1614
aS'587404'
p1615
aS'587404'
p1616
asS'intr_19'
p1617
(lp1618
S'1974'
p1619
aS'1974'
p1620
aS'1974'
p1621
aS'1974'
p1622
aS'1974'
p1623
aS'1974'
p1624
aS'1974'
p1625
aS'1974'
p1626
aS'1974'
p1627
aS'1974'
p1628
aS'1974'
p1629
aS'1974'
p1630
aS'1974'
p1631
aS'1974'
p1632
aS'1974'
p1633
aS'1974'
p1634
aS'1974'
p1635
aS'1974'
p1636
asS'intr_16'
p1637
(lp1638
S'53'
p1639
aS'53'
p1640
aS'53'
p1641
aS'53'
p1642
aS'53'
p1643
aS'53'
p1644
aS'53'
p1645
aS'53'
p1646
aS'53'
p1647
aS'53'
p1648
aS'53'
p1649
aS'53'
p1650
aS'53'
p1651
aS'53'
p1652
aS'53'
p1653
aS'53'
p1654
aS'53'
p1655
aS'53'
p1656
asS'intr_17'
p1657
(lp1658
g5
ag5
ag5
ag5
ag5
ag5
ag5
ag5
ag5
ag5
ag5
ag5
ag5
ag5
ag5
ag5
ag5
ag5
asS'intr_14'
p1659
(lp1660
S'246'
p1661
aS'246'
p1662
aS'246'
p1663
aS'246'
p1664
aS'246'
p1665
aS'246'
p1666
aS'246'
p1667
aS'246'
p1668
aS'246'
p1669
aS'246'
p1670
aS'246'
p1671
aS'246'
p1672
aS'246'
p1673
aS'246'
p1674
aS'246'
p1675
aS'246'
p1676
aS'246'
p1677
aS'246'
p1678
asS'intr_15'
p1679
(lp1680
g5
ag5
ag5
ag5
ag5
ag5
ag5
ag5
ag5
ag5
ag5
ag5
ag5
ag5
ag5
ag5
ag5
ag5
asS'intr_12'
p1681
(lp1682
g5
ag5
ag5
ag5
ag5
ag5
ag5
ag5
ag5
ag5
ag5
ag5
ag5
ag5
ag5
ag5
ag5
ag5
asS'intr_13'
p1683
(lp1684
g5
ag5
ag5
ag5
ag5
ag5
ag5
ag5
ag5
ag5
ag5
ag5
ag5
ag5
ag5
ag5
ag5
ag5
asS'intr_10'
p1685
(lp1686
g5
ag5
ag5
ag5
ag5
ag5
ag5
ag5
ag5
ag5
ag5
ag5
ag5
ag5
ag5
ag5
ag5
ag5
asS'intr_11'
p1687
(lp1688
S'806751'
p1689
aS'806751'
p1690
aS'806751'
p1691
aS'806892'
p1692
aS'806892'
p1693
aS'806892'
p1694
aS'806892'
p1695
aS'806892'
p1696
aS'806892'
p1697
aS'806892'
p1698
aS'806892'
p1699
aS'806892'
p1700
aS'806892'
p1701
aS'806892'
p1702
aS'806892'
p1703
aS'806892'
p1704
aS'806892'
p1705
aS'806892'
p1706
asS'intr_350'
p1707
(lp1708
g5
ag5
ag5
ag5
ag5
ag5
ag5
ag5
ag5
ag5
ag5
ag5
ag5
ag5
ag5
ag5
ag5
ag5
asS'intr_805'
p1709
(lp1710
g5
ag5
ag5
ag5
ag5
ag5
ag5
ag5
ag5
ag5
ag5
ag5
ag5
ag5
ag5
ag5
ag5
ag5
asS'intr_244'
p1711
(lp1712
g5
ag5
ag5
ag5
ag5
ag5
ag5
ag5
ag5
ag5
ag5
ag5
ag5
ag5
ag5
ag5
ag5
ag5
asS'intr_245'
p1713
(lp1714
g5
ag5
ag5
ag5
ag5
ag5
ag5
ag5
ag5
ag5
ag5
ag5
ag5
ag5
ag5
ag5
ag5
ag5
asS'intr_246'
p1715
(lp1716
g5
ag5
ag5
ag5
ag5
ag5
ag5
ag5
ag5
ag5
ag5
ag5
ag5
ag5
ag5
ag5
ag5
ag5
asS'intr_247'
p1717
(lp1718
g5
ag5
ag5
ag5
ag5
ag5
ag5
ag5
ag5
ag5
ag5
ag5
ag5
ag5
ag5
ag5
ag5
ag5
asS'intr_240'
p1719
(lp1720
g5
ag5
ag5
ag5
ag5
ag5
ag5
ag5
ag5
ag5
ag5
ag5
ag5
ag5
ag5
ag5
ag5
ag5
asS'intr_241'
p1721
(lp1722
g5
ag5
ag5
ag5
ag5
ag5
ag5
ag5
ag5
ag5
ag5
ag5
ag5
ag5
ag5
ag5
ag5
ag5
asS'intr_242'
p1723
(lp1724
g5
ag5
ag5
ag5
ag5
ag5
ag5
ag5
ag5
ag5
ag5
ag5
ag5
ag5
ag5
ag5
ag5
ag5
asS'intr_243'
p1725
(lp1726
g5
ag5
ag5
ag5
ag5
ag5
ag5
ag5
ag5
ag5
ag5
ag5
ag5
ag5
ag5
ag5
ag5
ag5
asS'intr_323'
p1727
(lp1728
g5
ag5
ag5
ag5
ag5
ag5
ag5
ag5
ag5
ag5
ag5
ag5
ag5
ag5
ag5
ag5
ag5
ag5
asS'intr_322'
p1729
(lp1730
g5
ag5
ag5
ag5
ag5
ag5
ag5
ag5
ag5
ag5
ag5
ag5
ag5
ag5
ag5
ag5
ag5
ag5
asS'intr_321'
p1731
(lp1732
g5
ag5
ag5
ag5
ag5
ag5
ag5
ag5
ag5
ag5
ag5
ag5
ag5
ag5
ag5
ag5
ag5
ag5
asS'intr_320'
p1733
(lp1734
g5
ag5
ag5
ag5
ag5
ag5
ag5
ag5
ag5
ag5
ag5
ag5
ag5
ag5
ag5
ag5
ag5
ag5
asS'intr_248'
p1735
(lp1736
g5
ag5
ag5
ag5
ag5
ag5
ag5
ag5
ag5
ag5
ag5
ag5
ag5
ag5
ag5
ag5
ag5
ag5
asS'intr_249'
p1737
(lp1738
g5
ag5
ag5
ag5
ag5
ag5
ag5
ag5
ag5
ag5
ag5
ag5
ag5
ag5
ag5
ag5
ag5
ag5
asS'intr_325'
p1739
(lp1740
g5
ag5
ag5
ag5
ag5
ag5
ag5
ag5
ag5
ag5
ag5
ag5
ag5
ag5
ag5
ag5
ag5
ag5
asS'intr_324'
p1741
(lp1742
g5
ag5
ag5
ag5
ag5
ag5
ag5
ag5
ag5
ag5
ag5
ag5
ag5
ag5
ag5
ag5
ag5
ag5
asS'intr_712'
p1743
(lp1744
g5
ag5
ag5
ag5
ag5
ag5
ag5
ag5
ag5
ag5
ag5
ag5
ag5
ag5
ag5
ag5
ag5
ag5
asS'intr_713'
p1745
(lp1746
g5
ag5
ag5
ag5
ag5
ag5
ag5
ag5
ag5
ag5
ag5
ag5
ag5
ag5
ag5
ag5
ag5
ag5
asS'intr_710'
p1747
(lp1748
g5
ag5
ag5
ag5
ag5
ag5
ag5
ag5
ag5
ag5
ag5
ag5
ag5
ag5
ag5
ag5
ag5
ag5
asS'intr_711'
p1749
(lp1750
g5
ag5
ag5
ag5
ag5
ag5
ag5
ag5
ag5
ag5
ag5
ag5
ag5
ag5
ag5
ag5
ag5
ag5
asS'intr_716'
p1751
(lp1752
g5
ag5
ag5
ag5
ag5
ag5
ag5
ag5
ag5
ag5
ag5
ag5
ag5
ag5
ag5
ag5
ag5
ag5
asS'intr_717'
p1753
(lp1754
g5
ag5
ag5
ag5
ag5
ag5
ag5
ag5
ag5
ag5
ag5
ag5
ag5
ag5
ag5
ag5
ag5
ag5
asS'intr_714'
p1755
(lp1756
g5
ag5
ag5
ag5
ag5
ag5
ag5
ag5
ag5
ag5
ag5
ag5
ag5
ag5
ag5
ag5
ag5
ag5
asS'intr_715'
p1757
(lp1758
g5
ag5
ag5
ag5
ag5
ag5
ag5
ag5
ag5
ag5
ag5
ag5
ag5
ag5
ag5
ag5
ag5
ag5
asS'intr_718'
p1759
(lp1760
g5
ag5
ag5
ag5
ag5
ag5
ag5
ag5
ag5
ag5
ag5
ag5
ag5
ag5
ag5
ag5
ag5
ag5
asS'intr_719'
p1761
(lp1762
g5
ag5
ag5
ag5
ag5
ag5
ag5
ag5
ag5
ag5
ag5
ag5
ag5
ag5
ag5
ag5
ag5
ag5
asS'intr_4'
p1763
(lp1764
g5
ag5
ag5
ag5
ag5
ag5
ag5
ag5
ag5
ag5
ag5
ag5
ag5
ag5
ag5
ag5
ag5
ag5
asS'intr_5'
p1765
(lp1766
g5
ag5
ag5
ag5
ag5
ag5
ag5
ag5
ag5
ag5
ag5
ag5
ag5
ag5
ag5
ag5
ag5
ag5
asS'intr_6'
p1767
(lp1768
g5
ag5
ag5
ag5
ag5
ag5
ag5
ag5
ag5
ag5
ag5
ag5
ag5
ag5
ag5
ag5
ag5
ag5
asS'intr_7'
p1769
(lp1770
g5
ag5
ag5
ag5
ag5
ag5
ag5
ag5
ag5
ag5
ag5
ag5
ag5
ag5
ag5
ag5
ag5
ag5
asS'cpu1_8'
p1771
(lp1772
g5
ag5
ag5
ag5
ag5
ag5
ag5
ag5
ag5
ag5
ag5
ag5
ag5
ag5
ag5
ag5
ag5
ag5
asS'intr_1'
p1773
(lp1774
S'9351479'
p1775
aS'9351736'
p1776
aS'9352220'
p1777
aS'9353121'
p1778
aS'9353592'
p1779
aS'9354043'
p1780
aS'9354668'
p1781
aS'9355190'
p1782
aS'9355779'
p1783
aS'9356390'
p1784
aS'9356923'
p1785
aS'9357519'
p1786
aS'9358079'
p1787
aS'9358597'
p1788
aS'9359154'
p1789
aS'9359701'
p1790
aS'9360253'
p1791
aS'9360788'
p1792
asS'intr_2'
p1793
(lp1794
S'106'
p1795
aS'106'
p1796
aS'106'
p1797
aS'106'
p1798
aS'106'
p1799
aS'106'
p1800
aS'106'
p1801
aS'106'
p1802
aS'106'
p1803
aS'106'
p1804
aS'106'
p1805
aS'106'
p1806
aS'106'
p1807
aS'106'
p1808
aS'106'
p1809
aS'106'
p1810
aS'106'
p1811
aS'106'
p1812
asS'intr_3'
p1813
(lp1814
S'32'
p1815
aS'32'
p1816
aS'32'
p1817
aS'32'
p1818
aS'32'
p1819
aS'32'
p1820
aS'32'
p1821
aS'32'
p1822
aS'32'
p1823
aS'32'
p1824
aS'32'
p1825
aS'32'
p1826
aS'32'
p1827
aS'32'
p1828
aS'32'
p1829
aS'32'
p1830
aS'32'
p1831
aS'32'
p1832
asS'cpu1_4'
p1833
(lp1834
S'14465553'
p1835
aS'14465643'
p1836
aS'14465750'
p1837
aS'14465783'
p1838
aS'14465829'
p1839
aS'14465877'
p1840
aS'14465882'
p1841
aS'14465889'
p1842
aS'14465895'
p1843
aS'14465914'
p1844
aS'14465914'
p1845
aS'14465918'
p1846
aS'14465918'
p1847
aS'14465918'
p1848
aS'14465933'
p1849
aS'14465933'
p1850
aS'14465933'
p1851
aS'14465942'
p1852
asS'cpu1_5'
p1853
(lp1854
S'17354'
p1855
aS'17355'
p1856
aS'17355'
p1857
aS'17355'
p1858
aS'17355'
p1859
aS'17355'
p1860
aS'17355'
p1861
aS'17355'
p1862
aS'17355'
p1863
aS'17355'
p1864
aS'17355'
p1865
aS'17355'
p1866
aS'17355'
p1867
aS'17355'
p1868
aS'17355'
p1869
aS'17355'
p1870
aS'17355'
p1871
aS'17355'
p1872
asS'cpu1_6'
p1873
(lp1874
g5
ag5
ag5
ag5
ag5
ag5
ag5
ag5
ag5
ag5
ag5
ag5
ag5
ag5
ag5
ag5
ag5
ag5
asS'cpu1_7'
p1875
(lp1876
S'3198'
p1877
aS'3198'
p1878
aS'3198'
p1879
aS'3198'
p1880
aS'3198'
p1881
aS'3198'
p1882
aS'3199'
p1883
aS'3199'
p1884
aS'3199'
p1885
aS'3199'
p1886
aS'3199'
p1887
aS'3199'
p1888
aS'3199'
p1889
aS'3199'
p1890
aS'3199'
p1891
aS'3199'
p1892
aS'3200'
p1893
aS'3200'
p1894
asS'intr_143'
p1895
(lp1896
g5
ag5
ag5
ag5
ag5
ag5
ag5
ag5
ag5
ag5
ag5
ag5
ag5
ag5
ag5
ag5
ag5
ag5
asS'intr_9'
p1897
(lp1898
g5
ag5
ag5
ag5
ag5
ag5
ag5
ag5
ag5
ag5
ag5
ag5
ag5
ag5
ag5
ag5
ag5
ag5
asS'cpu1_2'
p1899
(lp1900
S'3770'
p1901
aS'3770'
p1902
aS'3770'
p1903
aS'3770'
p1904
aS'3770'
p1905
aS'3770'
p1906
aS'3770'
p1907
aS'3770'
p1908
aS'3770'
p1909
aS'3770'
p1910
aS'3770'
p1911
aS'3770'
p1912
aS'3770'
p1913
aS'3770'
p1914
aS'3770'
p1915
aS'3770'
p1916
aS'3770'
p1917
aS'3770'
p1918
asS'cpu1_3'
p1919
(lp1920
S'29079'
p1921
aS'29079'
p1922
aS'29080'
p1923
aS'29088'
p1924
aS'29095'
p1925
aS'29097'
p1926
aS'29101'
p1927
aS'29104'
p1928
aS'29105'
p1929
aS'29110'
p1930
aS'29110'
p1931
aS'29111'
p1932
aS'29113'
p1933
aS'29116'
p1934
aS'29120'
p1935
aS'29125'
p1936
aS'29125'
p1937
aS'29126'
p1938
asS'intr_666'
p1939
(lp1940
g5
ag5
ag5
ag5
ag5
ag5
ag5
ag5
ag5
ag5
ag5
ag5
ag5
ag5
ag5
ag5
ag5
ag5
asS'intr_667'
p1941
(lp1942
g5
ag5
ag5
ag5
ag5
ag5
ag5
ag5
ag5
ag5
ag5
ag5
ag5
ag5
ag5
ag5
ag5
ag5
asS'intr_664'
p1943
(lp1944
g5
ag5
ag5
ag5
ag5
ag5
ag5
ag5
ag5
ag5
ag5
ag5
ag5
ag5
ag5
ag5
ag5
ag5
asS'intr_665'
p1945
(lp1946
g5
ag5
ag5
ag5
ag5
ag5
ag5
ag5
ag5
ag5
ag5
ag5
ag5
ag5
ag5
ag5
ag5
ag5
asS'intr_662'
p1947
(lp1948
g5
ag5
ag5
ag5
ag5
ag5
ag5
ag5
ag5
ag5
ag5
ag5
ag5
ag5
ag5
ag5
ag5
ag5
asS'intr_663'
p1949
(lp1950
g5
ag5
ag5
ag5
ag5
ag5
ag5
ag5
ag5
ag5
ag5
ag5
ag5
ag5
ag5
ag5
ag5
ag5
asS'intr_660'
p1951
(lp1952
g5
ag5
ag5
ag5
ag5
ag5
ag5
ag5
ag5
ag5
ag5
ag5
ag5
ag5
ag5
ag5
ag5
ag5
asS'intr_661'
p1953
(lp1954
g5
ag5
ag5
ag5
ag5
ag5
ag5
ag5
ag5
ag5
ag5
ag5
ag5
ag5
ag5
ag5
ag5
ag5
asS'intr_785'
p1955
(lp1956
g5
ag5
ag5
ag5
ag5
ag5
ag5
ag5
ag5
ag5
ag5
ag5
ag5
ag5
ag5
ag5
ag5
ag5
asS'intr_784'
p1957
(lp1958
g5
ag5
ag5
ag5
ag5
ag5
ag5
ag5
ag5
ag5
ag5
ag5
ag5
ag5
ag5
ag5
ag5
ag5
asS'intr_787'
p1959
(lp1960
g5
ag5
ag5
ag5
ag5
ag5
ag5
ag5
ag5
ag5
ag5
ag5
ag5
ag5
ag5
ag5
ag5
ag5
asS'intr_786'
p1961
(lp1962
g5
ag5
ag5
ag5
ag5
ag5
ag5
ag5
ag5
ag5
ag5
ag5
ag5
ag5
ag5
ag5
ag5
ag5
asS'intr_464'
p1963
(lp1964
g5
ag5
ag5
ag5
ag5
ag5
ag5
ag5
ag5
ag5
ag5
ag5
ag5
ag5
ag5
ag5
ag5
ag5
asS'intr_780'
p1965
(lp1966
g5
ag5
ag5
ag5
ag5
ag5
ag5
ag5
ag5
ag5
ag5
ag5
ag5
ag5
ag5
ag5
ag5
ag5
asS'intr_668'
p1967
(lp1968
g5
ag5
ag5
ag5
ag5
ag5
ag5
ag5
ag5
ag5
ag5
ag5
ag5
ag5
ag5
ag5
ag5
ag5
asS'intr_669'
p1969
(lp1970
g5
ag5
ag5
ag5
ag5
ag5
ag5
ag5
ag5
ag5
ag5
ag5
ag5
ag5
ag5
ag5
ag5
ag5
asS'intr_501'
p1971
(lp1972
g5
ag5
ag5
ag5
ag5
ag5
ag5
ag5
ag5
ag5
ag5
ag5
ag5
ag5
ag5
ag5
ag5
ag5
asS'intr_798'
p1973
(lp1974
g5
ag5
ag5
ag5
ag5
ag5
ag5
ag5
ag5
ag5
ag5
ag5
ag5
ag5
ag5
ag5
ag5
ag5
asS'intr_799'
p1975
(lp1976
g5
ag5
ag5
ag5
ag5
ag5
ag5
ag5
ag5
ag5
ag5
ag5
ag5
ag5
ag5
ag5
ag5
ag5
asS'intr_500'
p1977
(lp1978
g5
ag5
ag5
ag5
ag5
ag5
ag5
ag5
ag5
ag5
ag5
ag5
ag5
ag5
ag5
ag5
ag5
ag5
asS'intr_448'
p1979
(lp1980
g5
ag5
ag5
ag5
ag5
ag5
ag5
ag5
ag5
ag5
ag5
ag5
ag5
ag5
ag5
ag5
ag5
ag5
asS'intr_449'
p1981
(lp1982
g5
ag5
ag5
ag5
ag5
ag5
ag5
ag5
ag5
ag5
ag5
ag5
ag5
ag5
ag5
ag5
ag5
ag5
asS'intr_442'
p1983
(lp1984
g5
ag5
ag5
ag5
ag5
ag5
ag5
ag5
ag5
ag5
ag5
ag5
ag5
ag5
ag5
ag5
ag5
ag5
asS'intr_443'
p1985
(lp1986
g5
ag5
ag5
ag5
ag5
ag5
ag5
ag5
ag5
ag5
ag5
ag5
ag5
ag5
ag5
ag5
ag5
ag5
asS'intr_440'
p1987
(lp1988
g5
ag5
ag5
ag5
ag5
ag5
ag5
ag5
ag5
ag5
ag5
ag5
ag5
ag5
ag5
ag5
ag5
ag5
asS'intr_441'
p1989
(lp1990
g5
ag5
ag5
ag5
ag5
ag5
ag5
ag5
ag5
ag5
ag5
ag5
ag5
ag5
ag5
ag5
ag5
ag5
asS'intr_446'
p1991
(lp1992
g5
ag5
ag5
ag5
ag5
ag5
ag5
ag5
ag5
ag5
ag5
ag5
ag5
ag5
ag5
ag5
ag5
ag5
asS'intr_447'
p1993
(lp1994
g5
ag5
ag5
ag5
ag5
ag5
ag5
ag5
ag5
ag5
ag5
ag5
ag5
ag5
ag5
ag5
ag5
ag5
asS'intr_444'
p1995
(lp1996
g5
ag5
ag5
ag5
ag5
ag5
ag5
ag5
ag5
ag5
ag5
ag5
ag5
ag5
ag5
ag5
ag5
ag5
asS'intr_445'
p1997
(lp1998
g5
ag5
ag5
ag5
ag5
ag5
ag5
ag5
ag5
ag5
ag5
ag5
ag5
ag5
ag5
ag5
ag5
ag5
asS'intr_561'
p1999
(lp2000
g5
ag5
ag5
ag5
ag5
ag5
ag5
ag5
ag5
ag5
ag5
ag5
ag5
ag5
ag5
ag5
ag5
ag5
asS'intr_560'
p2001
(lp2002
g5
ag5
ag5
ag5
ag5
ag5
ag5
ag5
ag5
ag5
ag5
ag5
ag5
ag5
ag5
ag5
ag5
ag5
asS'cpu_8'
p2003
(lp2004
g5
ag5
ag5
ag5
ag5
ag5
ag5
ag5
ag5
ag5
ag5
ag5
ag5
ag5
ag5
ag5
ag5
ag5
asS'cpu_9'
p2005
(lp2006
g5
ag5
ag5
ag5
ag5
ag5
ag5
ag5
ag5
ag5
ag5
ag5
ag5
ag5
ag5
ag5
ag5
ag5
asS'intr_565'
p2007
(lp2008
g5
ag5
ag5
ag5
ag5
ag5
ag5
ag5
ag5
ag5
ag5
ag5
ag5
ag5
ag5
ag5
ag5
ag5
asS'intr_564'
p2009
(lp2010
g5
ag5
ag5
ag5
ag5
ag5
ag5
ag5
ag5
ag5
ag5
ag5
ag5
ag5
ag5
ag5
ag5
ag5
asS'intr_567'
p2011
(lp2012
g5
ag5
ag5
ag5
ag5
ag5
ag5
ag5
ag5
ag5
ag5
ag5
ag5
ag5
ag5
ag5
ag5
ag5
asS'intr_566'
p2013
(lp2014
g5
ag5
ag5
ag5
ag5
ag5
ag5
ag5
ag5
ag5
ag5
ag5
ag5
ag5
ag5
ag5
ag5
ag5
asS'cpu_2'
p2015
(lp2016
S'5967'
p2017
aS'5967'
p2018
aS'5967'
p2019
aS'5967'
p2020
aS'5967'
p2021
aS'5967'
p2022
aS'5967'
p2023
aS'5967'
p2024
aS'5967'
p2025
aS'5967'
p2026
aS'5967'
p2027
aS'5967'
p2028
aS'5967'
p2029
aS'5967'
p2030
aS'5967'
p2031
aS'5967'
p2032
aS'5967'
p2033
aS'5967'
p2034
asS'cpu_3'
p2035
(lp2036
S'75421'
p2037
aS'75424'
p2038
aS'75429'
p2039
aS'75446'
p2040
aS'75461'
p2041
aS'75465'
p2042
aS'75470'
p2043
aS'75478'
p2044
aS'75480'
p2045
aS'75495'
p2046
aS'75495'
p2047
aS'75497'
p2048
aS'75502'
p2049
aS'75507'
p2050
aS'75516'
p2051
aS'75523'
p2052
aS'75524'
p2053
aS'75526'
p2054
asS'cpu_1'
p2055
(lp2056
S'334706'
p2057
aS'334707'
p2058
aS'334709'
p2059
aS'334827'
p2060
aS'334950'
p2061
aS'335092'
p2062
aS'335206'
p2063
aS'335343'
p2064
aS'335462'
p2065
aS'335622'
p2066
aS'335721'
p2067
aS'335854'
p2068
aS'335982'
p2069
aS'336078'
p2070
aS'336237'
p2071
aS'336350'
p2072
aS'336450'
p2073
aS'336597'
p2074
asS'cpu_6'
p2075
(lp2076
g5
ag5
ag5
ag5
ag5
ag5
ag5
ag5
ag5
ag5
ag5
ag5
ag5
ag5
ag5
ag5
ag5
ag5
asS'cpu_7'
p2077
(lp2078
S'26503'
p2079
aS'26503'
p2080
aS'26504'
p2081
aS'26504'
p2082
aS'26504'
p2083
aS'26504'
p2084
aS'26505'
p2085
aS'26505'
p2086
aS'26506'
p2087
aS'26506'
p2088
aS'26506'
p2089
aS'26506'
p2090
aS'26507'
p2091
aS'26507'
p2092
aS'26507'
p2093
aS'26507'
p2094
aS'26508'
p2095
aS'26508'
p2096
asS'cpu_4'
p2097
(lp2098
S'28810226'
p2099
aS'28810320'
p2100
aS'28810427'
p2101
aS'28810494'
p2102
aS'28810556'
p2103
aS'28810610'
p2104
aS'28810690'
p2105
aS'28810744'
p2106
aS'28810822'
p2107
aS'28810849'
p2108
aS'28810949'
p2109
aS'28811014'
p2110
aS'28811081'
p2111
aS'28811180'
p2112
aS'28811212'
p2113
aS'28811289'
p2114
aS'28811388'
p2115
aS'28811438'
p2116
asS'cpu_5'
p2117
(lp2118
S'92525'
p2119
aS'92618'
p2120
aS'92710'
p2121
aS'92710'
p2122
aS'92710'
p2123
aS'92710'
p2124
aS'92710'
p2125
aS'92710'
p2126
aS'92710'
p2127
aS'92710'
p2128
aS'92710'
p2129
aS'92710'
p2130
aS'92710'
p2131
aS'92710'
p2132
aS'92710'
p2133
aS'92710'
p2134
aS'92710'
p2135
aS'92710'
p2136
asS'intr_52'
p2137
(lp2138
g5
ag5
ag5
ag5
ag5
ag5
ag5
ag5
ag5
ag5
ag5
ag5
ag5
ag5
ag5
ag5
ag5
ag5
asS'intr_53'
p2139
(lp2140
g5
ag5
ag5
ag5
ag5
ag5
ag5
ag5
ag5
ag5
ag5
ag5
ag5
ag5
ag5
ag5
ag5
ag5
asS'intr_50'
p2141
(lp2142
g5
ag5
ag5
ag5
ag5
ag5
ag5
ag5
ag5
ag5
ag5
ag5
ag5
ag5
ag5
ag5
ag5
ag5
asS'intr_51'
p2143
(lp2144
g5
ag5
ag5
ag5
ag5
ag5
ag5
ag5
ag5
ag5
ag5
ag5
ag5
ag5
ag5
ag5
ag5
ag5
asS'intr_56'
p2145
(lp2146
g5
ag5
ag5
ag5
ag5
ag5
ag5
ag5
ag5
ag5
ag5
ag5
ag5
ag5
ag5
ag5
ag5
ag5
asS'intr_57'
p2147
(lp2148
g5
ag5
ag5
ag5
ag5
ag5
ag5
ag5
ag5
ag5
ag5
ag5
ag5
ag5
ag5
ag5
ag5
ag5
asS'intr_54'
p2149
(lp2150
g5
ag5
ag5
ag5
ag5
ag5
ag5
ag5
ag5
ag5
ag5
ag5
ag5
ag5
ag5
ag5
ag5
ag5
asS'intr_55'
p2151
(lp2152
g5
ag5
ag5
ag5
ag5
ag5
ag5
ag5
ag5
ag5
ag5
ag5
ag5
ag5
ag5
ag5
ag5
ag5
asS'intr_58'
p2153
(lp2154
g5
ag5
ag5
ag5
ag5
ag5
ag5
ag5
ag5
ag5
ag5
ag5
ag5
ag5
ag5
ag5
ag5
ag5
asS'intr_59'
p2155
(lp2156
g5
ag5
ag5
ag5
ag5
ag5
ag5
ag5
ag5
ag5
ag5
ag5
ag5
ag5
ag5
ag5
ag5
ag5
asS'intr_422'
p2157
(lp2158
g5
ag5
ag5
ag5
ag5
ag5
ag5
ag5
ag5
ag5
ag5
ag5
ag5
ag5
ag5
ag5
ag5
ag5
asS'intr_600'
p2159
(lp2160
g5
ag5
ag5
ag5
ag5
ag5
ag5
ag5
ag5
ag5
ag5
ag5
ag5
ag5
ag5
ag5
ag5
ag5
asS'intr_601'
p2161
(lp2162
g5
ag5
ag5
ag5
ag5
ag5
ag5
ag5
ag5
ag5
ag5
ag5
ag5
ag5
ag5
ag5
ag5
ag5
asS'intr_280'
p2163
(lp2164
g5
ag5
ag5
ag5
ag5
ag5
ag5
ag5
ag5
ag5
ag5
ag5
ag5
ag5
ag5
ag5
ag5
ag5
asS'intr_281'
p2165
(lp2166
g5
ag5
ag5
ag5
ag5
ag5
ag5
ag5
ag5
ag5
ag5
ag5
ag5
ag5
ag5
ag5
ag5
ag5
asS'intr_282'
p2167
(lp2168
g5
ag5
ag5
ag5
ag5
ag5
ag5
ag5
ag5
ag5
ag5
ag5
ag5
ag5
ag5
ag5
ag5
ag5
asS'intr_283'
p2169
(lp2170
g5
ag5
ag5
ag5
ag5
ag5
ag5
ag5
ag5
ag5
ag5
ag5
ag5
ag5
ag5
ag5
ag5
ag5
asS'intr_284'
p2171
(lp2172
g5
ag5
ag5
ag5
ag5
ag5
ag5
ag5
ag5
ag5
ag5
ag5
ag5
ag5
ag5
ag5
ag5
ag5
asS'intr_285'
p2173
(lp2174
g5
ag5
ag5
ag5
ag5
ag5
ag5
ag5
ag5
ag5
ag5
ag5
ag5
ag5
ag5
ag5
ag5
ag5
asS'intr_286'
p2175
(lp2176
g5
ag5
ag5
ag5
ag5
ag5
ag5
ag5
ag5
ag5
ag5
ag5
ag5
ag5
ag5
ag5
ag5
ag5
asS'intr_287'
p2177
(lp2178
g5
ag5
ag5
ag5
ag5
ag5
ag5
ag5
ag5
ag5
ag5
ag5
ag5
ag5
ag5
ag5
ag5
ag5
asS'intr_288'
p2179
(lp2180
g5
ag5
ag5
ag5
ag5
ag5
ag5
ag5
ag5
ag5
ag5
ag5
ag5
ag5
ag5
ag5
ag5
ag5
asS'intr_289'
p2181
(lp2182
g5
ag5
ag5
ag5
ag5
ag5
ag5
ag5
ag5
ag5
ag5
ag5
ag5
ag5
ag5
ag5
ag5
ag5
asS'intr_367'
p2183
(lp2184
g5
ag5
ag5
ag5
ag5
ag5
ag5
ag5
ag5
ag5
ag5
ag5
ag5
ag5
ag5
ag5
ag5
ag5
asS'intr_366'
p2185
(lp2186
g5
ag5
ag5
ag5
ag5
ag5
ag5
ag5
ag5
ag5
ag5
ag5
ag5
ag5
ag5
ag5
ag5
ag5
asS'intr_365'
p2187
(lp2188
g5
ag5
ag5
ag5
ag5
ag5
ag5
ag5
ag5
ag5
ag5
ag5
ag5
ag5
ag5
ag5
ag5
ag5
asS'intr_364'
p2189
(lp2190
g5
ag5
ag5
ag5
ag5
ag5
ag5
ag5
ag5
ag5
ag5
ag5
ag5
ag5
ag5
ag5
ag5
ag5
asS'intr_363'
p2191
(lp2192
g5
ag5
ag5
ag5
ag5
ag5
ag5
ag5
ag5
ag5
ag5
ag5
ag5
ag5
ag5
ag5
ag5
ag5
asS'intr_318'
p2193
(lp2194
g5
ag5
ag5
ag5
ag5
ag5
ag5
ag5
ag5
ag5
ag5
ag5
ag5
ag5
ag5
ag5
ag5
ag5
asS'intr_361'
p2195
(lp2196
g5
ag5
ag5
ag5
ag5
ag5
ag5
ag5
ag5
ag5
ag5
ag5
ag5
ag5
ag5
ag5
ag5
ag5
asS'intr_360'
p2197
(lp2198
g5
ag5
ag5
ag5
ag5
ag5
ag5
ag5
ag5
ag5
ag5
ag5
ag5
ag5
ag5
ag5
ag5
ag5
asS'intr_791'
p2199
(lp2200
g5
ag5
ag5
ag5
ag5
ag5
ag5
ag5
ag5
ag5
ag5
ag5
ag5
ag5
ag5
ag5
ag5
ag5
asS'intr_319'
p2201
(lp2202
g5
ag5
ag5
ag5
ag5
ag5
ag5
ag5
ag5
ag5
ag5
ag5
ag5
ag5
ag5
ag5
ag5
ag5
asS'intr_369'
p2203
(lp2204
g5
ag5
ag5
ag5
ag5
ag5
ag5
ag5
ag5
ag5
ag5
ag5
ag5
ag5
ag5
ag5
ag5
ag5
asS'intr_368'
p2205
(lp2206
g5
ag5
ag5
ag5
ag5
ag5
ag5
ag5
ag5
ag5
ag5
ag5
ag5
ag5
ag5
ag5
ag5
ag5
asS'intr_27'
p2207
(lp2208
g5
ag5
ag5
ag5
ag5
ag5
ag5
ag5
ag5
ag5
ag5
ag5
ag5
ag5
ag5
ag5
ag5
ag5
asS'intr_26'
p2209
(lp2210
g5
ag5
ag5
ag5
ag5
ag5
ag5
ag5
ag5
ag5
ag5
ag5
ag5
ag5
ag5
ag5
ag5
ag5
asS'intr_25'
p2211
(lp2212
S'462257'
p2213
aS'462257'
p2214
aS'462258'
p2215
aS'462258'
p2216
aS'462259'
p2217
aS'462259'
p2218
aS'462260'
p2219
aS'462260'
p2220
aS'462261'
p2221
aS'462261'
p2222
aS'462262'
p2223
aS'462262'
p2224
aS'462263'
p2225
aS'462263'
p2226
aS'462264'
p2227
aS'462264'
p2228
aS'462265'
p2229
aS'462265'
p2230
asS'intr_24'
p2231
(lp2232
g5
ag5
ag5
ag5
ag5
ag5
ag5
ag5
ag5
ag5
ag5
ag5
ag5
ag5
ag5
ag5
ag5
ag5
asS'intr_23'
p2233
(lp2234
g5
ag5
ag5
ag5
ag5
ag5
ag5
ag5
ag5
ag5
ag5
ag5
ag5
ag5
ag5
ag5
ag5
ag5
asS'intr_22'
p2235
(lp2236
g5
ag5
ag5
ag5
ag5
ag5
ag5
ag5
ag5
ag5
ag5
ag5
ag5
ag5
ag5
ag5
ag5
ag5
asS'intr_21'
p2237
(lp2238
g5
ag5
ag5
ag5
ag5
ag5
ag5
ag5
ag5
ag5
ag5
ag5
ag5
ag5
ag5
ag5
ag5
ag5
asS'intr_20'
p2239
(lp2240
S'30'
p2241
aS'30'
p2242
aS'30'
p2243
aS'30'
p2244
aS'30'
p2245
aS'30'
p2246
aS'30'
p2247
aS'30'
p2248
aS'30'
p2249
aS'30'
p2250
aS'30'
p2251
aS'30'
p2252
aS'30'
p2253
aS'30'
p2254
aS'30'
p2255
aS'30'
p2256
aS'30'
p2257
aS'30'
p2258
asS'intr_29'
p2259
(lp2260
g5
ag5
ag5
ag5
ag5
ag5
ag5
ag5
ag5
ag5
ag5
ag5
ag5
ag5
ag5
ag5
ag5
ag5
asS'intr_28'
p2261
(lp2262
g5
ag5
ag5
ag5
ag5
ag5
ag5
ag5
ag5
ag5
ag5
ag5
ag5
ag5
ag5
ag5
ag5
ag5
asS'intr_465'
p2263
(lp2264
g5
ag5
ag5
ag5
ag5
ag5
ag5
ag5
ag5
ag5
ag5
ag5
ag5
ag5
ag5
ag5
ag5
ag5
asS'intr_310'
p2265
(lp2266
g5
ag5
ag5
ag5
ag5
ag5
ag5
ag5
ag5
ag5
ag5
ag5
ag5
ag5
ag5
ag5
ag5
ag5
asS'intr_738'
p2267
(lp2268
g5
ag5
ag5
ag5
ag5
ag5
ag5
ag5
ag5
ag5
ag5
ag5
ag5
ag5
ag5
ag5
ag5
ag5
asS'intr_311'
p2269
(lp2270
g5
ag5
ag5
ag5
ag5
ag5
ag5
ag5
ag5
ag5
ag5
ag5
ag5
ag5
ag5
ag5
ag5
ag5
asS'intr_739'
p2271
(lp2272
g5
ag5
ag5
ag5
ag5
ag5
ag5
ag5
ag5
ag5
ag5
ag5
ag5
ag5
ag5
ag5
ag5
ag5
asS'intr_433'
p2273
(lp2274
g5
ag5
ag5
ag5
ag5
ag5
ag5
ag5
ag5
ag5
ag5
ag5
ag5
ag5
ag5
ag5
ag5
ag5
asS'intr_219'
p2275
(lp2276
g5
ag5
ag5
ag5
ag5
ag5
ag5
ag5
ag5
ag5
ag5
ag5
ag5
ag5
ag5
ag5
ag5
ag5
asS'intr_218'
p2277
(lp2278
g5
ag5
ag5
ag5
ag5
ag5
ag5
ag5
ag5
ag5
ag5
ag5
ag5
ag5
ag5
ag5
ag5
ag5
asS'intr_213'
p2279
(lp2280
g5
ag5
ag5
ag5
ag5
ag5
ag5
ag5
ag5
ag5
ag5
ag5
ag5
ag5
ag5
ag5
ag5
ag5
asS'intr_212'
p2281
(lp2282
g5
ag5
ag5
ag5
ag5
ag5
ag5
ag5
ag5
ag5
ag5
ag5
ag5
ag5
ag5
ag5
ag5
ag5
asS'intr_211'
p2283
(lp2284
g5
ag5
ag5
ag5
ag5
ag5
ag5
ag5
ag5
ag5
ag5
ag5
ag5
ag5
ag5
ag5
ag5
ag5
asS'intr_210'
p2285
(lp2286
g5
ag5
ag5
ag5
ag5
ag5
ag5
ag5
ag5
ag5
ag5
ag5
ag5
ag5
ag5
ag5
ag5
ag5
asS'intr_217'
p2287
(lp2288
g5
ag5
ag5
ag5
ag5
ag5
ag5
ag5
ag5
ag5
ag5
ag5
ag5
ag5
ag5
ag5
ag5
ag5
asS'intr_216'
p2289
(lp2290
g5
ag5
ag5
ag5
ag5
ag5
ag5
ag5
ag5
ag5
ag5
ag5
ag5
ag5
ag5
ag5
ag5
ag5
asS'intr_215'
p2291
(lp2292
g5
ag5
ag5
ag5
ag5
ag5
ag5
ag5
ag5
ag5
ag5
ag5
ag5
ag5
ag5
ag5
ag5
ag5
asS'intr_214'
p2293
(lp2294
g5
ag5
ag5
ag5
ag5
ag5
ag5
ag5
ag5
ag5
ag5
ag5
ag5
ag5
ag5
ag5
ag5
ag5
asS'intr_776'
p2295
(lp2296
g5
ag5
ag5
ag5
ag5
ag5
ag5
ag5
ag5
ag5
ag5
ag5
ag5
ag5
ag5
ag5
ag5
ag5
asS'intr_735'
p2297
(lp2298
g5
ag5
ag5
ag5
ag5
ag5
ag5
ag5
ag5
ag5
ag5
ag5
ag5
ag5
ag5
ag5
ag5
ag5
asS'intr_432'
p2299
(lp2300
g5
ag5
ag5
ag5
ag5
ag5
ag5
ag5
ag5
ag5
ag5
ag5
ag5
ag5
ag5
ag5
ag5
ag5
asS'softirq_11'
p2301
(lp2302
S'1282469'
p2303
aS'1282557'
p2304
aS'1282641'
p2305
aS'1282658'
p2306
aS'1282670'
p2307
aS'1282676'
p2308
aS'1282688'
p2309
aS'1282694'
p2310
aS'1282720'
p2311
aS'1282726'
p2312
aS'1282732'
p2313
aS'1282738'
p2314
aS'1282744'
p2315
aS'1282750'
p2316
aS'1282762'
p2317
aS'1282775'
p2318
aS'1282781'
p2319
aS'1282787'
p2320
asS'intr_622'
p2321
(lp2322
g5
ag5
ag5
ag5
ag5
ag5
ag5
ag5
ag5
ag5
ag5
ag5
ag5
ag5
ag5
ag5
ag5
ag5
asS'intr_623'
p2323
(lp2324
g5
ag5
ag5
ag5
ag5
ag5
ag5
ag5
ag5
ag5
ag5
ag5
ag5
ag5
ag5
ag5
ag5
ag5
asS'intr_620'
p2325
(lp2326
g5
ag5
ag5
ag5
ag5
ag5
ag5
ag5
ag5
ag5
ag5
ag5
ag5
ag5
ag5
ag5
ag5
ag5
asS'intr_621'
p2327
(lp2328
g5
ag5
ag5
ag5
ag5
ag5
ag5
ag5
ag5
ag5
ag5
ag5
ag5
ag5
ag5
ag5
ag5
ag5
asS'intr_626'
p2329
(lp2330
g5
ag5
ag5
ag5
ag5
ag5
ag5
ag5
ag5
ag5
ag5
ag5
ag5
ag5
ag5
ag5
ag5
ag5
asS'intr_627'
p2331
(lp2332
g5
ag5
ag5
ag5
ag5
ag5
ag5
ag5
ag5
ag5
ag5
ag5
ag5
ag5
ag5
ag5
ag5
ag5
asS'intr_624'
p2333
(lp2334
g5
ag5
ag5
ag5
ag5
ag5
ag5
ag5
ag5
ag5
ag5
ag5
ag5
ag5
ag5
ag5
ag5
ag5
asS'intr_625'
p2335
(lp2336
g5
ag5
ag5
ag5
ag5
ag5
ag5
ag5
ag5
ag5
ag5
ag5
ag5
ag5
ag5
ag5
ag5
ag5
asS'intr_741'
p2337
(lp2338
g5
ag5
ag5
ag5
ag5
ag5
ag5
ag5
ag5
ag5
ag5
ag5
ag5
ag5
ag5
ag5
ag5
ag5
asS'intr_730'
p2339
(lp2340
g5
ag5
ag5
ag5
ag5
ag5
ag5
ag5
ag5
ag5
ag5
ag5
ag5
ag5
ag5
ag5
ag5
ag5
asS'intr_628'
p2341
(lp2342
g5
ag5
ag5
ag5
ag5
ag5
ag5
ag5
ag5
ag5
ag5
ag5
ag5
ag5
ag5
ag5
ag5
ag5
asS'intr_629'
p2343
(lp2344
g5
ag5
ag5
ag5
ag5
ag5
ag5
ag5
ag5
ag5
ag5
ag5
ag5
ag5
ag5
ag5
ag5
ag5
asS'intr_745'
p2345
(lp2346
g5
ag5
ag5
ag5
ag5
ag5
ag5
ag5
ag5
ag5
ag5
ag5
ag5
ag5
ag5
ag5
ag5
ag5
asS'intr_744'
p2347
(lp2348
g5
ag5
ag5
ag5
ag5
ag5
ag5
ag5
ag5
ag5
ag5
ag5
ag5
ag5
ag5
ag5
ag5
ag5
asS'intr_747'
p2349
(lp2350
g5
ag5
ag5
ag5
ag5
ag5
ag5
ag5
ag5
ag5
ag5
ag5
ag5
ag5
ag5
ag5
ag5
ag5
asS'intr_731'
p2351
(lp2352
g5
ag5
ag5
ag5
ag5
ag5
ag5
ag5
ag5
ag5
ag5
ag5
ag5
ag5
ag5
ag5
ag5
ag5
asS'intr_733'
p2353
(lp2354
g5
ag5
ag5
ag5
ag5
ag5
ag5
ag5
ag5
ag5
ag5
ag5
ag5
ag5
ag5
ag5
ag5
ag5
asS'intr_362'
p2355
(lp2356
g5
ag5
ag5
ag5
ag5
ag5
ag5
ag5
ag5
ag5
ag5
ag5
ag5
ag5
ag5
ag5
ag5
ag5
asS'intr_529'
p2357
(lp2358
g5
ag5
ag5
ag5
ag5
ag5
ag5
ag5
ag5
ag5
ag5
ag5
ag5
ag5
ag5
ag5
ag5
ag5
asS'intr_486'
p2359
(lp2360
g5
ag5
ag5
ag5
ag5
ag5
ag5
ag5
ag5
ag5
ag5
ag5
ag5
ag5
ag5
ag5
ag5
ag5
asS'intr_487'
p2361
(lp2362
g5
ag5
ag5
ag5
ag5
ag5
ag5
ag5
ag5
ag5
ag5
ag5
ag5
ag5
ag5
ag5
ag5
ag5
asS'intr_484'
p2363
(lp2364
g5
ag5
ag5
ag5
ag5
ag5
ag5
ag5
ag5
ag5
ag5
ag5
ag5
ag5
ag5
ag5
ag5
ag5
asS'intr_485'
p2365
(lp2366
g5
ag5
ag5
ag5
ag5
ag5
ag5
ag5
ag5
ag5
ag5
ag5
ag5
ag5
ag5
ag5
ag5
ag5
asS'intr_482'
p2367
(lp2368
g5
ag5
ag5
ag5
ag5
ag5
ag5
ag5
ag5
ag5
ag5
ag5
ag5
ag5
ag5
ag5
ag5
ag5
asS'intr_483'
p2369
(lp2370
g5
ag5
ag5
ag5
ag5
ag5
ag5
ag5
ag5
ag5
ag5
ag5
ag5
ag5
ag5
ag5
ag5
ag5
asS'intr_480'
p2371
(lp2372
g5
ag5
ag5
ag5
ag5
ag5
ag5
ag5
ag5
ag5
ag5
ag5
ag5
ag5
ag5
ag5
ag5
ag5
asS'intr_481'
p2373
(lp2374
g5
ag5
ag5
ag5
ag5
ag5
ag5
ag5
ag5
ag5
ag5
ag5
ag5
ag5
ag5
ag5
ag5
ag5
asS'intr_525'
p2375
(lp2376
g5
ag5
ag5
ag5
ag5
ag5
ag5
ag5
ag5
ag5
ag5
ag5
ag5
ag5
ag5
ag5
ag5
ag5
asS'intr_524'
p2377
(lp2378
g5
ag5
ag5
ag5
ag5
ag5
ag5
ag5
ag5
ag5
ag5
ag5
ag5
ag5
ag5
ag5
ag5
ag5
asS'intr_527'
p2379
(lp2380
g5
ag5
ag5
ag5
ag5
ag5
ag5
ag5
ag5
ag5
ag5
ag5
ag5
ag5
ag5
ag5
ag5
ag5
asS'intr_526'
p2381
(lp2382
g5
ag5
ag5
ag5
ag5
ag5
ag5
ag5
ag5
ag5
ag5
ag5
ag5
ag5
ag5
ag5
ag5
ag5
asS'intr_521'
p2383
(lp2384
g5
ag5
ag5
ag5
ag5
ag5
ag5
ag5
ag5
ag5
ag5
ag5
ag5
ag5
ag5
ag5
ag5
ag5
asS'intr_520'
p2385
(lp2386
g5
ag5
ag5
ag5
ag5
ag5
ag5
ag5
ag5
ag5
ag5
ag5
ag5
ag5
ag5
ag5
ag5
ag5
asS'intr_488'
p2387
(lp2388
g5
ag5
ag5
ag5
ag5
ag5
ag5
ag5
ag5
ag5
ag5
ag5
ag5
ag5
ag5
ag5
ag5
ag5
asS'intr_489'
p2389
(lp2390
g5
ag5
ag5
ag5
ag5
ag5
ag5
ag5
ag5
ag5
ag5
ag5
ag5
ag5
ag5
ag5
ag5
ag5
asS'intr_136'
p2391
(lp2392
g5
ag5
ag5
ag5
ag5
ag5
ag5
ag5
ag5
ag5
ag5
ag5
ag5
ag5
ag5
ag5
ag5
ag5
asS'intr_137'
p2393
(lp2394
g5
ag5
ag5
ag5
ag5
ag5
ag5
ag5
ag5
ag5
ag5
ag5
ag5
ag5
ag5
ag5
ag5
ag5
asS'intr_134'
p2395
(lp2396
g5
ag5
ag5
ag5
ag5
ag5
ag5
ag5
ag5
ag5
ag5
ag5
ag5
ag5
ag5
ag5
ag5
ag5
asS'intr_135'
p2397
(lp2398
g5
ag5
ag5
ag5
ag5
ag5
ag5
ag5
ag5
ag5
ag5
ag5
ag5
ag5
ag5
ag5
ag5
ag5
asS'intr_132'
p2399
(lp2400
g5
ag5
ag5
ag5
ag5
ag5
ag5
ag5
ag5
ag5
ag5
ag5
ag5
ag5
ag5
ag5
ag5
ag5
asS'intr_133'
p2401
(lp2402
g5
ag5
ag5
ag5
ag5
ag5
ag5
ag5
ag5
ag5
ag5
ag5
ag5
ag5
ag5
ag5
ag5
ag5
asS'intr_130'
p2403
(lp2404
g5
ag5
ag5
ag5
ag5
ag5
ag5
ag5
ag5
ag5
ag5
ag5
ag5
ag5
ag5
ag5
ag5
ag5
asS'intr_131'
p2405
(lp2406
g5
ag5
ag5
ag5
ag5
ag5
ag5
ag5
ag5
ag5
ag5
ag5
ag5
ag5
ag5
ag5
ag5
ag5
asS'intr_701'
p2407
(lp2408
g5
ag5
ag5
ag5
ag5
ag5
ag5
ag5
ag5
ag5
ag5
ag5
ag5
ag5
ag5
ag5
ag5
ag5
asS'intr_98'
p2409
(lp2410
g5
ag5
ag5
ag5
ag5
ag5
ag5
ag5
ag5
ag5
ag5
ag5
ag5
ag5
ag5
ag5
ag5
ag5
asS'intr_99'
p2411
(lp2412
g5
ag5
ag5
ag5
ag5
ag5
ag5
ag5
ag5
ag5
ag5
ag5
ag5
ag5
ag5
ag5
ag5
ag5
asS'intr_549'
p2413
(lp2414
g5
ag5
ag5
ag5
ag5
ag5
ag5
ag5
ag5
ag5
ag5
ag5
ag5
ag5
ag5
ag5
ag5
ag5
asS'ctxt_1'
p2415
(lp2416
S'5890914'
p2417
aS'5891251'
p2418
aS'5892016'
p2419
aS'5892496'
p2420
aS'5892606'
p2421
aS'5892710'
p2422
aS'5893013'
p2423
aS'5893099'
p2424
aS'5893173'
p2425
aS'5893412'
p2426
aS'5893466'
p2427
aS'5893548'
p2428
aS'5893646'
p2429
aS'5893709'
p2430
aS'5893826'
p2431
aS'5893884'
p2432
aS'5893936'
p2433
aS'5894009'
p2434
asS'intr_548'
p2435
(lp2436
g5
ag5
ag5
ag5
ag5
ag5
ag5
ag5
ag5
ag5
ag5
ag5
ag5
ag5
ag5
ag5
ag5
ag5
asS'intr_411'
p2437
(lp2438
g5
ag5
ag5
ag5
ag5
ag5
ag5
ag5
ag5
ag5
ag5
ag5
ag5
ag5
ag5
ag5
ag5
ag5
asS'intr_410'
p2439
(lp2440
g5
ag5
ag5
ag5
ag5
ag5
ag5
ag5
ag5
ag5
ag5
ag5
ag5
ag5
ag5
ag5
ag5
ag5
asS'intr_413'
p2441
(lp2442
g5
ag5
ag5
ag5
ag5
ag5
ag5
ag5
ag5
ag5
ag5
ag5
ag5
ag5
ag5
ag5
ag5
ag5
asS'intr_412'
p2443
(lp2444
g5
ag5
ag5
ag5
ag5
ag5
ag5
ag5
ag5
ag5
ag5
ag5
ag5
ag5
ag5
ag5
ag5
ag5
asS'intr_415'
p2445
(lp2446
g5
ag5
ag5
ag5
ag5
ag5
ag5
ag5
ag5
ag5
ag5
ag5
ag5
ag5
ag5
ag5
ag5
ag5
asS'intr_414'
p2447
(lp2448
g5
ag5
ag5
ag5
ag5
ag5
ag5
ag5
ag5
ag5
ag5
ag5
ag5
ag5
ag5
ag5
ag5
ag5
asS'intr_417'
p2449
(lp2450
g5
ag5
ag5
ag5
ag5
ag5
ag5
ag5
ag5
ag5
ag5
ag5
ag5
ag5
ag5
ag5
ag5
ag5
asS'intr_416'
p2451
(lp2452
g5
ag5
ag5
ag5
ag5
ag5
ag5
ag5
ag5
ag5
ag5
ag5
ag5
ag5
ag5
ag5
ag5
ag5
asS'intr_419'
p2453
(lp2454
g5
ag5
ag5
ag5
ag5
ag5
ag5
ag5
ag5
ag5
ag5
ag5
ag5
ag5
ag5
ag5
ag5
ag5
asS'intr_418'
p2455
(lp2456
g5
ag5
ag5
ag5
ag5
ag5
ag5
ag5
ag5
ag5
ag5
ag5
ag5
ag5
ag5
ag5
ag5
ag5
asS'intr_552'
p2457
(lp2458
g5
ag5
ag5
ag5
ag5
ag5
ag5
ag5
ag5
ag5
ag5
ag5
ag5
ag5
ag5
ag5
ag5
ag5
asS'intr_553'
p2459
(lp2460
g5
ag5
ag5
ag5
ag5
ag5
ag5
ag5
ag5
ag5
ag5
ag5
ag5
ag5
ag5
ag5
ag5
ag5
asS'intr_554'
p2461
(lp2462
g5
ag5
ag5
ag5
ag5
ag5
ag5
ag5
ag5
ag5
ag5
ag5
ag5
ag5
ag5
ag5
ag5
ag5
asS'intr_555'
p2463
(lp2464
g5
ag5
ag5
ag5
ag5
ag5
ag5
ag5
ag5
ag5
ag5
ag5
ag5
ag5
ag5
ag5
ag5
ag5
asS'intr_556'
p2465
(lp2466
g5
ag5
ag5
ag5
ag5
ag5
ag5
ag5
ag5
ag5
ag5
ag5
ag5
ag5
ag5
ag5
ag5
ag5
asS'intr_557'
p2467
(lp2468
g5
ag5
ag5
ag5
ag5
ag5
ag5
ag5
ag5
ag5
ag5
ag5
ag5
ag5
ag5
ag5
ag5
ag5
asS'intr_69'
p2469
(lp2470
g5
ag5
ag5
ag5
ag5
ag5
ag5
ag5
ag5
ag5
ag5
ag5
ag5
ag5
ag5
ag5
ag5
ag5
asS'intr_68'
p2471
(lp2472
g5
ag5
ag5
ag5
ag5
ag5
ag5
ag5
ag5
ag5
ag5
ag5
ag5
ag5
ag5
ag5
ag5
ag5
asS'intr_63'
p2473
(lp2474
g5
ag5
ag5
ag5
ag5
ag5
ag5
ag5
ag5
ag5
ag5
ag5
ag5
ag5
ag5
ag5
ag5
ag5
asS'intr_62'
p2475
(lp2476
g5
ag5
ag5
ag5
ag5
ag5
ag5
ag5
ag5
ag5
ag5
ag5
ag5
ag5
ag5
ag5
ag5
ag5
asS'intr_61'
p2477
(lp2478
g5
ag5
ag5
ag5
ag5
ag5
ag5
ag5
ag5
ag5
ag5
ag5
ag5
ag5
ag5
ag5
ag5
ag5
asS'intr_60'
p2479
(lp2480
g5
ag5
ag5
ag5
ag5
ag5
ag5
ag5
ag5
ag5
ag5
ag5
ag5
ag5
ag5
ag5
ag5
ag5
asS'intr_67'
p2481
(lp2482
g5
ag5
ag5
ag5
ag5
ag5
ag5
ag5
ag5
ag5
ag5
ag5
ag5
ag5
ag5
ag5
ag5
ag5
asS'intr_66'
p2483
(lp2484
g5
ag5
ag5
ag5
ag5
ag5
ag5
ag5
ag5
ag5
ag5
ag5
ag5
ag5
ag5
ag5
ag5
ag5
asS'intr_65'
p2485
(lp2486
g5
ag5
ag5
ag5
ag5
ag5
ag5
ag5
ag5
ag5
ag5
ag5
ag5
ag5
ag5
ag5
ag5
ag5
asS'intr_64'
p2487
(lp2488
g5
ag5
ag5
ag5
ag5
ag5
ag5
ag5
ag5
ag5
ag5
ag5
ag5
ag5
ag5
ag5
ag5
ag5
asS'intr_578'
p2489
(lp2490
g5
ag5
ag5
ag5
ag5
ag5
ag5
ag5
ag5
ag5
ag5
ag5
ag5
ag5
ag5
ag5
ag5
ag5
asS'intr_579'
p2491
(lp2492
g5
ag5
ag5
ag5
ag5
ag5
ag5
ag5
ag5
ag5
ag5
ag5
ag5
ag5
ag5
ag5
ag5
ag5
asS'intr_493'
p2493
(lp2494
g5
ag5
ag5
ag5
ag5
ag5
ag5
ag5
ag5
ag5
ag5
ag5
ag5
ag5
ag5
ag5
ag5
ag5
asS'intr_257'
p2495
(lp2496
g5
ag5
ag5
ag5
ag5
ag5
ag5
ag5
ag5
ag5
ag5
ag5
ag5
ag5
ag5
ag5
ag5
ag5
asS'intr_256'
p2497
(lp2498
g5
ag5
ag5
ag5
ag5
ag5
ag5
ag5
ag5
ag5
ag5
ag5
ag5
ag5
ag5
ag5
ag5
ag5
asS'intr_255'
p2499
(lp2500
g5
ag5
ag5
ag5
ag5
ag5
ag5
ag5
ag5
ag5
ag5
ag5
ag5
ag5
ag5
ag5
ag5
ag5
asS'intr_254'
p2501
(lp2502
g5
ag5
ag5
ag5
ag5
ag5
ag5
ag5
ag5
ag5
ag5
ag5
ag5
ag5
ag5
ag5
ag5
ag5
asS'intr_253'
p2503
(lp2504
g5
ag5
ag5
ag5
ag5
ag5
ag5
ag5
ag5
ag5
ag5
ag5
ag5
ag5
ag5
ag5
ag5
ag5
asS'intr_252'
p2505
(lp2506
g5
ag5
ag5
ag5
ag5
ag5
ag5
ag5
ag5
ag5
ag5
ag5
ag5
ag5
ag5
ag5
ag5
ag5
asS'intr_251'
p2507
(lp2508
g5
ag5
ag5
ag5
ag5
ag5
ag5
ag5
ag5
ag5
ag5
ag5
ag5
ag5
ag5
ag5
ag5
ag5
asS'intr_250'
p2509
(lp2510
g5
ag5
ag5
ag5
ag5
ag5
ag5
ag5
ag5
ag5
ag5
ag5
ag5
ag5
ag5
ag5
ag5
ag5
asS'intr_316'
p2511
(lp2512
g5
ag5
ag5
ag5
ag5
ag5
ag5
ag5
ag5
ag5
ag5
ag5
ag5
ag5
ag5
ag5
ag5
ag5
asS'intr_317'
p2513
(lp2514
g5
ag5
ag5
ag5
ag5
ag5
ag5
ag5
ag5
ag5
ag5
ag5
ag5
ag5
ag5
ag5
ag5
ag5
asS'intr_314'
p2515
(lp2516
g5
ag5
ag5
ag5
ag5
ag5
ag5
ag5
ag5
ag5
ag5
ag5
ag5
ag5
ag5
ag5
ag5
ag5
asS'intr_315'
p2517
(lp2518
g5
ag5
ag5
ag5
ag5
ag5
ag5
ag5
ag5
ag5
ag5
ag5
ag5
ag5
ag5
ag5
ag5
ag5
asS'intr_312'
p2519
(lp2520
g5
ag5
ag5
ag5
ag5
ag5
ag5
ag5
ag5
ag5
ag5
ag5
ag5
ag5
ag5
ag5
ag5
ag5
asS'intr_313'
p2521
(lp2522
g5
ag5
ag5
ag5
ag5
ag5
ag5
ag5
ag5
ag5
ag5
ag5
ag5
ag5
ag5
ag5
ag5
ag5
asS'intr_259'
p2523
(lp2524
g5
ag5
ag5
ag5
ag5
ag5
ag5
ag5
ag5
ag5
ag5
ag5
ag5
ag5
ag5
ag5
ag5
ag5
asS'intr_258'
p2525
(lp2526
g5
ag5
ag5
ag5
ag5
ag5
ag5
ag5
ag5
ag5
ag5
ag5
ag5
ag5
ag5
ag5
ag5
ag5
asS'intr_570'
p2527
(lp2528
g5
ag5
ag5
ag5
ag5
ag5
ag5
ag5
ag5
ag5
ag5
ag5
ag5
ag5
ag5
ag5
ag5
ag5
asS'intr_571'
p2529
(lp2530
g5
ag5
ag5
ag5
ag5
ag5
ag5
ag5
ag5
ag5
ag5
ag5
ag5
ag5
ag5
ag5
ag5
ag5
asS'intr_705'
p2531
(lp2532
g5
ag5
ag5
ag5
ag5
ag5
ag5
ag5
ag5
ag5
ag5
ag5
ag5
ag5
ag5
ag5
ag5
ag5
asS'intr_704'
p2533
(lp2534
g5
ag5
ag5
ag5
ag5
ag5
ag5
ag5
ag5
ag5
ag5
ag5
ag5
ag5
ag5
ag5
ag5
ag5
asS'intr_707'
p2535
(lp2536
g5
ag5
ag5
ag5
ag5
ag5
ag5
ag5
ag5
ag5
ag5
ag5
ag5
ag5
ag5
ag5
ag5
ag5
asS'intr_706'
p2537
(lp2538
g5
ag5
ag5
ag5
ag5
ag5
ag5
ag5
ag5
ag5
ag5
ag5
ag5
ag5
ag5
ag5
ag5
ag5
asS'intr_608'
p2539
(lp2540
g5
ag5
ag5
ag5
ag5
ag5
ag5
ag5
ag5
ag5
ag5
ag5
ag5
ag5
ag5
ag5
ag5
ag5
asS'intr_700'
p2541
(lp2542
g5
ag5
ag5
ag5
ag5
ag5
ag5
ag5
ag5
ag5
ag5
ag5
ag5
ag5
ag5
ag5
ag5
ag5
asS'intr_703'
p2543
(lp2544
g5
ag5
ag5
ag5
ag5
ag5
ag5
ag5
ag5
ag5
ag5
ag5
ag5
ag5
ag5
ag5
ag5
ag5
asS'intr_702'
p2545
(lp2546
g5
ag5
ag5
ag5
ag5
ag5
ag5
ag5
ag5
ag5
ag5
ag5
ag5
ag5
ag5
ag5
ag5
ag5
asS'intr_709'
p2547
(lp2548
g5
ag5
ag5
ag5
ag5
ag5
ag5
ag5
ag5
ag5
ag5
ag5
ag5
ag5
ag5
ag5
ag5
ag5
asS'intr_708'
p2549
(lp2550
g5
ag5
ag5
ag5
ag5
ag5
ag5
ag5
ag5
ag5
ag5
ag5
ag5
ag5
ag5
ag5
ag5
ag5
asS'intr_507'
p2551
(lp2552
g5
ag5
ag5
ag5
ag5
ag5
ag5
ag5
ag5
ag5
ag5
ag5
ag5
ag5
ag5
ag5
ag5
ag5
asS'intr_609'
p2553
(lp2554
g5
ag5
ag5
ag5
ag5
ag5
ag5
ag5
ag5
ag5
ag5
ag5
ag5
ag5
ag5
ag5
ag5
ag5
asS'intr_506'
p2555
(lp2556
g5
ag5
ag5
ag5
ag5
ag5
ag5
ag5
ag5
ag5
ag5
ag5
ag5
ag5
ag5
ag5
ag5
ag5
asS'intr_505'
p2557
(lp2558
g5
ag5
ag5
ag5
ag5
ag5
ag5
ag5
ag5
ag5
ag5
ag5
ag5
ag5
ag5
ag5
ag5
ag5
asS'intr_504'
p2559
(lp2560
g5
ag5
ag5
ag5
ag5
ag5
ag5
ag5
ag5
ag5
ag5
ag5
ag5
ag5
ag5
ag5
ag5
ag5
asS'intr_503'
p2561
(lp2562
g5
ag5
ag5
ag5
ag5
ag5
ag5
ag5
ag5
ag5
ag5
ag5
ag5
ag5
ag5
ag5
ag5
ag5
asS'intr_502'
p2563
(lp2564
g5
ag5
ag5
ag5
ag5
ag5
ag5
ag5
ag5
ag5
ag5
ag5
ag5
ag5
ag5
ag5
ag5
ag5
asS'intr_172'
p2565
(lp2566
g5
ag5
ag5
ag5
ag5
ag5
ag5
ag5
ag5
ag5
ag5
ag5
ag5
ag5
ag5
ag5
ag5
ag5
asS'intr_173'
p2567
(lp2568
g5
ag5
ag5
ag5
ag5
ag5
ag5
ag5
ag5
ag5
ag5
ag5
ag5
ag5
ag5
ag5
ag5
ag5
asS'intr_170'
p2569
(lp2570
g5
ag5
ag5
ag5
ag5
ag5
ag5
ag5
ag5
ag5
ag5
ag5
ag5
ag5
ag5
ag5
ag5
ag5
asS'intr_171'
p2571
(lp2572
g5
ag5
ag5
ag5
ag5
ag5
ag5
ag5
ag5
ag5
ag5
ag5
ag5
ag5
ag5
ag5
ag5
ag5
asS'intr_176'
p2573
(lp2574
g5
ag5
ag5
ag5
ag5
ag5
ag5
ag5
ag5
ag5
ag5
ag5
ag5
ag5
ag5
ag5
ag5
ag5
asS'intr_177'
p2575
(lp2576
g5
ag5
ag5
ag5
ag5
ag5
ag5
ag5
ag5
ag5
ag5
ag5
ag5
ag5
ag5
ag5
ag5
ag5
asS'intr_174'
p2577
(lp2578
g5
ag5
ag5
ag5
ag5
ag5
ag5
ag5
ag5
ag5
ag5
ag5
ag5
ag5
ag5
ag5
ag5
ag5
asS'intr_175'
p2579
(lp2580
g5
ag5
ag5
ag5
ag5
ag5
ag5
ag5
ag5
ag5
ag5
ag5
ag5
ag5
ag5
ag5
ag5
ag5
asS'intr_671'
p2581
(lp2582
g5
ag5
ag5
ag5
ag5
ag5
ag5
ag5
ag5
ag5
ag5
ag5
ag5
ag5
ag5
ag5
ag5
ag5
asS'intr_670'
p2583
(lp2584
g5
ag5
ag5
ag5
ag5
ag5
ag5
ag5
ag5
ag5
ag5
ag5
ag5
ag5
ag5
ag5
ag5
ag5
asS'intr_178'
p2585
(lp2586
g5
ag5
ag5
ag5
ag5
ag5
ag5
ag5
ag5
ag5
ag5
ag5
ag5
ag5
ag5
ag5
ag5
ag5
asS'intr_179'
p2587
(lp2588
g5
ag5
ag5
ag5
ag5
ag5
ag5
ag5
ag5
ag5
ag5
ag5
ag5
ag5
ag5
ag5
ag5
ag5
asS'intr_675'
p2589
(lp2590
g5
ag5
ag5
ag5
ag5
ag5
ag5
ag5
ag5
ag5
ag5
ag5
ag5
ag5
ag5
ag5
ag5
ag5
asS'intr_674'
p2591
(lp2592
g5
ag5
ag5
ag5
ag5
ag5
ag5
ag5
ag5
ag5
ag5
ag5
ag5
ag5
ag5
ag5
ag5
ag5
asS'intr_677'
p2593
(lp2594
g5
ag5
ag5
ag5
ag5
ag5
ag5
ag5
ag5
ag5
ag5
ag5
ag5
ag5
ag5
ag5
ag5
ag5
asS'intr_676'
p2595
(lp2596
g5
ag5
ag5
ag5
ag5
ag5
ag5
ag5
ag5
ag5
ag5
ag5
ag5
ag5
ag5
ag5
ag5
ag5
asS'intr_770'
p2597
(lp2598
g5
ag5
ag5
ag5
ag5
ag5
ag5
ag5
ag5
ag5
ag5
ag5
ag5
ag5
ag5
ag5
ag5
ag5
asS'intr_771'
p2599
(lp2600
g5
ag5
ag5
ag5
ag5
ag5
ag5
ag5
ag5
ag5
ag5
ag5
ag5
ag5
ag5
ag5
ag5
ag5
asS'intr_772'
p2601
(lp2602
g5
ag5
ag5
ag5
ag5
ag5
ag5
ag5
ag5
ag5
ag5
ag5
ag5
ag5
ag5
ag5
ag5
ag5
asS'intr_773'
p2603
(lp2604
g5
ag5
ag5
ag5
ag5
ag5
ag5
ag5
ag5
ag5
ag5
ag5
ag5
ag5
ag5
ag5
ag5
ag5
asS'intr_774'
p2605
(lp2606
g5
ag5
ag5
ag5
ag5
ag5
ag5
ag5
ag5
ag5
ag5
ag5
ag5
ag5
ag5
ag5
ag5
ag5
asS'intr_775'
p2607
(lp2608
g5
ag5
ag5
ag5
ag5
ag5
ag5
ag5
ag5
ag5
ag5
ag5
ag5
ag5
ag5
ag5
ag5
ag5
asS'intr_523'
p2609
(lp2610
g5
ag5
ag5
ag5
ag5
ag5
ag5
ag5
ag5
ag5
ag5
ag5
ag5
ag5
ag5
ag5
ag5
ag5
asS'intr_777'
p2611
(lp2612
g5
ag5
ag5
ag5
ag5
ag5
ag5
ag5
ag5
ag5
ag5
ag5
ag5
ag5
ag5
ag5
ag5
ag5
asS'intr_778'
p2613
(lp2614
g5
ag5
ag5
ag5
ag5
ag5
ag5
ag5
ag5
ag5
ag5
ag5
ag5
ag5
ag5
ag5
ag5
ag5
asS'intr_779'
p2615
(lp2616
g5
ag5
ag5
ag5
ag5
ag5
ag5
ag5
ag5
ag5
ag5
ag5
ag5
ag5
ag5
ag5
ag5
ag5
asS'intr_428'
p2617
(lp2618
g5
ag5
ag5
ag5
ag5
ag5
ag5
ag5
ag5
ag5
ag5
ag5
ag5
ag5
ag5
ag5
ag5
ag5
asS'processes_1'
p2619
(lp2620
S'52211'
p2621
aS'52217'
p2622
aS'52222'
p2623
aS'52222'
p2624
aS'52222'
p2625
aS'52222'
p2626
aS'52222'
p2627
aS'52222'
p2628
aS'52222'
p2629
aS'52222'
p2630
aS'52222'
p2631
aS'52222'
p2632
aS'52222'
p2633
aS'52222'
p2634
aS'52222'
p2635
aS'52222'
p2636
aS'52222'
p2637
aS'52222'
p2638
asS'intr_766'
p2639
(lp2640
g5
ag5
ag5
ag5
ag5
ag5
ag5
ag5
ag5
ag5
ag5
ag5
ag5
ag5
ag5
ag5
ag5
ag5
asS'intr_522'
p2641
(lp2642
g5
ag5
ag5
ag5
ag5
ag5
ag5
ag5
ag5
ag5
ag5
ag5
ag5
ag5
ag5
ag5
ag5
ag5
asS'intr_429'
p2643
(lp2644
g5
ag5
ag5
ag5
ag5
ag5
ag5
ag5
ag5
ag5
ag5
ag5
ag5
ag5
ag5
ag5
ag5
ag5
asS'intr_459'
p2645
(lp2646
g5
ag5
ag5
ag5
ag5
ag5
ag5
ag5
ag5
ag5
ag5
ag5
ag5
ag5
ag5
ag5
ag5
ag5
asS'intr_458'
p2647
(lp2648
g5
ag5
ag5
ag5
ag5
ag5
ag5
ag5
ag5
ag5
ag5
ag5
ag5
ag5
ag5
ag5
ag5
ag5
asS'intr_696'
p2649
(lp2650
g5
ag5
ag5
ag5
ag5
ag5
ag5
ag5
ag5
ag5
ag5
ag5
ag5
ag5
ag5
ag5
ag5
ag5
asS'intr_455'
p2651
(lp2652
g5
ag5
ag5
ag5
ag5
ag5
ag5
ag5
ag5
ag5
ag5
ag5
ag5
ag5
ag5
ag5
ag5
ag5
asS'intr_454'
p2653
(lp2654
g5
ag5
ag5
ag5
ag5
ag5
ag5
ag5
ag5
ag5
ag5
ag5
ag5
ag5
ag5
ag5
ag5
ag5
asS'intr_457'
p2655
(lp2656
g5
ag5
ag5
ag5
ag5
ag5
ag5
ag5
ag5
ag5
ag5
ag5
ag5
ag5
ag5
ag5
ag5
ag5
asS'intr_456'
p2657
(lp2658
g5
ag5
ag5
ag5
ag5
ag5
ag5
ag5
ag5
ag5
ag5
ag5
ag5
ag5
ag5
ag5
ag5
ag5
asS'intr_451'
p2659
(lp2660
g5
ag5
ag5
ag5
ag5
ag5
ag5
ag5
ag5
ag5
ag5
ag5
ag5
ag5
ag5
ag5
ag5
ag5
asS'intr_450'
p2661
(lp2662
g5
ag5
ag5
ag5
ag5
ag5
ag5
ag5
ag5
ag5
ag5
ag5
ag5
ag5
ag5
ag5
ag5
ag5
asS'intr_94'
p2663
(lp2664
g5
ag5
ag5
ag5
ag5
ag5
ag5
ag5
ag5
ag5
ag5
ag5
ag5
ag5
ag5
ag5
ag5
ag5
asS'intr_452'
p2665
(lp2666
g5
ag5
ag5
ag5
ag5
ag5
ag5
ag5
ag5
ag5
ag5
ag5
ag5
ag5
ag5
ag5
ag5
ag5
asS'intr_514'
p2667
(lp2668
g5
ag5
ag5
ag5
ag5
ag5
ag5
ag5
ag5
ag5
ag5
ag5
ag5
ag5
ag5
ag5
ag5
ag5
asS'intr_515'
p2669
(lp2670
g5
ag5
ag5
ag5
ag5
ag5
ag5
ag5
ag5
ag5
ag5
ag5
ag5
ag5
ag5
ag5
ag5
ag5
asS'intr_516'
p2671
(lp2672
g5
ag5
ag5
ag5
ag5
ag5
ag5
ag5
ag5
ag5
ag5
ag5
ag5
ag5
ag5
ag5
ag5
ag5
asS'intr_517'
p2673
(lp2674
g5
ag5
ag5
ag5
ag5
ag5
ag5
ag5
ag5
ag5
ag5
ag5
ag5
ag5
ag5
ag5
ag5
ag5
asS'intr_510'
p2675
(lp2676
g5
ag5
ag5
ag5
ag5
ag5
ag5
ag5
ag5
ag5
ag5
ag5
ag5
ag5
ag5
ag5
ag5
ag5
asS'intr_511'
p2677
(lp2678
g5
ag5
ag5
ag5
ag5
ag5
ag5
ag5
ag5
ag5
ag5
ag5
ag5
ag5
ag5
ag5
ag5
ag5
asS'intr_512'
p2679
(lp2680
g5
ag5
ag5
ag5
ag5
ag5
ag5
ag5
ag5
ag5
ag5
ag5
ag5
ag5
ag5
ag5
ag5
ag5
asS'intr_513'
p2681
(lp2682
g5
ag5
ag5
ag5
ag5
ag5
ag5
ag5
ag5
ag5
ag5
ag5
ag5
ag5
ag5
ag5
ag5
ag5
asS'intr_518'
p2683
(lp2684
g5
ag5
ag5
ag5
ag5
ag5
ag5
ag5
ag5
ag5
ag5
ag5
ag5
ag5
ag5
ag5
ag5
ag5
asS'intr_519'
p2685
(lp2686
g5
ag5
ag5
ag5
ag5
ag5
ag5
ag5
ag5
ag5
ag5
ag5
ag5
ag5
ag5
ag5
ag5
ag5
asS'intr_684'
p2687
(lp2688
g5
ag5
ag5
ag5
ag5
ag5
ag5
ag5
ag5
ag5
ag5
ag5
ag5
ag5
ag5
ag5
ag5
ag5
asS'intr_685'
p2689
(lp2690
g5
ag5
ag5
ag5
ag5
ag5
ag5
ag5
ag5
ag5
ag5
ag5
ag5
ag5
ag5
ag5
ag5
ag5
asS'intr_686'
p2691
(lp2692
g5
ag5
ag5
ag5
ag5
ag5
ag5
ag5
ag5
ag5
ag5
ag5
ag5
ag5
ag5
ag5
ag5
ag5
asS'intr_687'
p2693
(lp2694
g5
ag5
ag5
ag5
ag5
ag5
ag5
ag5
ag5
ag5
ag5
ag5
ag5
ag5
ag5
ag5
ag5
ag5
asS'intr_680'
p2695
(lp2696
g5
ag5
ag5
ag5
ag5
ag5
ag5
ag5
ag5
ag5
ag5
ag5
ag5
ag5
ag5
ag5
ag5
ag5
asS'intr_681'
p2697
(lp2698
g5
ag5
ag5
ag5
ag5
ag5
ag5
ag5
ag5
ag5
ag5
ag5
ag5
ag5
ag5
ag5
ag5
ag5
asS'intr_682'
p2699
(lp2700
g5
ag5
ag5
ag5
ag5
ag5
ag5
ag5
ag5
ag5
ag5
ag5
ag5
ag5
ag5
ag5
ag5
ag5
asS'intr_683'
p2701
(lp2702
g5
ag5
ag5
ag5
ag5
ag5
ag5
ag5
ag5
ag5
ag5
ag5
ag5
ag5
ag5
ag5
ag5
ag5
asS'intr_690'
p2703
(lp2704
g5
ag5
ag5
ag5
ag5
ag5
ag5
ag5
ag5
ag5
ag5
ag5
ag5
ag5
ag5
ag5
ag5
ag5
asS'intr_546'
p2705
(lp2706
g5
ag5
ag5
ag5
ag5
ag5
ag5
ag5
ag5
ag5
ag5
ag5
ag5
ag5
ag5
ag5
ag5
ag5
asS'intr_689'
p2707
(lp2708
g5
ag5
ag5
ag5
ag5
ag5
ag5
ag5
ag5
ag5
ag5
ag5
ag5
ag5
ag5
ag5
ag5
ag5
asS'intr_643'
p2709
(lp2710
g5
ag5
ag5
ag5
ag5
ag5
ag5
ag5
ag5
ag5
ag5
ag5
ag5
ag5
ag5
ag5
ag5
ag5
asS'intr_644'
p2711
(lp2712
g5
ag5
ag5
ag5
ag5
ag5
ag5
ag5
ag5
ag5
ag5
ag5
ag5
ag5
ag5
ag5
ag5
ag5
asS'softirq_7'
p2713
(lp2714
g5
ag5
ag5
ag5
ag5
ag5
ag5
ag5
ag5
ag5
ag5
ag5
ag5
ag5
ag5
ag5
ag5
ag5
asS'intr_679'
p2715
(lp2716
g5
ag5
ag5
ag5
ag5
ag5
ag5
ag5
ag5
ag5
ag5
ag5
ag5
ag5
ag5
ag5
ag5
ag5
asS'softirq_4'
p2717
(lp2718
S'29381'
p2719
aS'29382'
p2720
aS'29382'
p2721
aS'29382'
p2722
aS'29382'
p2723
aS'29382'
p2724
aS'29383'
p2725
aS'29383'
p2726
aS'29383'
p2727
aS'29383'
p2728
aS'29383'
p2729
aS'29384'
p2730
aS'29384'
p2731
aS'29384'
p2732
aS'29384'
p2733
aS'29384'
p2734
aS'29385'
p2735
aS'29385'
p2736
asS'intr_678'
p2737
(lp2738
g5
ag5
ag5
ag5
ag5
ag5
ag5
ag5
ag5
ag5
ag5
ag5
ag5
ag5
ag5
ag5
ag5
ag5
asS'softirq_5'
p2739
(lp2740
S'541816'
p2741
aS'541816'
p2742
aS'541817'
p2743
aS'541817'
p2744
aS'541818'
p2745
aS'541818'
p2746
aS'541819'
p2747
aS'541819'
p2748
aS'541820'
p2749
aS'541820'
p2750
aS'541821'
p2751
aS'541821'
p2752
aS'541822'
p2753
aS'541822'
p2754
aS'541823'
p2755
aS'541823'
p2756
aS'541824'
p2757
aS'541824'
p2758
asS'intr_293'
p2759
(lp2760
g5
ag5
ag5
ag5
ag5
ag5
ag5
ag5
ag5
ag5
ag5
ag5
ag5
ag5
ag5
ag5
ag5
ag5
asS'intr_292'
p2761
(lp2762
g5
ag5
ag5
ag5
ag5
ag5
ag5
ag5
ag5
ag5
ag5
ag5
ag5
ag5
ag5
ag5
ag5
ag5
asS'intr_291'
p2763
(lp2764
g5
ag5
ag5
ag5
ag5
ag5
ag5
ag5
ag5
ag5
ag5
ag5
ag5
ag5
ag5
ag5
ag5
ag5
asS'intr_290'
p2765
(lp2766
g5
ag5
ag5
ag5
ag5
ag5
ag5
ag5
ag5
ag5
ag5
ag5
ag5
ag5
ag5
ag5
ag5
ag5
asS'intr_297'
p2767
(lp2768
g5
ag5
ag5
ag5
ag5
ag5
ag5
ag5
ag5
ag5
ag5
ag5
ag5
ag5
ag5
ag5
ag5
ag5
asS'intr_296'
p2769
(lp2770
g5
ag5
ag5
ag5
ag5
ag5
ag5
ag5
ag5
ag5
ag5
ag5
ag5
ag5
ag5
ag5
ag5
ag5
asS'intr_295'
p2771
(lp2772
g5
ag5
ag5
ag5
ag5
ag5
ag5
ag5
ag5
ag5
ag5
ag5
ag5
ag5
ag5
ag5
ag5
ag5
asS'intr_294'
p2773
(lp2774
g5
ag5
ag5
ag5
ag5
ag5
ag5
ag5
ag5
ag5
ag5
ag5
ag5
ag5
ag5
ag5
ag5
ag5
asS'intr_352'
p2775
(lp2776
g5
ag5
ag5
ag5
ag5
ag5
ag5
ag5
ag5
ag5
ag5
ag5
ag5
ag5
ag5
ag5
ag5
ag5
asS'intr_353'
p2777
(lp2778
g5
ag5
ag5
ag5
ag5
ag5
ag5
ag5
ag5
ag5
ag5
ag5
ag5
ag5
ag5
ag5
ag5
ag5
asS'intr_299'
p2779
(lp2780
g5
ag5
ag5
ag5
ag5
ag5
ag5
ag5
ag5
ag5
ag5
ag5
ag5
ag5
ag5
ag5
ag5
ag5
asS'intr_298'
p2781
(lp2782
g5
ag5
ag5
ag5
ag5
ag5
ag5
ag5
ag5
ag5
ag5
ag5
ag5
ag5
ag5
ag5
ag5
ag5
asS'intr_356'
p2783
(lp2784
g5
ag5
ag5
ag5
ag5
ag5
ag5
ag5
ag5
ag5
ag5
ag5
ag5
ag5
ag5
ag5
ag5
ag5
asS'intr_357'
p2785
(lp2786
g5
ag5
ag5
ag5
ag5
ag5
ag5
ag5
ag5
ag5
ag5
ag5
ag5
ag5
ag5
ag5
ag5
ag5
asS'intr_354'
p2787
(lp2788
g5
ag5
ag5
ag5
ag5
ag5
ag5
ag5
ag5
ag5
ag5
ag5
ag5
ag5
ag5
ag5
ag5
ag5
asS'intr_355'
p2789
(lp2790
g5
ag5
ag5
ag5
ag5
ag5
ag5
ag5
ag5
ag5
ag5
ag5
ag5
ag5
ag5
ag5
ag5
ag5
asS'intr_198'
p2791
(lp2792
g5
ag5
ag5
ag5
ag5
ag5
ag5
ag5
ag5
ag5
ag5
ag5
ag5
ag5
ag5
ag5
ag5
ag5
asS'intr_199'
p2793
(lp2794
g5
ag5
ag5
ag5
ag5
ag5
ag5
ag5
ag5
ag5
ag5
ag5
ag5
ag5
ag5
ag5
ag5
ag5
asS'softirq_9'
p2795
(lp2796
S'1033067'
p2797
aS'1033084'
p2798
aS'1033097'
p2799
aS'1033126'
p2800
aS'1033135'
p2801
aS'1033147'
p2802
aS'1033163'
p2803
aS'1033175'
p2804
aS'1033195'
p2805
aS'1033206'
p2806
aS'1033225'
p2807
aS'1033242'
p2808
aS'1033263'
p2809
aS'1033278'
p2810
aS'1033292'
p2811
aS'1033307'
p2812
aS'1033323'
p2813
aS'1033335'
p2814
asS'softirq_2'
p2815
(lp2816
g5
ag5
ag5
ag5
ag5
ag5
ag5
ag5
ag5
ag5
ag5
ag5
ag5
ag5
ag5
ag5
ag5
ag5
asS'intr_190'
p2817
(lp2818
g5
ag5
ag5
ag5
ag5
ag5
ag5
ag5
ag5
ag5
ag5
ag5
ag5
ag5
ag5
ag5
ag5
ag5
asS'intr_191'
p2819
(lp2820
g5
ag5
ag5
ag5
ag5
ag5
ag5
ag5
ag5
ag5
ag5
ag5
ag5
ag5
ag5
ag5
ag5
ag5
asS'intr_192'
p2821
(lp2822
g5
ag5
ag5
ag5
ag5
ag5
ag5
ag5
ag5
ag5
ag5
ag5
ag5
ag5
ag5
ag5
ag5
ag5
asS'intr_193'
p2823
(lp2824
g5
ag5
ag5
ag5
ag5
ag5
ag5
ag5
ag5
ag5
ag5
ag5
ag5
ag5
ag5
ag5
ag5
ag5
asS'intr_194'
p2825
(lp2826
g5
ag5
ag5
ag5
ag5
ag5
ag5
ag5
ag5
ag5
ag5
ag5
ag5
ag5
ag5
ag5
ag5
ag5
asS'intr_195'
p2827
(lp2828
g5
ag5
ag5
ag5
ag5
ag5
ag5
ag5
ag5
ag5
ag5
ag5
ag5
ag5
ag5
ag5
ag5
ag5
asS'intr_196'
p2829
(lp2830
g5
ag5
ag5
ag5
ag5
ag5
ag5
ag5
ag5
ag5
ag5
ag5
ag5
ag5
ag5
ag5
ag5
ag5
asS'intr_197'
p2831
(lp2832
g5
ag5
ag5
ag5
ag5
ag5
ag5
ag5
ag5
ag5
ag5
ag5
ag5
ag5
ag5
ag5
ag5
ag5
asS'intr_34'
p2833
(lp2834
g5
ag5
ag5
ag5
ag5
ag5
ag5
ag5
ag5
ag5
ag5
ag5
ag5
ag5
ag5
ag5
ag5
ag5
asS'intr_35'
p2835
(lp2836
g5
ag5
ag5
ag5
ag5
ag5
ag5
ag5
ag5
ag5
ag5
ag5
ag5
ag5
ag5
ag5
ag5
ag5
asS'intr_36'
p2837
(lp2838
g5
ag5
ag5
ag5
ag5
ag5
ag5
ag5
ag5
ag5
ag5
ag5
ag5
ag5
ag5
ag5
ag5
ag5
asS'intr_37'
p2839
(lp2840
g5
ag5
ag5
ag5
ag5
ag5
ag5
ag5
ag5
ag5
ag5
ag5
ag5
ag5
ag5
ag5
ag5
ag5
asS'intr_30'
p2841
(lp2842
g5
ag5
ag5
ag5
ag5
ag5
ag5
ag5
ag5
ag5
ag5
ag5
ag5
ag5
ag5
ag5
ag5
ag5
asS'intr_31'
p2843
(lp2844
g5
ag5
ag5
ag5
ag5
ag5
ag5
ag5
ag5
ag5
ag5
ag5
ag5
ag5
ag5
ag5
ag5
ag5
asS'intr_32'
p2845
(lp2846
g5
ag5
ag5
ag5
ag5
ag5
ag5
ag5
ag5
ag5
ag5
ag5
ag5
ag5
ag5
ag5
ag5
ag5
asS'intr_33'
p2847
(lp2848
g5
ag5
ag5
ag5
ag5
ag5
ag5
ag5
ag5
ag5
ag5
ag5
ag5
ag5
ag5
ag5
ag5
ag5
asS'intr_38'
p2849
(lp2850
g5
ag5
ag5
ag5
ag5
ag5
ag5
ag5
ag5
ag5
ag5
ag5
ag5
ag5
ag5
ag5
ag5
ag5
asS'intr_39'
p2851
(lp2852
g5
ag5
ag5
ag5
ag5
ag5
ag5
ag5
ag5
ag5
ag5
ag5
ag5
ag5
ag5
ag5
ag5
ag5
asS'softirq_3'
p2853
(lp2854
S'2125847'
p2855
aS'2125891'
p2856
aS'2125962'
p2857
aS'2126308'
p2858
aS'2126654'
p2859
aS'2127023'
p2860
aS'2127329'
p2861
aS'2127699'
p2862
aS'2128016'
p2863
aS'2128451'
p2864
aS'2128714'
p2865
aS'2129062'
p2866
aS'2129400'
p2867
aS'2129663'
p2868
aS'2130090'
p2869
aS'2130399'
p2870
aS'2130664'
p2871
aS'2131044'
p2872
asS'intr_672'
p2873
(lp2874
g5
ag5
ag5
ag5
ag5
ag5
ag5
ag5
ag5
ag5
ag5
ag5
ag5
ag5
ag5
ag5
ag5
ag5
asS'intr_329'
p2875
(lp2876
g5
ag5
ag5
ag5
ag5
ag5
ag5
ag5
ag5
ag5
ag5
ag5
ag5
ag5
ag5
ag5
ag5
ag5
asS'intr_328'
p2877
(lp2878
g5
ag5
ag5
ag5
ag5
ag5
ag5
ag5
ag5
ag5
ag5
ag5
ag5
ag5
ag5
ag5
ag5
ag5
asS'intr_434'
p2879
(lp2880
g5
ag5
ag5
ag5
ag5
ag5
ag5
ag5
ag5
ag5
ag5
ag5
ag5
ag5
ag5
ag5
ag5
ag5
asS'intr_228'
p2881
(lp2882
g5
ag5
ag5
ag5
ag5
ag5
ag5
ag5
ag5
ag5
ag5
ag5
ag5
ag5
ag5
ag5
ag5
ag5
asS'intr_229'
p2883
(lp2884
g5
ag5
ag5
ag5
ag5
ag5
ag5
ag5
ag5
ag5
ag5
ag5
ag5
ag5
ag5
ag5
ag5
ag5
asS'intr_226'
p2885
(lp2886
g5
ag5
ag5
ag5
ag5
ag5
ag5
ag5
ag5
ag5
ag5
ag5
ag5
ag5
ag5
ag5
ag5
ag5
asS'intr_227'
p2887
(lp2888
g5
ag5
ag5
ag5
ag5
ag5
ag5
ag5
ag5
ag5
ag5
ag5
ag5
ag5
ag5
ag5
ag5
ag5
asS'intr_224'
p2889
(lp2890
g5
ag5
ag5
ag5
ag5
ag5
ag5
ag5
ag5
ag5
ag5
ag5
ag5
ag5
ag5
ag5
ag5
ag5
asS'intr_225'
p2891
(lp2892
g5
ag5
ag5
ag5
ag5
ag5
ag5
ag5
ag5
ag5
ag5
ag5
ag5
ag5
ag5
ag5
ag5
ag5
asS'intr_222'
p2893
(lp2894
g5
ag5
ag5
ag5
ag5
ag5
ag5
ag5
ag5
ag5
ag5
ag5
ag5
ag5
ag5
ag5
ag5
ag5
asS'intr_223'
p2895
(lp2896
g5
ag5
ag5
ag5
ag5
ag5
ag5
ag5
ag5
ag5
ag5
ag5
ag5
ag5
ag5
ag5
ag5
ag5
asS'intr_220'
p2897
(lp2898
g5
ag5
ag5
ag5
ag5
ag5
ag5
ag5
ag5
ag5
ag5
ag5
ag5
ag5
ag5
ag5
ag5
ag5
asS'intr_221'
p2899
(lp2900
g5
ag5
ag5
ag5
ag5
ag5
ag5
ag5
ag5
ag5
ag5
ag5
ag5
ag5
ag5
ag5
ag5
ag5
asS'softirq_1'
p2901
(lp2902
S'5601110'
p2903
aS'5601371'
p2904
aS'5601790'
p2905
aS'5602190'
p2906
aS'5602558'
p2907
aS'5602945'
p2908
aS'5603281'
p2909
aS'5603669'
p2910
aS'5604035'
p2911
aS'5604487'
p2912
aS'5604776'
p2913
aS'5605148'
p2914
aS'5605514'
p2915
aS'5605799'
p2916
aS'5606253'
p2917
aS'5606590'
p2918
aS'5606879'
p2919
aS'5607277'
p2920
asS'intr_635'
p2921
(lp2922
g5
ag5
ag5
ag5
ag5
ag5
ag5
ag5
ag5
ag5
ag5
ag5
ag5
ag5
ag5
ag5
ag5
ag5
asS'intr_634'
p2923
(lp2924
g5
ag5
ag5
ag5
ag5
ag5
ag5
ag5
ag5
ag5
ag5
ag5
ag5
ag5
ag5
ag5
ag5
ag5
asS'intr_637'
p2925
(lp2926
g5
ag5
ag5
ag5
ag5
ag5
ag5
ag5
ag5
ag5
ag5
ag5
ag5
ag5
ag5
ag5
ag5
ag5
asS'intr_636'
p2927
(lp2928
g5
ag5
ag5
ag5
ag5
ag5
ag5
ag5
ag5
ag5
ag5
ag5
ag5
ag5
ag5
ag5
ag5
ag5
asS'intr_631'
p2929
(lp2930
g5
ag5
ag5
ag5
ag5
ag5
ag5
ag5
ag5
ag5
ag5
ag5
ag5
ag5
ag5
ag5
ag5
ag5
asS'intr_630'
p2931
(lp2932
g5
ag5
ag5
ag5
ag5
ag5
ag5
ag5
ag5
ag5
ag5
ag5
ag5
ag5
ag5
ag5
ag5
ag5
asS'intr_633'
p2933
(lp2934
g5
ag5
ag5
ag5
ag5
ag5
ag5
ag5
ag5
ag5
ag5
ag5
ag5
ag5
ag5
ag5
ag5
ag5
asS'intr_632'
p2935
(lp2936
g5
ag5
ag5
ag5
ag5
ag5
ag5
ag5
ag5
ag5
ag5
ag5
ag5
ag5
ag5
ag5
ag5
ag5
asS'intr_734'
p2937
(lp2938
g5
ag5
ag5
ag5
ag5
ag5
ag5
ag5
ag5
ag5
ag5
ag5
ag5
ag5
ag5
ag5
ag5
ag5
asS'intr_327'
p2939
(lp2940
g5
ag5
ag5
ag5
ag5
ag5
ag5
ag5
ag5
ag5
ag5
ag5
ag5
ag5
ag5
ag5
ag5
ag5
asS'intr_736'
p2941
(lp2942
g5
ag5
ag5
ag5
ag5
ag5
ag5
ag5
ag5
ag5
ag5
ag5
ag5
ag5
ag5
ag5
ag5
ag5
asS'intr_737'
p2943
(lp2944
g5
ag5
ag5
ag5
ag5
ag5
ag5
ag5
ag5
ag5
ag5
ag5
ag5
ag5
ag5
ag5
ag5
ag5
asS'intr_639'
p2945
(lp2946
g5
ag5
ag5
ag5
ag5
ag5
ag5
ag5
ag5
ag5
ag5
ag5
ag5
ag5
ag5
ag5
ag5
ag5
asS'intr_638'
p2947
(lp2948
g5
ag5
ag5
ag5
ag5
ag5
ag5
ag5
ag5
ag5
ag5
ag5
ag5
ag5
ag5
ag5
ag5
ag5
asS'intr_732'
p2949
(lp2950
g5
ag5
ag5
ag5
ag5
ag5
ag5
ag5
ag5
ag5
ag5
ag5
ag5
ag5
ag5
ag5
ag5
ag5
asS'intr_326'
p2951
(lp2952
g5
ag5
ag5
ag5
ag5
ag5
ag5
ag5
ag5
ag5
ag5
ag5
ag5
ag5
ag5
ag5
ag5
ag5
asS'softirq_6'
p2953
(lp2954
S'587080'
p2955
aS'587190'
p2956
aS'587440'
p2957
aS'587448'
p2958
aS'587448'
p2959
aS'587448'
p2960
aS'587448'
p2961
aS'587448'
p2962
aS'587450'
p2963
aS'587450'
p2964
aS'587450'
p2965
aS'587450'
p2966
aS'587450'
p2967
aS'587451'
p2968
aS'587451'
p2969
aS'587451'
p2970
aS'587451'
p2971
aS'587451'
p2972
asS'intr_740'
p2973
(lp2974
g5
ag5
ag5
ag5
ag5
ag5
ag5
ag5
ag5
ag5
ag5
ag5
ag5
ag5
ag5
ag5
ag5
ag5
asS'intr_743'
p2975
(lp2976
g5
ag5
ag5
ag5
ag5
ag5
ag5
ag5
ag5
ag5
ag5
ag5
ag5
ag5
ag5
ag5
ag5
ag5
asS'intr_129'
p2977
(lp2978
g5
ag5
ag5
ag5
ag5
ag5
ag5
ag5
ag5
ag5
ag5
ag5
ag5
ag5
ag5
ag5
ag5
ag5
asS'intr_128'
p2979
(lp2980
g5
ag5
ag5
ag5
ag5
ag5
ag5
ag5
ag5
ag5
ag5
ag5
ag5
ag5
ag5
ag5
ag5
ag5
asS'intr_742'
p2981
(lp2982
g5
ag5
ag5
ag5
ag5
ag5
ag5
ag5
ag5
ag5
ag5
ag5
ag5
ag5
ag5
ag5
ag5
ag5
asS'intr_121'
p2983
(lp2984
g5
ag5
ag5
ag5
ag5
ag5
ag5
ag5
ag5
ag5
ag5
ag5
ag5
ag5
ag5
ag5
ag5
ag5
asS'intr_120'
p2985
(lp2986
g5
ag5
ag5
ag5
ag5
ag5
ag5
ag5
ag5
ag5
ag5
ag5
ag5
ag5
ag5
ag5
ag5
ag5
asS'intr_123'
p2987
(lp2988
g5
ag5
ag5
ag5
ag5
ag5
ag5
ag5
ag5
ag5
ag5
ag5
ag5
ag5
ag5
ag5
ag5
ag5
asS'intr_122'
p2989
(lp2990
g5
ag5
ag5
ag5
ag5
ag5
ag5
ag5
ag5
ag5
ag5
ag5
ag5
ag5
ag5
ag5
ag5
ag5
asS'intr_125'
p2991
(lp2992
g5
ag5
ag5
ag5
ag5
ag5
ag5
ag5
ag5
ag5
ag5
ag5
ag5
ag5
ag5
ag5
ag5
ag5
asS'intr_124'
p2993
(lp2994
g5
ag5
ag5
ag5
ag5
ag5
ag5
ag5
ag5
ag5
ag5
ag5
ag5
ag5
ag5
ag5
ag5
ag5
asS'intr_127'
p2995
(lp2996
g5
ag5
ag5
ag5
ag5
ag5
ag5
ag5
ag5
ag5
ag5
ag5
ag5
ag5
ag5
ag5
ag5
ag5
asS'intr_126'
p2997
(lp2998
g5
ag5
ag5
ag5
ag5
ag5
ag5
ag5
ag5
ag5
ag5
ag5
ag5
ag5
ag5
ag5
ag5
ag5
asS'intr_640'
p2999
(lp3000
g5
ag5
ag5
ag5
ag5
ag5
ag5
ag5
ag5
ag5
ag5
ag5
ag5
ag5
ag5
ag5
ag5
ag5
asS'intr_641'
p3001
(lp3002
g5
ag5
ag5
ag5
ag5
ag5
ag5
ag5
ag5
ag5
ag5
ag5
ag5
ag5
ag5
ag5
ag5
ag5
asS'intr_642'
p3003
(lp3004
g5
ag5
ag5
ag5
ag5
ag5
ag5
ag5
ag5
ag5
ag5
ag5
ag5
ag5
ag5
ag5
ag5
ag5
asS'intr_377'
p3005
(lp3006
g5
ag5
ag5
ag5
ag5
ag5
ag5
ag5
ag5
ag5
ag5
ag5
ag5
ag5
ag5
ag5
ag5
ag5
asS'intr_558'
p3007
(lp3008
g5
ag5
ag5
ag5
ag5
ag5
ag5
ag5
ag5
ag5
ag5
ag5
ag5
ag5
ag5
ag5
ag5
ag5
asS'intr_645'
p3009
(lp3010
g5
ag5
ag5
ag5
ag5
ag5
ag5
ag5
ag5
ag5
ag5
ag5
ag5
ag5
ag5
ag5
ag5
ag5
asS'intr_646'
p3011
(lp3012
g5
ag5
ag5
ag5
ag5
ag5
ag5
ag5
ag5
ag5
ag5
ag5
ag5
ag5
ag5
ag5
ag5
ag5
asS'intr_647'
p3013
(lp3014
g5
ag5
ag5
ag5
ag5
ag5
ag5
ag5
ag5
ag5
ag5
ag5
ag5
ag5
ag5
ag5
ag5
ag5
asS'intr_648'
p3015
(lp3016
g5
ag5
ag5
ag5
ag5
ag5
ag5
ag5
ag5
ag5
ag5
ag5
ag5
ag5
ag5
ag5
ag5
ag5
asS'intr_649'
p3017
(lp3018
g5
ag5
ag5
ag5
ag5
ag5
ag5
ag5
ag5
ag5
ag5
ag5
ag5
ag5
ag5
ag5
ag5
ag5
asS'softirq_8'
p3019
(lp3020
S'16'
p3021
aS'16'
p3022
aS'16'
p3023
aS'16'
p3024
aS'16'
p3025
aS'16'
p3026
aS'16'
p3027
aS'16'
p3028
aS'16'
p3029
aS'16'
p3030
aS'16'
p3031
aS'16'
p3032
aS'16'
p3033
aS'16'
p3034
aS'16'
p3035
aS'16'
p3036
aS'16'
p3037
aS'16'
p3038
asS'intr_746'
p3039
(lp3040
g5
ag5
ag5
ag5
ag5
ag5
ag5
ag5
ag5
ag5
ag5
ag5
ag5
ag5
ag5
ag5
ag5
ag5
asS'cpu0_10'
p3041
(lp3042
g5
ag5
ag5
ag5
ag5
ag5
ag5
ag5
ag5
ag5
ag5
ag5
ag5
ag5
ag5
ag5
ag5
ag5
asS'intr_423'
p3043
(lp3044
g5
ag5
ag5
ag5
ag5
ag5
ag5
ag5
ag5
ag5
ag5
ag5
ag5
ag5
ag5
ag5
ag5
ag5
ass.