(dp0
S'mem'
p1
(dp2
S'WritebackTmp'
p3
(lp4
S'0'
p5
ag5
ag5
ag5
ag5
ag5
ag5
ag5
ag5
ag5
ag5
ag5
ag5
ag5
ag5
ag5
ag5
asS'SwapTotal'
p6
(lp7
S'1046524'
p8
aS'1046524'
p9
aS'1046524'
p10
aS'1046524'
p11
aS'1046524'
p12
aS'1046524'
p13
aS'1046524'
p14
aS'1046524'
p15
aS'1046524'
p16
aS'1046524'
p17
aS'1046524'
p18
aS'1046524'
p19
aS'1046524'
p20
aS'1046524'
p21
aS'1046524'
p22
aS'1046524'
p23
aS'1046524'
p24
asS'Active(anon)'
p25
(lp26
S'5552'
p27
aS'9920'
p28
aS'66892'
p29
aS'306956'
p30
aS'595384'
p31
aS'720232'
p32
aS'943576'
p33
aS'950784'
p34
aS'1081648'
p35
aS'1096352'
p36
aS'1419560'
p37
aS'1512664'
p38
aS'1512836'
p39
aS'1513980'
p40
aS'1797300'
p41
aS'1797284'
p42
aS'1798528'
p43
asS'SwapFree'
p44
(lp45
S'979188'
p46
aS'979188'
p47
aS'979188'
p48
aS'979188'
p49
aS'979188'
p50
aS'979188'
p51
aS'979188'
p52
aS'979188'
p53
aS'979188'
p54
aS'979188'
p55
aS'979188'
p56
aS'979188'
p57
aS'979188'
p58
aS'979188'
p59
aS'979188'
p60
aS'979188'
p61
aS'979188'
p62
asS'DirectMap4k'
p63
(lp64
S'38848'
p65
aS'38848'
p66
aS'38848'
p67
aS'38848'
p68
aS'38848'
p69
aS'38848'
p70
aS'38848'
p71
aS'38848'
p72
aS'38848'
p73
aS'38848'
p74
aS'38848'
p75
aS'38848'
p76
aS'38848'
p77
aS'38848'
p78
aS'38848'
p79
aS'38848'
p80
aS'38848'
p81
asS'KernelStack'
p82
(lp83
S'1256'
p84
aS'1256'
p85
aS'1360'
p86
aS'1360'
p87
aS'1360'
p88
aS'1360'
p89
aS'1360'
p90
aS'1360'
p91
aS'1360'
p92
aS'1360'
p93
aS'1360'
p94
aS'1360'
p95
aS'1360'
p96
aS'1360'
p97
aS'1360'
p98
aS'1360'
p99
aS'1360'
p100
asS'MemFree'
p101
(lp102
S'3727800'
p103
aS'3710516'
p104
aS'3649468'
p105
aS'3408908'
p106
aS'3120112'
p107
aS'2994872'
p108
aS'2770928'
p109
aS'2763984'
p110
aS'2632792'
p111
aS'2618160'
p112
aS'2294164'
p113
aS'2200916'
p114
aS'2200916'
p115
aS'2199676'
p116
aS'1915964'
p117
aS'1915964'
p118
aS'1914724'
p119
asS'HugePages_Rsvd'
p120
(lp121
g5
ag5
ag5
ag5
ag5
ag5
ag5
ag5
ag5
ag5
ag5
ag5
ag5
ag5
ag5
ag5
ag5
asS'Committed_AS'
p122
(lp123
S'195216'
p124
aS'291204'
p125
aS'314824'
p126
aS'653184'
p127
aS'899456'
p128
aS'1101576'
p129
aS'1257676'
p130
aS'1410756'
p131
aS'1409092'
p132
aS'1593324'
p133
aS'1750972'
p134
aS'1783204'
p135
aS'1783204'
p136
aS'2022376'
p137
aS'2136932'
p138
aS'2136932'
p139
aS'2455572'
p140
asS'Active(file)'
p141
(lp142
S'150492'
p143
aS'150672'
p144
aS'151104'
p145
aS'151144'
p146
aS'151144'
p147
aS'151144'
p148
aS'151144'
p149
aS'151144'
p150
aS'151144'
p151
aS'151144'
p152
aS'151144'
p153
aS'151144'
p154
aS'151144'
p155
aS'151144'
p156
aS'151144'
p157
aS'151144'
p158
aS'151144'
p159
asS'NFS_Unstable'
p160
(lp161
g5
ag5
ag5
ag5
ag5
ag5
ag5
ag5
ag5
ag5
ag5
ag5
ag5
ag5
ag5
ag5
ag5
asS'VmallocChunk'
p162
(lp163
S'34359713404'
p164
aS'34359713404'
p165
aS'34359713404'
p166
aS'34359713404'
p167
aS'34359713404'
p168
aS'34359713404'
p169
aS'34359713404'
p170
aS'34359713404'
p171
aS'34359713404'
p172
aS'34359713404'
p173
aS'34359713404'
p174
aS'34359713404'
p175
aS'34359713404'
p176
aS'34359713404'
p177
aS'34359713404'
p178
aS'34359713404'
p179
aS'34359713404'
p180
asS'Writeback'
p181
(lp182
g5
ag5
ag5
ag5
ag5
ag5
ag5
ag5
ag5
ag5
ag5
ag5
ag5
ag5
ag5
ag5
ag5
asS'Inactive(file)'
p183
(lp184
S'30408'
p185
aS'42612'
p186
aS'46112'
p187
aS'46116'
p188
aS'46156'
p189
aS'46156'
p190
aS'46164'
p191
aS'46164'
p192
aS'46264'
p193
aS'46292'
p194
aS'46292'
p195
aS'46292'
p196
aS'46292'
p197
aS'46292'
p198
aS'46292'
p199
aS'46292'
p200
aS'46300'
p201
asS'MemTotal'
p202
(lp203
S'4055496'
p204
aS'4055496'
p205
aS'4055496'
p206
aS'4055496'
p207
aS'4055496'
p208
aS'4055496'
p209
aS'4055496'
p210
aS'4055496'
p211
aS'4055496'
p212
aS'4055496'
p213
aS'4055496'
p214
aS'4055496'
p215
aS'4055496'
p216
aS'4055496'
p217
aS'4055496'
p218
aS'4055496'
p219
aS'4055496'
p220
asS'VmallocUsed'
p221
(lp222
S'21480'
p223
aS'21480'
p224
aS'21480'
p225
aS'21480'
p226
aS'21480'
p227
aS'21480'
p228
aS'21480'
p229
aS'21480'
p230
aS'21480'
p231
aS'21480'
p232
aS'21480'
p233
aS'21480'
p234
aS'21480'
p235
aS'21480'
p236
aS'21480'
p237
aS'21480'
p238
aS'21480'
p239
asS'HugePages_Free'
p240
(lp241
g5
ag5
ag5
ag5
ag5
ag5
ag5
ag5
ag5
ag5
ag5
ag5
ag5
ag5
ag5
ag5
ag5
asS'AnonHugePages'
p242
(lp243
g5
ag5
ag5
ag5
ag5
ag5
ag5
ag5
ag5
ag5
ag5
ag5
ag5
ag5
ag5
ag5
ag5
asS'AnonPages'
p244
(lp245
S'13412'
p246
aS'17816'
p247
aS'74748'
p248
aS'314992'
p249
aS'603184'
p250
aS'728124'
p251
aS'951436'
p252
aS'958688'
p253
aS'1089684'
p254
aS'1104288'
p255
aS'1427452'
p256
aS'1520500'
p257
aS'1520704'
p258
aS'1521820'
p259
aS'1805124'
p260
aS'1805084'
p261
aS'1806332'
p262
asS'Active'
p263
(lp264
S'156044'
p265
aS'160592'
p266
aS'217996'
p267
aS'458100'
p268
aS'746528'
p269
aS'871376'
p270
aS'1094720'
p271
aS'1101928'
p272
aS'1232792'
p273
aS'1247496'
p274
aS'1570704'
p275
aS'1663808'
p276
aS'1663980'
p277
aS'1665124'
p278
aS'1948444'
p279
aS'1948428'
p280
aS'1949672'
p281
asS'Inactive(anon)'
p282
(lp283
S'58652'
p284
aS'58652'
p285
aS'58652'
p286
aS'58652'
p287
aS'58652'
p288
aS'58652'
p289
aS'58652'
p290
aS'58652'
p291
aS'58652'
p292
aS'58652'
p293
aS'58652'
p294
aS'58652'
p295
aS'58652'
p296
aS'58652'
p297
aS'58652'
p298
aS'58652'
p299
aS'58652'
p300
asS'CommitLimit'
p301
(lp302
S'3074272'
p303
aS'3074272'
p304
aS'3074272'
p305
aS'3074272'
p306
aS'3074272'
p307
aS'3074272'
p308
aS'3074272'
p309
aS'3074272'
p310
aS'3074272'
p311
aS'3074272'
p312
aS'3074272'
p313
aS'3074272'
p314
aS'3074272'
p315
aS'3074272'
p316
aS'3074272'
p317
aS'3074272'
p318
aS'3074272'
p319
asS'Hugepagesize'
p320
(lp321
S'2048'
p322
aS'2048'
p323
aS'2048'
p324
aS'2048'
p325
aS'2048'
p326
aS'2048'
p327
aS'2048'
p328
aS'2048'
p329
aS'2048'
p330
aS'2048'
p331
aS'2048'
p332
aS'2048'
p333
aS'2048'
p334
aS'2048'
p335
aS'2048'
p336
aS'2048'
p337
aS'2048'
p338
asS'Cached'
p339
(lp340
S'178236'
p341
aS'190564'
p342
aS'194412'
p343
aS'194380'
p344
aS'194456'
p345
aS'194448'
p346
aS'194456'
p347
aS'194456'
p348
aS'194604'
p349
aS'194584'
p350
aS'194584'
p351
aS'194584'
p352
aS'194584'
p353
aS'194584'
p354
aS'194576'
p355
aS'194576'
p356
aS'194584'
p357
asS'SwapCached'
p358
(lp359
S'53688'
p360
aS'53688'
p361
aS'53688'
p362
aS'53688'
p363
aS'53688'
p364
aS'53688'
p365
aS'53688'
p366
aS'53688'
p367
aS'53688'
p368
aS'53688'
p369
aS'53688'
p370
aS'53688'
p371
aS'53688'
p372
aS'53688'
p373
aS'53688'
p374
aS'53688'
p375
aS'53688'
p376
asS'VmallocTotal'
p377
(lp378
S'34359738367'
p379
aS'34359738367'
p380
aS'34359738367'
p381
aS'34359738367'
p382
aS'34359738367'
p383
aS'34359738367'
p384
aS'34359738367'
p385
aS'34359738367'
p386
aS'34359738367'
p387
aS'34359738367'
p388
aS'34359738367'
p389
aS'34359738367'
p390
aS'34359738367'
p391
aS'34359738367'
p392
aS'34359738367'
p393
aS'34359738367'
p394
aS'34359738367'
p395
asS'Shmem'
p396
(lp397
S'24'
p398
aS'24'
p399
aS'24'
p400
aS'24'
p401
aS'24'
p402
aS'24'
p403
aS'24'
p404
aS'24'
p405
aS'24'
p406
aS'24'
p407
aS'24'
p408
aS'24'
p409
aS'24'
p410
aS'24'
p411
aS'24'
p412
aS'24'
p413
aS'24'
p414
asS'Mapped'
p415
(lp416
S'5216'
p417
aS'11544'
p418
aS'14268'
p419
aS'14368'
p420
aS'14468'
p421
aS'14468'
p422
aS'14480'
p423
aS'14480'
p424
aS'14480'
p425
aS'14484'
p426
aS'14484'
p427
aS'14488'
p428
aS'14524'
p429
aS'14524'
p430
aS'14524'
p431
aS'14524'
p432
aS'14524'
p433
asS'SUnreclaim'
p434
(lp435
S'11360'
p436
aS'11360'
p437
aS'11360'
p438
aS'11360'
p439
aS'11360'
p440
aS'11360'
p441
aS'11360'
p442
aS'11360'
p443
aS'11360'
p444
aS'11360'
p445
aS'11360'
p446
aS'11360'
p447
aS'11360'
p448
aS'11360'
p449
aS'11360'
p450
aS'11360'
p451
aS'11360'
p452
asS'Unevictable'
p453
(lp454
g5
ag5
ag5
ag5
ag5
ag5
ag5
ag5
ag5
ag5
ag5
ag5
ag5
ag5
ag5
ag5
ag5
asS'SReclaimable'
p455
(lp456
S'9752'
p457
aS'9752'
p458
aS'9752'
p459
aS'9752'
p460
aS'9752'
p461
aS'9752'
p462
aS'9752'
p463
aS'9752'
p464
aS'9752'
p465
aS'9752'
p466
aS'9752'
p467
aS'9752'
p468
aS'9736'
p469
aS'9736'
p470
aS'9736'
p471
aS'9736'
p472
aS'9736'
p473
asS'Mlocked'
p474
(lp475
g5
ag5
ag5
ag5
ag5
ag5
ag5
ag5
ag5
ag5
ag5
ag5
ag5
ag5
ag5
ag5
ag5
asS'DirectMap2M'
p476
(lp477
S'4155392'
p478
aS'4155392'
p479
aS'4155392'
p480
aS'4155392'
p481
aS'4155392'
p482
aS'4155392'
p483
aS'4155392'
p484
aS'4155392'
p485
aS'4155392'
p486
aS'4155392'
p487
aS'4155392'
p488
aS'4155392'
p489
aS'4155392'
p490
aS'4155392'
p491
aS'4155392'
p492
aS'4155392'
p493
aS'4155392'
p494
asS'HugePages_Surp'
p495
(lp496
g5
ag5
ag5
ag5
ag5
ag5
ag5
ag5
ag5
ag5
ag5
ag5
ag5
ag5
ag5
ag5
ag5
asS'Bounce'
p497
(lp498
g5
ag5
ag5
ag5
ag5
ag5
ag5
ag5
ag5
ag5
ag5
ag5
ag5
ag5
ag5
ag5
ag5
asS'Inactive'
p499
(lp500
S'89060'
p501
aS'101264'
p502
aS'104764'
p503
aS'104768'
p504
aS'104808'
p505
aS'104808'
p506
aS'104816'
p507
aS'104816'
p508
aS'104916'
p509
aS'104944'
p510
aS'104944'
p511
aS'104944'
p512
aS'104944'
p513
aS'104944'
p514
aS'104944'
p515
aS'104944'
p516
aS'104952'
p517
asS'PageTables'
p518
(lp519
S'3608'
p520
aS'3736'
p521
aS'3856'
p522
aS'4372'
p523
aS'4820'
p524
aS'5164'
p525
aS'5544'
p526
aS'5588'
p527
aS'5708'
p528
aS'5864'
p529
aS'6484'
p530
aS'6640'
p531
aS'6704'
p532
aS'6704'
p533
aS'7180'
p534
aS'7264'
p535
aS'7260'
p536
asS'HardwareCorrupted'
p537
(lp538
g5
ag5
ag5
ag5
ag5
ag5
ag5
ag5
ag5
ag5
ag5
ag5
ag5
ag5
ag5
ag5
ag5
asS'HugePages_Total'
p539
(lp540
g5
ag5
ag5
ag5
ag5
ag5
ag5
ag5
ag5
ag5
ag5
ag5
ag5
ag5
ag5
ag5
ag5
asS'Slab'
p541
(lp542
S'21112'
p543
aS'21112'
p544
aS'21112'
p545
aS'21112'
p546
aS'21112'
p547
aS'21112'
p548
aS'21112'
p549
aS'21112'
p550
aS'21112'
p551
aS'21112'
p552
aS'21112'
p553
aS'21112'
p554
aS'21096'
p555
aS'21096'
p556
aS'21096'
p557
aS'21096'
p558
aS'21096'
p559
asS'Buffers'
p560
(lp561
S'2688'
p562
aS'2864'
p563
aS'2868'
p564
aS'2868'
p565
aS'2868'
p566
aS'2876'
p567
aS'2876'
p568
aS'2876'
p569
aS'2876'
p570
aS'2876'
p571
aS'2876'
p572
aS'2876'
p573
aS'2876'
p574
aS'2876'
p575
aS'2884'
p576
aS'2884'
p577
aS'2884'
p578
asS'Dirty'
p579
(lp580
S'296'
p581
aS'296'
p582
aS'328'
p583
aS'328'
p584
aS'256'
p585
aS'256'
p586
aS'280'
p587
aS'280'
p588
aS'280'
p589
aS'228'
p590
aS'228'
p591
aS'228'
p592
aS'228'
p593
aS'228'
p594
aS'228'
p595
aS'228'
p596
aS'228'
p597
assS'cpu'
p598
(dp599
S'intr_396'
p600
(lp601
g5
ag5
ag5
ag5
ag5
ag5
ag5
ag5
ag5
ag5
ag5
ag5
ag5
ag5
ag5
ag5
ag5
asS'intr_397'
p602
(lp603
g5
ag5
ag5
ag5
ag5
ag5
ag5
ag5
ag5
ag5
ag5
ag5
ag5
ag5
ag5
ag5
ag5
asS'intr_394'
p604
(lp605
g5
ag5
ag5
ag5
ag5
ag5
ag5
ag5
ag5
ag5
ag5
ag5
ag5
ag5
ag5
ag5
ag5
asS'intr_395'
p606
(lp607
g5
ag5
ag5
ag5
ag5
ag5
ag5
ag5
ag5
ag5
ag5
ag5
ag5
ag5
ag5
ag5
ag5
asS'intr_392'
p608
(lp609
g5
ag5
ag5
ag5
ag5
ag5
ag5
ag5
ag5
ag5
ag5
ag5
ag5
ag5
ag5
ag5
ag5
asS'intr_393'
p610
(lp611
g5
ag5
ag5
ag5
ag5
ag5
ag5
ag5
ag5
ag5
ag5
ag5
ag5
ag5
ag5
ag5
ag5
asS'intr_390'
p612
(lp613
g5
ag5
ag5
ag5
ag5
ag5
ag5
ag5
ag5
ag5
ag5
ag5
ag5
ag5
ag5
ag5
ag5
asS'intr_391'
p614
(lp615
g5
ag5
ag5
ag5
ag5
ag5
ag5
ag5
ag5
ag5
ag5
ag5
ag5
ag5
ag5
ag5
ag5
asS'intr_543'
p616
(lp617
g5
ag5
ag5
ag5
ag5
ag5
ag5
ag5
ag5
ag5
ag5
ag5
ag5
ag5
ag5
ag5
ag5
asS'intr_542'
p618
(lp619
g5
ag5
ag5
ag5
ag5
ag5
ag5
ag5
ag5
ag5
ag5
ag5
ag5
ag5
ag5
ag5
ag5
asS'intr_541'
p620
(lp621
g5
ag5
ag5
ag5
ag5
ag5
ag5
ag5
ag5
ag5
ag5
ag5
ag5
ag5
ag5
ag5
ag5
asS'intr_540'
p622
(lp623
g5
ag5
ag5
ag5
ag5
ag5
ag5
ag5
ag5
ag5
ag5
ag5
ag5
ag5
ag5
ag5
ag5
asS'intr_468'
p624
(lp625
g5
ag5
ag5
ag5
ag5
ag5
ag5
ag5
ag5
ag5
ag5
ag5
ag5
ag5
ag5
ag5
ag5
asS'intr_431'
p626
(lp627
g5
ag5
ag5
ag5
ag5
ag5
ag5
ag5
ag5
ag5
ag5
ag5
ag5
ag5
ag5
ag5
ag5
asS'intr_398'
p628
(lp629
g5
ag5
ag5
ag5
ag5
ag5
ag5
ag5
ag5
ag5
ag5
ag5
ag5
ag5
ag5
ag5
ag5
asS'intr_399'
p630
(lp631
g5
ag5
ag5
ag5
ag5
ag5
ag5
ag5
ag5
ag5
ag5
ag5
ag5
ag5
ag5
ag5
ag5
asS'intr_430'
p632
(lp633
g5
ag5
ag5
ag5
ag5
ag5
ag5
ag5
ag5
ag5
ag5
ag5
ag5
ag5
ag5
ag5
ag5
asS'intr_437'
p634
(lp635
g5
ag5
ag5
ag5
ag5
ag5
ag5
ag5
ag5
ag5
ag5
ag5
ag5
ag5
ag5
ag5
ag5
asS'intr_436'
p636
(lp637
g5
ag5
ag5
ag5
ag5
ag5
ag5
ag5
ag5
ag5
ag5
ag5
ag5
ag5
ag5
ag5
ag5
asS'intr_78'
p638
(lp639
g5
ag5
ag5
ag5
ag5
ag5
ag5
ag5
ag5
ag5
ag5
ag5
ag5
ag5
ag5
ag5
ag5
asS'intr_79'
p640
(lp641
g5
ag5
ag5
ag5
ag5
ag5
ag5
ag5
ag5
ag5
ag5
ag5
ag5
ag5
ag5
ag5
ag5
asS'intr_435'
p642
(lp643
g5
ag5
ag5
ag5
ag5
ag5
ag5
ag5
ag5
ag5
ag5
ag5
ag5
ag5
ag5
ag5
ag5
asS'intr_70'
p644
(lp645
g5
ag5
ag5
ag5
ag5
ag5
ag5
ag5
ag5
ag5
ag5
ag5
ag5
ag5
ag5
ag5
ag5
asS'intr_71'
p646
(lp647
g5
ag5
ag5
ag5
ag5
ag5
ag5
ag5
ag5
ag5
ag5
ag5
ag5
ag5
ag5
ag5
ag5
asS'intr_72'
p648
(lp649
g5
ag5
ag5
ag5
ag5
ag5
ag5
ag5
ag5
ag5
ag5
ag5
ag5
ag5
ag5
ag5
ag5
asS'intr_73'
p650
(lp651
g5
ag5
ag5
ag5
ag5
ag5
ag5
ag5
ag5
ag5
ag5
ag5
ag5
ag5
ag5
ag5
ag5
asS'intr_74'
p652
(lp653
g5
ag5
ag5
ag5
ag5
ag5
ag5
ag5
ag5
ag5
ag5
ag5
ag5
ag5
ag5
ag5
ag5
asS'intr_75'
p654
(lp655
g5
ag5
ag5
ag5
ag5
ag5
ag5
ag5
ag5
ag5
ag5
ag5
ag5
ag5
ag5
ag5
ag5
asS'intr_76'
p656
(lp657
g5
ag5
ag5
ag5
ag5
ag5
ag5
ag5
ag5
ag5
ag5
ag5
ag5
ag5
ag5
ag5
ag5
asS'intr_77'
p658
(lp659
g5
ag5
ag5
ag5
ag5
ag5
ag5
ag5
ag5
ag5
ag5
ag5
ag5
ag5
ag5
ag5
ag5
asS'intr_268'
p660
(lp661
g5
ag5
ag5
ag5
ag5
ag5
ag5
ag5
ag5
ag5
ag5
ag5
ag5
ag5
ag5
ag5
ag5
asS'intr_269'
p662
(lp663
g5
ag5
ag5
ag5
ag5
ag5
ag5
ag5
ag5
ag5
ag5
ag5
ag5
ag5
ag5
ag5
ag5
asS'intr_262'
p664
(lp665
g5
ag5
ag5
ag5
ag5
ag5
ag5
ag5
ag5
ag5
ag5
ag5
ag5
ag5
ag5
ag5
ag5
asS'intr_263'
p666
(lp667
g5
ag5
ag5
ag5
ag5
ag5
ag5
ag5
ag5
ag5
ag5
ag5
ag5
ag5
ag5
ag5
ag5
asS'intr_260'
p668
(lp669
g5
ag5
ag5
ag5
ag5
ag5
ag5
ag5
ag5
ag5
ag5
ag5
ag5
ag5
ag5
ag5
ag5
asS'intr_261'
p670
(lp671
g5
ag5
ag5
ag5
ag5
ag5
ag5
ag5
ag5
ag5
ag5
ag5
ag5
ag5
ag5
ag5
ag5
asS'intr_266'
p672
(lp673
g5
ag5
ag5
ag5
ag5
ag5
ag5
ag5
ag5
ag5
ag5
ag5
ag5
ag5
ag5
ag5
ag5
asS'intr_267'
p674
(lp675
g5
ag5
ag5
ag5
ag5
ag5
ag5
ag5
ag5
ag5
ag5
ag5
ag5
ag5
ag5
ag5
ag5
asS'intr_264'
p676
(lp677
g5
ag5
ag5
ag5
ag5
ag5
ag5
ag5
ag5
ag5
ag5
ag5
ag5
ag5
ag5
ag5
ag5
asS'intr_265'
p678
(lp679
g5
ag5
ag5
ag5
ag5
ag5
ag5
ag5
ag5
ag5
ag5
ag5
ag5
ag5
ag5
ag5
ag5
asS'intr_301'
p680
(lp681
g5
ag5
ag5
ag5
ag5
ag5
ag5
ag5
ag5
ag5
ag5
ag5
ag5
ag5
ag5
ag5
ag5
asS'intr_300'
p682
(lp683
g5
ag5
ag5
ag5
ag5
ag5
ag5
ag5
ag5
ag5
ag5
ag5
ag5
ag5
ag5
ag5
ag5
asS'intr_303'
p684
(lp685
g5
ag5
ag5
ag5
ag5
ag5
ag5
ag5
ag5
ag5
ag5
ag5
ag5
ag5
ag5
ag5
ag5
asS'intr_302'
p686
(lp687
g5
ag5
ag5
ag5
ag5
ag5
ag5
ag5
ag5
ag5
ag5
ag5
ag5
ag5
ag5
ag5
ag5
asS'intr_305'
p688
(lp689
g5
ag5
ag5
ag5
ag5
ag5
ag5
ag5
ag5
ag5
ag5
ag5
ag5
ag5
ag5
ag5
ag5
asS'intr_304'
p690
(lp691
g5
ag5
ag5
ag5
ag5
ag5
ag5
ag5
ag5
ag5
ag5
ag5
ag5
ag5
ag5
ag5
ag5
asS'intr_307'
p692
(lp693
g5
ag5
ag5
ag5
ag5
ag5
ag5
ag5
ag5
ag5
ag5
ag5
ag5
ag5
ag5
ag5
ag5
asS'intr_306'
p694
(lp695
g5
ag5
ag5
ag5
ag5
ag5
ag5
ag5
ag5
ag5
ag5
ag5
ag5
ag5
ag5
ag5
ag5
asS'intr_309'
p696
(lp697
g5
ag5
ag5
ag5
ag5
ag5
ag5
ag5
ag5
ag5
ag5
ag5
ag5
ag5
ag5
ag5
ag5
asS'intr_308'
p698
(lp699
g5
ag5
ag5
ag5
ag5
ag5
ag5
ag5
ag5
ag5
ag5
ag5
ag5
ag5
ag5
ag5
ag5
asS'intr_466'
p700
(lp701
g5
ag5
ag5
ag5
ag5
ag5
ag5
ag5
ag5
ag5
ag5
ag5
ag5
ag5
ag5
ag5
ag5
asS'intr_492'
p702
(lp703
g5
ag5
ag5
ag5
ag5
ag5
ag5
ag5
ag5
ag5
ag5
ag5
ag5
ag5
ag5
ag5
ag5
asS'intr_467'
p704
(lp705
g5
ag5
ag5
ag5
ag5
ag5
ag5
ag5
ag5
ag5
ag5
ag5
ag5
ag5
ag5
ag5
ag5
asS'intr_460'
p706
(lp707
g5
ag5
ag5
ag5
ag5
ag5
ag5
ag5
ag5
ag5
ag5
ag5
ag5
ag5
ag5
ag5
ag5
asS'intr_461'
p708
(lp709
g5
ag5
ag5
ag5
ag5
ag5
ag5
ag5
ag5
ag5
ag5
ag5
ag5
ag5
ag5
ag5
ag5
asS'intr_462'
p710
(lp711
g5
ag5
ag5
ag5
ag5
ag5
ag5
ag5
ag5
ag5
ag5
ag5
ag5
ag5
ag5
ag5
ag5
asS'cpu1_10'
p712
(lp713
g5
ag5
ag5
ag5
ag5
ag5
ag5
ag5
ag5
ag5
ag5
ag5
ag5
ag5
ag5
ag5
ag5
asS'cpu_10'
p714
(lp715
g5
ag5
ag5
ag5
ag5
ag5
ag5
ag5
ag5
ag5
ag5
ag5
ag5
ag5
ag5
ag5
ag5
asS'intr_463'
p716
(lp717
g5
ag5
ag5
ag5
ag5
ag5
ag5
ag5
ag5
ag5
ag5
ag5
ag5
ag5
ag5
ag5
ag5
asS'intr_495'
p718
(lp719
g5
ag5
ag5
ag5
ag5
ag5
ag5
ag5
ag5
ag5
ag5
ag5
ag5
ag5
ag5
ag5
ag5
asS'intr_790'
p720
(lp721
g5
ag5
ag5
ag5
ag5
ag5
ag5
ag5
ag5
ag5
ag5
ag5
ag5
ag5
ag5
ag5
ag5
asS'intr_547'
p722
(lp723
g5
ag5
ag5
ag5
ag5
ag5
ag5
ag5
ag5
ag5
ag5
ag5
ag5
ag5
ag5
ag5
ag5
asS'intr_494'
p724
(lp725
g5
ag5
ag5
ag5
ag5
ag5
ag5
ag5
ag5
ag5
ag5
ag5
ag5
ag5
ag5
ag5
ag5
asS'intr_469'
p726
(lp727
g5
ag5
ag5
ag5
ag5
ag5
ag5
ag5
ag5
ag5
ag5
ag5
ag5
ag5
ag5
ag5
ag5
asS'intr_545'
p728
(lp729
g5
ag5
ag5
ag5
ag5
ag5
ag5
ag5
ag5
ag5
ag5
ag5
ag5
ag5
ag5
ag5
ag5
asS'intr_544'
p730
(lp731
g5
ag5
ag5
ag5
ag5
ag5
ag5
ag5
ag5
ag5
ag5
ag5
ag5
ag5
ag5
ag5
ag5
asS'intr_165'
p732
(lp733
g5
ag5
ag5
ag5
ag5
ag5
ag5
ag5
ag5
ag5
ag5
ag5
ag5
ag5
ag5
ag5
ag5
asS'intr_164'
p734
(lp735
g5
ag5
ag5
ag5
ag5
ag5
ag5
ag5
ag5
ag5
ag5
ag5
ag5
ag5
ag5
ag5
ag5
asS'intr_167'
p736
(lp737
g5
ag5
ag5
ag5
ag5
ag5
ag5
ag5
ag5
ag5
ag5
ag5
ag5
ag5
ag5
ag5
ag5
asS'intr_166'
p738
(lp739
g5
ag5
ag5
ag5
ag5
ag5
ag5
ag5
ag5
ag5
ag5
ag5
ag5
ag5
ag5
ag5
ag5
asS'intr_161'
p740
(lp741
g5
ag5
ag5
ag5
ag5
ag5
ag5
ag5
ag5
ag5
ag5
ag5
ag5
ag5
ag5
ag5
ag5
asS'intr_160'
p742
(lp743
g5
ag5
ag5
ag5
ag5
ag5
ag5
ag5
ag5
ag5
ag5
ag5
ag5
ag5
ag5
ag5
ag5
asS'intr_163'
p744
(lp745
g5
ag5
ag5
ag5
ag5
ag5
ag5
ag5
ag5
ag5
ag5
ag5
ag5
ag5
ag5
ag5
ag5
asS'intr_162'
p746
(lp747
g5
ag5
ag5
ag5
ag5
ag5
ag5
ag5
ag5
ag5
ag5
ag5
ag5
ag5
ag5
ag5
ag5
asS'intr_604'
p748
(lp749
g5
ag5
ag5
ag5
ag5
ag5
ag5
ag5
ag5
ag5
ag5
ag5
ag5
ag5
ag5
ag5
ag5
asS'intr_605'
p750
(lp751
g5
ag5
ag5
ag5
ag5
ag5
ag5
ag5
ag5
ag5
ag5
ag5
ag5
ag5
ag5
ag5
ag5
asS'intr_606'
p752
(lp753
g5
ag5
ag5
ag5
ag5
ag5
ag5
ag5
ag5
ag5
ag5
ag5
ag5
ag5
ag5
ag5
ag5
asS'intr_607'
p754
(lp755
g5
ag5
ag5
ag5
ag5
ag5
ag5
ag5
ag5
ag5
ag5
ag5
ag5
ag5
ag5
ag5
ag5
asS'intr_169'
p756
(lp757
g5
ag5
ag5
ag5
ag5
ag5
ag5
ag5
ag5
ag5
ag5
ag5
ag5
ag5
ag5
ag5
ag5
asS'intr_168'
p758
(lp759
g5
ag5
ag5
ag5
ag5
ag5
ag5
ag5
ag5
ag5
ag5
ag5
ag5
ag5
ag5
ag5
ag5
asS'intr_602'
p760
(lp761
g5
ag5
ag5
ag5
ag5
ag5
ag5
ag5
ag5
ag5
ag5
ag5
ag5
ag5
ag5
ag5
ag5
asS'intr_603'
p762
(lp763
g5
ag5
ag5
ag5
ag5
ag5
ag5
ag5
ag5
ag5
ag5
ag5
ag5
ag5
ag5
ag5
ag5
asS'intr_763'
p764
(lp765
g5
ag5
ag5
ag5
ag5
ag5
ag5
ag5
ag5
ag5
ag5
ag5
ag5
ag5
ag5
ag5
ag5
asS'intr_762'
p766
(lp767
g5
ag5
ag5
ag5
ag5
ag5
ag5
ag5
ag5
ag5
ag5
ag5
ag5
ag5
ag5
ag5
ag5
asS'intr_761'
p768
(lp769
g5
ag5
ag5
ag5
ag5
ag5
ag5
ag5
ag5
ag5
ag5
ag5
ag5
ag5
ag5
ag5
ag5
asS'intr_760'
p770
(lp771
g5
ag5
ag5
ag5
ag5
ag5
ag5
ag5
ag5
ag5
ag5
ag5
ag5
ag5
ag5
ag5
ag5
asS'intr_767'
p772
(lp773
g5
ag5
ag5
ag5
ag5
ag5
ag5
ag5
ag5
ag5
ag5
ag5
ag5
ag5
ag5
ag5
ag5
asS'intr_453'
p774
(lp775
g5
ag5
ag5
ag5
ag5
ag5
ag5
ag5
ag5
ag5
ag5
ag5
ag5
ag5
ag5
ag5
ag5
asS'intr_765'
p776
(lp777
g5
ag5
ag5
ag5
ag5
ag5
ag5
ag5
ag5
ag5
ag5
ag5
ag5
ag5
ag5
ag5
ag5
asS'intr_764'
p778
(lp779
g5
ag5
ag5
ag5
ag5
ag5
ag5
ag5
ag5
ag5
ag5
ag5
ag5
ag5
ag5
ag5
ag5
asS'intr_769'
p780
(lp781
g5
ag5
ag5
ag5
ag5
ag5
ag5
ag5
ag5
ag5
ag5
ag5
ag5
ag5
ag5
ag5
ag5
asS'intr_768'
p782
(lp783
g5
ag5
ag5
ag5
ag5
ag5
ag5
ag5
ag5
ag5
ag5
ag5
ag5
ag5
ag5
ag5
ag5
asS'intr_528'
p784
(lp785
g5
ag5
ag5
ag5
ag5
ag5
ag5
ag5
ag5
ag5
ag5
ag5
ag5
ag5
ag5
ag5
ag5
asS'intr_110'
p786
(lp787
g5
ag5
ag5
ag5
ag5
ag5
ag5
ag5
ag5
ag5
ag5
ag5
ag5
ag5
ag5
ag5
ag5
asS'intr_111'
p788
(lp789
g5
ag5
ag5
ag5
ag5
ag5
ag5
ag5
ag5
ag5
ag5
ag5
ag5
ag5
ag5
ag5
ag5
asS'intr_112'
p790
(lp791
g5
ag5
ag5
ag5
ag5
ag5
ag5
ag5
ag5
ag5
ag5
ag5
ag5
ag5
ag5
ag5
ag5
asS'intr_113'
p792
(lp793
g5
ag5
ag5
ag5
ag5
ag5
ag5
ag5
ag5
ag5
ag5
ag5
ag5
ag5
ag5
ag5
ag5
asS'intr_114'
p794
(lp795
g5
ag5
ag5
ag5
ag5
ag5
ag5
ag5
ag5
ag5
ag5
ag5
ag5
ag5
ag5
ag5
ag5
asS'intr_115'
p796
(lp797
g5
ag5
ag5
ag5
ag5
ag5
ag5
ag5
ag5
ag5
ag5
ag5
ag5
ag5
ag5
ag5
ag5
asS'intr_116'
p798
(lp799
g5
ag5
ag5
ag5
ag5
ag5
ag5
ag5
ag5
ag5
ag5
ag5
ag5
ag5
ag5
ag5
ag5
asS'intr_117'
p800
(lp801
g5
ag5
ag5
ag5
ag5
ag5
ag5
ag5
ag5
ag5
ag5
ag5
ag5
ag5
ag5
ag5
ag5
asS'intr_118'
p802
(lp803
g5
ag5
ag5
ag5
ag5
ag5
ag5
ag5
ag5
ag5
ag5
ag5
ag5
ag5
ag5
ag5
ag5
asS'intr_119'
p804
(lp805
g5
ag5
ag5
ag5
ag5
ag5
ag5
ag5
ag5
ag5
ag5
ag5
ag5
ag5
ag5
ag5
ag5
asS'intr_509'
p806
(lp807
g5
ag5
ag5
ag5
ag5
ag5
ag5
ag5
ag5
ag5
ag5
ag5
ag5
ag5
ag5
ag5
ag5
asS'intr_508'
p808
(lp809
g5
ag5
ag5
ag5
ag5
ag5
ag5
ag5
ag5
ag5
ag5
ag5
ag5
ag5
ag5
ag5
ag5
asS'intr_697'
p810
(lp811
g5
ag5
ag5
ag5
ag5
ag5
ag5
ag5
ag5
ag5
ag5
ag5
ag5
ag5
ag5
ag5
ag5
asS'intr_499'
p812
(lp813
g5
ag5
ag5
ag5
ag5
ag5
ag5
ag5
ag5
ag5
ag5
ag5
ag5
ag5
ag5
ag5
ag5
asS'intr_695'
p814
(lp815
g5
ag5
ag5
ag5
ag5
ag5
ag5
ag5
ag5
ag5
ag5
ag5
ag5
ag5
ag5
ag5
ag5
asS'intr_694'
p816
(lp817
g5
ag5
ag5
ag5
ag5
ag5
ag5
ag5
ag5
ag5
ag5
ag5
ag5
ag5
ag5
ag5
ag5
asS'intr_693'
p818
(lp819
g5
ag5
ag5
ag5
ag5
ag5
ag5
ag5
ag5
ag5
ag5
ag5
ag5
ag5
ag5
ag5
ag5
asS'intr_692'
p820
(lp821
g5
ag5
ag5
ag5
ag5
ag5
ag5
ag5
ag5
ag5
ag5
ag5
ag5
ag5
ag5
ag5
ag5
asS'intr_691'
p822
(lp823
g5
ag5
ag5
ag5
ag5
ag5
ag5
ag5
ag5
ag5
ag5
ag5
ag5
ag5
ag5
ag5
ag5
asS'intr_498'
p824
(lp825
g5
ag5
ag5
ag5
ag5
ag5
ag5
ag5
ag5
ag5
ag5
ag5
ag5
ag5
ag5
ag5
ag5
asS'intr_699'
p826
(lp827
g5
ag5
ag5
ag5
ag5
ag5
ag5
ag5
ag5
ag5
ag5
ag5
ag5
ag5
ag5
ag5
ag5
asS'intr_698'
p828
(lp829
g5
ag5
ag5
ag5
ag5
ag5
ag5
ag5
ag5
ag5
ag5
ag5
ag5
ag5
ag5
ag5
ag5
asS'intr_598'
p830
(lp831
g5
ag5
ag5
ag5
ag5
ag5
ag5
ag5
ag5
ag5
ag5
ag5
ag5
ag5
ag5
ag5
ag5
asS'intr_599'
p832
(lp833
g5
ag5
ag5
ag5
ag5
ag5
ag5
ag5
ag5
ag5
ag5
ag5
ag5
ag5
ag5
ag5
ag5
asS'cpu1_1'
p834
(lp835
S'153647'
p836
aS'153647'
p837
aS'153660'
p838
aS'153708'
p839
aS'153784'
p840
aS'153871'
p841
aS'153962'
p842
aS'154059'
p843
aS'154093'
p844
aS'154124'
p845
aS'154203'
p846
aS'154212'
p847
aS'154212'
p848
aS'154301'
p849
aS'154348'
p850
aS'154348'
p851
aS'154356'
p852
asS'intr_594'
p853
(lp854
g5
ag5
ag5
ag5
ag5
ag5
ag5
ag5
ag5
ag5
ag5
ag5
ag5
ag5
ag5
ag5
ag5
asS'intr_595'
p855
(lp856
g5
ag5
ag5
ag5
ag5
ag5
ag5
ag5
ag5
ag5
ag5
ag5
ag5
ag5
ag5
ag5
ag5
asS'intr_596'
p857
(lp858
g5
ag5
ag5
ag5
ag5
ag5
ag5
ag5
ag5
ag5
ag5
ag5
ag5
ag5
ag5
ag5
ag5
asS'intr_597'
p859
(lp860
g5
ag5
ag5
ag5
ag5
ag5
ag5
ag5
ag5
ag5
ag5
ag5
ag5
ag5
ag5
ag5
ag5
asS'intr_590'
p861
(lp862
g5
ag5
ag5
ag5
ag5
ag5
ag5
ag5
ag5
ag5
ag5
ag5
ag5
ag5
ag5
ag5
ag5
asS'intr_591'
p863
(lp864
g5
ag5
ag5
ag5
ag5
ag5
ag5
ag5
ag5
ag5
ag5
ag5
ag5
ag5
ag5
ag5
ag5
asS'intr_592'
p865
(lp866
g5
ag5
ag5
ag5
ag5
ag5
ag5
ag5
ag5
ag5
ag5
ag5
ag5
ag5
ag5
ag5
ag5
asS'intr_593'
p867
(lp868
g5
ag5
ag5
ag5
ag5
ag5
ag5
ag5
ag5
ag5
ag5
ag5
ag5
ag5
ag5
ag5
ag5
asS'intr_491'
p869
(lp870
g5
ag5
ag5
ag5
ag5
ag5
ag5
ag5
ag5
ag5
ag5
ag5
ag5
ag5
ag5
ag5
ag5
asS'intr_439'
p871
(lp872
g5
ag5
ag5
ag5
ag5
ag5
ag5
ag5
ag5
ag5
ag5
ag5
ag5
ag5
ag5
ag5
ag5
asS'intr_438'
p873
(lp874
g5
ag5
ag5
ag5
ag5
ag5
ag5
ag5
ag5
ag5
ag5
ag5
ag5
ag5
ag5
ag5
ag5
asS'intr_349'
p875
(lp876
g5
ag5
ag5
ag5
ag5
ag5
ag5
ag5
ag5
ag5
ag5
ag5
ag5
ag5
ag5
ag5
ag5
asS'intr_348'
p877
(lp878
g5
ag5
ag5
ag5
ag5
ag5
ag5
ag5
ag5
ag5
ag5
ag5
ag5
ag5
ag5
ag5
ag5
asS'intr_490'
p879
(lp880
g5
ag5
ag5
ag5
ag5
ag5
ag5
ag5
ag5
ag5
ag5
ag5
ag5
ag5
ag5
ag5
ag5
asS'intr_345'
p881
(lp882
g5
ag5
ag5
ag5
ag5
ag5
ag5
ag5
ag5
ag5
ag5
ag5
ag5
ag5
ag5
ag5
ag5
asS'intr_344'
p883
(lp884
g5
ag5
ag5
ag5
ag5
ag5
ag5
ag5
ag5
ag5
ag5
ag5
ag5
ag5
ag5
ag5
ag5
asS'intr_347'
p885
(lp886
g5
ag5
ag5
ag5
ag5
ag5
ag5
ag5
ag5
ag5
ag5
ag5
ag5
ag5
ag5
ag5
ag5
asS'intr_346'
p887
(lp888
g5
ag5
ag5
ag5
ag5
ag5
ag5
ag5
ag5
ag5
ag5
ag5
ag5
ag5
ag5
ag5
ag5
asS'intr_341'
p889
(lp890
g5
ag5
ag5
ag5
ag5
ag5
ag5
ag5
ag5
ag5
ag5
ag5
ag5
ag5
ag5
ag5
ag5
asS'intr_340'
p891
(lp892
g5
ag5
ag5
ag5
ag5
ag5
ag5
ag5
ag5
ag5
ag5
ag5
ag5
ag5
ag5
ag5
ag5
asS'intr_343'
p893
(lp894
g5
ag5
ag5
ag5
ag5
ag5
ag5
ag5
ag5
ag5
ag5
ag5
ag5
ag5
ag5
ag5
ag5
asS'intr_342'
p895
(lp896
g5
ag5
ag5
ag5
ag5
ag5
ag5
ag5
ag5
ag5
ag5
ag5
ag5
ag5
ag5
ag5
ag5
asS'intr_96'
p897
(lp898
g5
ag5
ag5
ag5
ag5
ag5
ag5
ag5
ag5
ag5
ag5
ag5
ag5
ag5
ag5
ag5
ag5
asS'intr_189'
p899
(lp900
g5
ag5
ag5
ag5
ag5
ag5
ag5
ag5
ag5
ag5
ag5
ag5
ag5
ag5
ag5
ag5
ag5
asS'intr_188'
p901
(lp902
g5
ag5
ag5
ag5
ag5
ag5
ag5
ag5
ag5
ag5
ag5
ag5
ag5
ag5
ag5
ag5
ag5
asS'intr_673'
p903
(lp904
g5
ag5
ag5
ag5
ag5
ag5
ag5
ag5
ag5
ag5
ag5
ag5
ag5
ag5
ag5
ag5
ag5
asS'intr_97'
p905
(lp906
g5
ag5
ag5
ag5
ag5
ag5
ag5
ag5
ag5
ag5
ag5
ag5
ag5
ag5
ag5
ag5
ag5
asS'intr_183'
p907
(lp908
g5
ag5
ag5
ag5
ag5
ag5
ag5
ag5
ag5
ag5
ag5
ag5
ag5
ag5
ag5
ag5
ag5
asS'intr_182'
p909
(lp910
g5
ag5
ag5
ag5
ag5
ag5
ag5
ag5
ag5
ag5
ag5
ag5
ag5
ag5
ag5
ag5
ag5
asS'intr_181'
p911
(lp912
g5
ag5
ag5
ag5
ag5
ag5
ag5
ag5
ag5
ag5
ag5
ag5
ag5
ag5
ag5
ag5
ag5
asS'intr_180'
p913
(lp914
g5
ag5
ag5
ag5
ag5
ag5
ag5
ag5
ag5
ag5
ag5
ag5
ag5
ag5
ag5
ag5
ag5
asS'intr_187'
p915
(lp916
g5
ag5
ag5
ag5
ag5
ag5
ag5
ag5
ag5
ag5
ag5
ag5
ag5
ag5
ag5
ag5
ag5
asS'intr_186'
p917
(lp918
g5
ag5
ag5
ag5
ag5
ag5
ag5
ag5
ag5
ag5
ag5
ag5
ag5
ag5
ag5
ag5
ag5
asS'intr_185'
p919
(lp920
g5
ag5
ag5
ag5
ag5
ag5
ag5
ag5
ag5
ag5
ag5
ag5
ag5
ag5
ag5
ag5
ag5
asS'intr_184'
p921
(lp922
g5
ag5
ag5
ag5
ag5
ag5
ag5
ag5
ag5
ag5
ag5
ag5
ag5
ag5
ag5
ag5
ag5
asS'intr_749'
p923
(lp924
g5
ag5
ag5
ag5
ag5
ag5
ag5
ag5
ag5
ag5
ag5
ag5
ag5
ag5
ag5
ag5
ag5
asS'intr_95'
p925
(lp926
g5
ag5
ag5
ag5
ag5
ag5
ag5
ag5
ag5
ag5
ag5
ag5
ag5
ag5
ag5
ag5
ag5
asS'intr_497'
p927
(lp928
g5
ag5
ag5
ag5
ag5
ag5
ag5
ag5
ag5
ag5
ag5
ag5
ag5
ag5
ag5
ag5
ag5
asS'intr_92'
p929
(lp930
g5
ag5
ag5
ag5
ag5
ag5
ag5
ag5
ag5
ag5
ag5
ag5
ag5
ag5
ag5
ag5
ag5
asS'intr_496'
p931
(lp932
g5
ag5
ag5
ag5
ag5
ag5
ag5
ag5
ag5
ag5
ag5
ag5
ag5
ag5
ag5
ag5
ag5
asS'intr_93'
p933
(lp934
g5
ag5
ag5
ag5
ag5
ag5
ag5
ag5
ag5
ag5
ag5
ag5
ag5
ag5
ag5
ag5
ag5
asS'intr_90'
p935
(lp936
g5
ag5
ag5
ag5
ag5
ag5
ag5
ag5
ag5
ag5
ag5
ag5
ag5
ag5
ag5
ag5
ag5
asS'intr_688'
p937
(lp938
g5
ag5
ag5
ag5
ag5
ag5
ag5
ag5
ag5
ag5
ag5
ag5
ag5
ag5
ag5
ag5
ag5
asS'intr_91'
p939
(lp940
g5
ag5
ag5
ag5
ag5
ag5
ag5
ag5
ag5
ag5
ag5
ag5
ag5
ag5
ag5
ag5
ag5
asS'intr_748'
p941
(lp942
g5
ag5
ag5
ag5
ag5
ag5
ag5
ag5
ag5
ag5
ag5
ag5
ag5
ag5
ag5
ag5
ag5
asS'intr_568'
p943
(lp944
g5
ag5
ag5
ag5
ag5
ag5
ag5
ag5
ag5
ag5
ag5
ag5
ag5
ag5
ag5
ag5
ag5
asS'intr_757'
p945
(lp946
g5
ag5
ag5
ag5
ag5
ag5
ag5
ag5
ag5
ag5
ag5
ag5
ag5
ag5
ag5
ag5
ag5
asS'cpu1_9'
p947
(lp948
g5
ag5
ag5
ag5
ag5
ag5
ag5
ag5
ag5
ag5
ag5
ag5
ag5
ag5
ag5
ag5
ag5
asS'intr_231'
p949
(lp950
g5
ag5
ag5
ag5
ag5
ag5
ag5
ag5
ag5
ag5
ag5
ag5
ag5
ag5
ag5
ag5
ag5
asS'intr_230'
p951
(lp952
g5
ag5
ag5
ag5
ag5
ag5
ag5
ag5
ag5
ag5
ag5
ag5
ag5
ag5
ag5
ag5
ag5
asS'intr_233'
p953
(lp954
g5
ag5
ag5
ag5
ag5
ag5
ag5
ag5
ag5
ag5
ag5
ag5
ag5
ag5
ag5
ag5
ag5
asS'intr_232'
p955
(lp956
g5
ag5
ag5
ag5
ag5
ag5
ag5
ag5
ag5
ag5
ag5
ag5
ag5
ag5
ag5
ag5
ag5
asS'intr_235'
p957
(lp958
g5
ag5
ag5
ag5
ag5
ag5
ag5
ag5
ag5
ag5
ag5
ag5
ag5
ag5
ag5
ag5
ag5
asS'intr_149'
p959
(lp960
g5
ag5
ag5
ag5
ag5
ag5
ag5
ag5
ag5
ag5
ag5
ag5
ag5
ag5
ag5
ag5
ag5
asS'intr_237'
p961
(lp962
g5
ag5
ag5
ag5
ag5
ag5
ag5
ag5
ag5
ag5
ag5
ag5
ag5
ag5
ag5
ag5
ag5
asS'intr_236'
p963
(lp964
g5
ag5
ag5
ag5
ag5
ag5
ag5
ag5
ag5
ag5
ag5
ag5
ag5
ag5
ag5
ag5
ag5
asS'intr_239'
p965
(lp966
g5
ag5
ag5
ag5
ag5
ag5
ag5
ag5
ag5
ag5
ag5
ag5
ag5
ag5
ag5
ag5
ag5
asS'intr_238'
p967
(lp968
g5
ag5
ag5
ag5
ag5
ag5
ag5
ag5
ag5
ag5
ag5
ag5
ag5
ag5
ag5
ag5
ag5
asS'intr_332'
p969
(lp970
g5
ag5
ag5
ag5
ag5
ag5
ag5
ag5
ag5
ag5
ag5
ag5
ag5
ag5
ag5
ag5
ag5
asS'intr_148'
p971
(lp972
g5
ag5
ag5
ag5
ag5
ag5
ag5
ag5
ag5
ag5
ag5
ag5
ag5
ag5
ag5
ag5
ag5
asS'intr_334'
p973
(lp974
g5
ag5
ag5
ag5
ag5
ag5
ag5
ag5
ag5
ag5
ag5
ag5
ag5
ag5
ag5
ag5
ag5
asS'intr_335'
p975
(lp976
g5
ag5
ag5
ag5
ag5
ag5
ag5
ag5
ag5
ag5
ag5
ag5
ag5
ag5
ag5
ag5
ag5
asS'intr_336'
p977
(lp978
g5
ag5
ag5
ag5
ag5
ag5
ag5
ag5
ag5
ag5
ag5
ag5
ag5
ag5
ag5
ag5
ag5
asS'intr_337'
p979
(lp980
g5
ag5
ag5
ag5
ag5
ag5
ag5
ag5
ag5
ag5
ag5
ag5
ag5
ag5
ag5
ag5
ag5
asS'intr_147'
p981
(lp982
g5
ag5
ag5
ag5
ag5
ag5
ag5
ag5
ag5
ag5
ag5
ag5
ag5
ag5
ag5
ag5
ag5
asS'intr_138'
p983
(lp984
g5
ag5
ag5
ag5
ag5
ag5
ag5
ag5
ag5
ag5
ag5
ag5
ag5
ag5
ag5
ag5
ag5
asS'intr_146'
p985
(lp986
g5
ag5
ag5
ag5
ag5
ag5
ag5
ag5
ag5
ag5
ag5
ag5
ag5
ag5
ag5
ag5
ag5
asS'intr_139'
p987
(lp988
g5
ag5
ag5
ag5
ag5
ag5
ag5
ag5
ag5
ag5
ag5
ag5
ag5
ag5
ag5
ag5
ag5
asS'intr_145'
p989
(lp990
g5
ag5
ag5
ag5
ag5
ag5
ag5
ag5
ag5
ag5
ag5
ag5
ag5
ag5
ag5
ag5
ag5
asS'intr_338'
p991
(lp992
g5
ag5
ag5
ag5
ag5
ag5
ag5
ag5
ag5
ag5
ag5
ag5
ag5
ag5
ag5
ag5
ag5
asS'intr_144'
p993
(lp994
g5
ag5
ag5
ag5
ag5
ag5
ag5
ag5
ag5
ag5
ag5
ag5
ag5
ag5
ag5
ag5
ag5
asS'intr_729'
p995
(lp996
g5
ag5
ag5
ag5
ag5
ag5
ag5
ag5
ag5
ag5
ag5
ag5
ag5
ag5
ag5
ag5
ag5
asS'intr_339'
p997
(lp998
g5
ag5
ag5
ag5
ag5
ag5
ag5
ag5
ag5
ag5
ag5
ag5
ag5
ag5
ag5
ag5
ag5
asS'intr_727'
p999
(lp1000
g5
ag5
ag5
ag5
ag5
ag5
ag5
ag5
ag5
ag5
ag5
ag5
ag5
ag5
ag5
ag5
ag5
asS'intr_8'
p1001
(lp1002
S'2'
p1003
ag1003
ag1003
ag1003
ag1003
ag1003
ag1003
ag1003
ag1003
ag1003
ag1003
ag1003
ag1003
ag1003
ag1003
ag1003
ag1003
asS'intr_725'
p1004
(lp1005
g5
ag5
ag5
ag5
ag5
ag5
ag5
ag5
ag5
ag5
ag5
ag5
ag5
ag5
ag5
ag5
ag5
asS'intr_724'
p1006
(lp1007
g5
ag5
ag5
ag5
ag5
ag5
ag5
ag5
ag5
ag5
ag5
ag5
ag5
ag5
ag5
ag5
ag5
asS'intr_723'
p1008
(lp1009
g5
ag5
ag5
ag5
ag5
ag5
ag5
ag5
ag5
ag5
ag5
ag5
ag5
ag5
ag5
ag5
ag5
asS'intr_722'
p1010
(lp1011
g5
ag5
ag5
ag5
ag5
ag5
ag5
ag5
ag5
ag5
ag5
ag5
ag5
ag5
ag5
ag5
ag5
asS'intr_721'
p1012
(lp1013
g5
ag5
ag5
ag5
ag5
ag5
ag5
ag5
ag5
ag5
ag5
ag5
ag5
ag5
ag5
ag5
ag5
asS'intr_142'
p1014
(lp1015
g5
ag5
ag5
ag5
ag5
ag5
ag5
ag5
ag5
ag5
ag5
ag5
ag5
ag5
ag5
ag5
ag5
asS'intr_141'
p1016
(lp1017
g5
ag5
ag5
ag5
ag5
ag5
ag5
ag5
ag5
ag5
ag5
ag5
ag5
ag5
ag5
ag5
ag5
asS'intr_140'
p1018
(lp1019
g5
ag5
ag5
ag5
ag5
ag5
ag5
ag5
ag5
ag5
ag5
ag5
ag5
ag5
ag5
ag5
ag5
asS'intr_563'
p1020
(lp1021
g5
ag5
ag5
ag5
ag5
ag5
ag5
ag5
ag5
ag5
ag5
ag5
ag5
ag5
ag5
ag5
ag5
asS'intr_234'
p1022
(lp1023
g5
ag5
ag5
ag5
ag5
ag5
ag5
ag5
ag5
ag5
ag5
ag5
ag5
ag5
ag5
ag5
ag5
asS'intr_802'
p1024
(lp1025
g5
ag5
ag5
ag5
ag5
ag5
ag5
ag5
ag5
ag5
ag5
ag5
ag5
ag5
ag5
ag5
ag5
asS'intr_330'
p1026
(lp1027
g5
ag5
ag5
ag5
ag5
ag5
ag5
ag5
ag5
ag5
ag5
ag5
ag5
ag5
ag5
ag5
ag5
asS'intr_800'
p1028
(lp1029
g5
ag5
ag5
ag5
ag5
ag5
ag5
ag5
ag5
ag5
ag5
ag5
ag5
ag5
ag5
ag5
ag5
asS'intr_801'
p1030
(lp1031
g5
ag5
ag5
ag5
ag5
ag5
ag5
ag5
ag5
ag5
ag5
ag5
ag5
ag5
ag5
ag5
ag5
asS'intr_806'
p1032
(lp1033
g5
ag5
ag5
ag5
ag5
ag5
ag5
ag5
ag5
ag5
ag5
ag5
ag5
ag5
ag5
ag5
ag5
asS'intr_807'
p1034
(lp1035
g5
ag5
ag5
ag5
ag5
ag5
ag5
ag5
ag5
ag5
ag5
ag5
ag5
ag5
ag5
ag5
ag5
asS'intr_804'
p1036
(lp1037
g5
ag5
ag5
ag5
ag5
ag5
ag5
ag5
ag5
ag5
ag5
ag5
ag5
ag5
ag5
ag5
ag5
asS'intr_331'
p1038
(lp1039
g5
ag5
ag5
ag5
ag5
ag5
ag5
ag5
ag5
ag5
ag5
ag5
ag5
ag5
ag5
ag5
ag5
asS'intr_789'
p1040
(lp1041
g5
ag5
ag5
ag5
ag5
ag5
ag5
ag5
ag5
ag5
ag5
ag5
ag5
ag5
ag5
ag5
ag5
asS'intr_808'
p1042
(lp1043
g5
ag5
ag5
ag5
ag5
ag5
ag5
ag5
ag5
ag5
ag5
ag5
ag5
ag5
ag5
ag5
ag5
asS'intr_809'
p1044
(lp1045
g5
ag5
ag5
ag5
ag5
ag5
ag5
ag5
ag5
ag5
ag5
ag5
ag5
ag5
ag5
ag5
ag5
asS'intr_788'
p1046
(lp1047
g5
ag5
ag5
ag5
ag5
ag5
ag5
ag5
ag5
ag5
ag5
ag5
ag5
ag5
ag5
ag5
ag5
asS'intr_333'
p1048
(lp1049
g5
ag5
ag5
ag5
ag5
ag5
ag5
ag5
ag5
ag5
ag5
ag5
ag5
ag5
ag5
ag5
ag5
asS'intr_158'
p1050
(lp1051
g5
ag5
ag5
ag5
ag5
ag5
ag5
ag5
ag5
ag5
ag5
ag5
ag5
ag5
ag5
ag5
ag5
asS'intr_159'
p1052
(lp1053
g5
ag5
ag5
ag5
ag5
ag5
ag5
ag5
ag5
ag5
ag5
ag5
ag5
ag5
ag5
ag5
ag5
asS'intr_154'
p1054
(lp1055
g5
ag5
ag5
ag5
ag5
ag5
ag5
ag5
ag5
ag5
ag5
ag5
ag5
ag5
ag5
ag5
ag5
asS'intr_155'
p1056
(lp1057
g5
ag5
ag5
ag5
ag5
ag5
ag5
ag5
ag5
ag5
ag5
ag5
ag5
ag5
ag5
ag5
ag5
asS'intr_156'
p1058
(lp1059
g5
ag5
ag5
ag5
ag5
ag5
ag5
ag5
ag5
ag5
ag5
ag5
ag5
ag5
ag5
ag5
ag5
asS'intr_157'
p1060
(lp1061
g5
ag5
ag5
ag5
ag5
ag5
ag5
ag5
ag5
ag5
ag5
ag5
ag5
ag5
ag5
ag5
ag5
asS'intr_150'
p1062
(lp1063
g5
ag5
ag5
ag5
ag5
ag5
ag5
ag5
ag5
ag5
ag5
ag5
ag5
ag5
ag5
ag5
ag5
asS'intr_151'
p1064
(lp1065
g5
ag5
ag5
ag5
ag5
ag5
ag5
ag5
ag5
ag5
ag5
ag5
ag5
ag5
ag5
ag5
ag5
asS'intr_152'
p1066
(lp1067
g5
ag5
ag5
ag5
ag5
ag5
ag5
ag5
ag5
ag5
ag5
ag5
ag5
ag5
ag5
ag5
ag5
asS'intr_153'
p1068
(lp1069
g5
ag5
ag5
ag5
ag5
ag5
ag5
ag5
ag5
ag5
ag5
ag5
ag5
ag5
ag5
ag5
ag5
asS'intr_653'
p1070
(lp1071
g5
ag5
ag5
ag5
ag5
ag5
ag5
ag5
ag5
ag5
ag5
ag5
ag5
ag5
ag5
ag5
ag5
asS'intr_652'
p1072
(lp1073
g5
ag5
ag5
ag5
ag5
ag5
ag5
ag5
ag5
ag5
ag5
ag5
ag5
ag5
ag5
ag5
ag5
asS'intr_651'
p1074
(lp1075
g5
ag5
ag5
ag5
ag5
ag5
ag5
ag5
ag5
ag5
ag5
ag5
ag5
ag5
ag5
ag5
ag5
asS'intr_650'
p1076
(lp1077
g5
ag5
ag5
ag5
ag5
ag5
ag5
ag5
ag5
ag5
ag5
ag5
ag5
ag5
ag5
ag5
ag5
asS'intr_657'
p1078
(lp1079
g5
ag5
ag5
ag5
ag5
ag5
ag5
ag5
ag5
ag5
ag5
ag5
ag5
ag5
ag5
ag5
ag5
asS'intr_656'
p1080
(lp1081
g5
ag5
ag5
ag5
ag5
ag5
ag5
ag5
ag5
ag5
ag5
ag5
ag5
ag5
ag5
ag5
ag5
asS'intr_655'
p1082
(lp1083
g5
ag5
ag5
ag5
ag5
ag5
ag5
ag5
ag5
ag5
ag5
ag5
ag5
ag5
ag5
ag5
ag5
asS'intr_654'
p1084
(lp1085
g5
ag5
ag5
ag5
ag5
ag5
ag5
ag5
ag5
ag5
ag5
ag5
ag5
ag5
ag5
ag5
ag5
asS'intr_792'
p1086
(lp1087
g5
ag5
ag5
ag5
ag5
ag5
ag5
ag5
ag5
ag5
ag5
ag5
ag5
ag5
ag5
ag5
ag5
asS'intr_793'
p1088
(lp1089
g5
ag5
ag5
ag5
ag5
ag5
ag5
ag5
ag5
ag5
ag5
ag5
ag5
ag5
ag5
ag5
ag5
asS'intr_659'
p1090
(lp1091
g5
ag5
ag5
ag5
ag5
ag5
ag5
ag5
ag5
ag5
ag5
ag5
ag5
ag5
ag5
ag5
ag5
asS'intr_658'
p1092
(lp1093
g5
ag5
ag5
ag5
ag5
ag5
ag5
ag5
ag5
ag5
ag5
ag5
ag5
ag5
ag5
ag5
ag5
asS'intr_796'
p1094
(lp1095
g5
ag5
ag5
ag5
ag5
ag5
ag5
ag5
ag5
ag5
ag5
ag5
ag5
ag5
ag5
ag5
ag5
asS'intr_797'
p1096
(lp1097
g5
ag5
ag5
ag5
ag5
ag5
ag5
ag5
ag5
ag5
ag5
ag5
ag5
ag5
ag5
ag5
ag5
asS'intr_794'
p1098
(lp1099
g5
ag5
ag5
ag5
ag5
ag5
ag5
ag5
ag5
ag5
ag5
ag5
ag5
ag5
ag5
ag5
ag5
asS'intr_795'
p1100
(lp1101
g5
ag5
ag5
ag5
ag5
ag5
ag5
ag5
ag5
ag5
ag5
ag5
ag5
ag5
ag5
ag5
ag5
asS'intr_781'
p1102
(lp1103
g5
ag5
ag5
ag5
ag5
ag5
ag5
ag5
ag5
ag5
ag5
ag5
ag5
ag5
ag5
ag5
ag5
asS'softirq_10'
p1104
(lp1105
S'1268'
p1106
aS'1268'
p1107
aS'1268'
p1108
aS'1269'
p1109
aS'1269'
p1110
aS'1269'
p1111
aS'1269'
p1112
aS'1269'
p1113
aS'1269'
p1114
aS'1269'
p1115
aS'1269'
p1116
aS'1269'
p1117
aS'1269'
p1118
aS'1269'
p1119
aS'1269'
p1120
aS'1269'
p1121
aS'1269'
p1122
asS'intr_783'
p1123
(lp1124
g5
ag5
ag5
ag5
ag5
ag5
ag5
ag5
ag5
ag5
ag5
ag5
ag5
ag5
ag5
ag5
ag5
asS'btime_1'
p1125
(lp1126
S'1329431306'
p1127
aS'1329431306'
p1128
aS'1329431306'
p1129
aS'1329431306'
p1130
aS'1329431306'
p1131
aS'1329431306'
p1132
aS'1329431306'
p1133
aS'1329431306'
p1134
aS'1329431306'
p1135
aS'1329431306'
p1136
aS'1329431306'
p1137
aS'1329431306'
p1138
aS'1329431306'
p1139
aS'1329431306'
p1140
aS'1329431306'
p1141
aS'1329431306'
p1142
aS'1329431306'
p1143
asS'intr_782'
p1144
(lp1145
g5
ag5
ag5
ag5
ag5
ag5
ag5
ag5
ag5
ag5
ag5
ag5
ag5
ag5
ag5
ag5
ag5
asS'intr_389'
p1146
(lp1147
g5
ag5
ag5
ag5
ag5
ag5
ag5
ag5
ag5
ag5
ag5
ag5
ag5
ag5
ag5
ag5
ag5
asS'intr_388'
p1148
(lp1149
g5
ag5
ag5
ag5
ag5
ag5
ag5
ag5
ag5
ag5
ag5
ag5
ag5
ag5
ag5
ag5
ag5
asS'intr_381'
p1150
(lp1151
g5
ag5
ag5
ag5
ag5
ag5
ag5
ag5
ag5
ag5
ag5
ag5
ag5
ag5
ag5
ag5
ag5
asS'intr_380'
p1152
(lp1153
g5
ag5
ag5
ag5
ag5
ag5
ag5
ag5
ag5
ag5
ag5
ag5
ag5
ag5
ag5
ag5
ag5
asS'intr_383'
p1154
(lp1155
g5
ag5
ag5
ag5
ag5
ag5
ag5
ag5
ag5
ag5
ag5
ag5
ag5
ag5
ag5
ag5
ag5
asS'intr_382'
p1156
(lp1157
g5
ag5
ag5
ag5
ag5
ag5
ag5
ag5
ag5
ag5
ag5
ag5
ag5
ag5
ag5
ag5
ag5
asS'intr_385'
p1158
(lp1159
g5
ag5
ag5
ag5
ag5
ag5
ag5
ag5
ag5
ag5
ag5
ag5
ag5
ag5
ag5
ag5
ag5
asS'intr_384'
p1160
(lp1161
g5
ag5
ag5
ag5
ag5
ag5
ag5
ag5
ag5
ag5
ag5
ag5
ag5
ag5
ag5
ag5
ag5
asS'intr_387'
p1162
(lp1163
g5
ag5
ag5
ag5
ag5
ag5
ag5
ag5
ag5
ag5
ag5
ag5
ag5
ag5
ag5
ag5
ag5
asS'intr_386'
p1164
(lp1165
g5
ag5
ag5
ag5
ag5
ag5
ag5
ag5
ag5
ag5
ag5
ag5
ag5
ag5
ag5
ag5
ag5
asS'intr_477'
p1166
(lp1167
g5
ag5
ag5
ag5
ag5
ag5
ag5
ag5
ag5
ag5
ag5
ag5
ag5
ag5
ag5
ag5
ag5
asS'intr_476'
p1168
(lp1169
g5
ag5
ag5
ag5
ag5
ag5
ag5
ag5
ag5
ag5
ag5
ag5
ag5
ag5
ag5
ag5
ag5
asS'intr_475'
p1170
(lp1171
g5
ag5
ag5
ag5
ag5
ag5
ag5
ag5
ag5
ag5
ag5
ag5
ag5
ag5
ag5
ag5
ag5
asS'intr_474'
p1172
(lp1173
g5
ag5
ag5
ag5
ag5
ag5
ag5
ag5
ag5
ag5
ag5
ag5
ag5
ag5
ag5
ag5
ag5
asS'intr_473'
p1174
(lp1175
g5
ag5
ag5
ag5
ag5
ag5
ag5
ag5
ag5
ag5
ag5
ag5
ag5
ag5
ag5
ag5
ag5
asS'intr_472'
p1176
(lp1177
g5
ag5
ag5
ag5
ag5
ag5
ag5
ag5
ag5
ag5
ag5
ag5
ag5
ag5
ag5
ag5
ag5
asS'intr_471'
p1178
(lp1179
g5
ag5
ag5
ag5
ag5
ag5
ag5
ag5
ag5
ag5
ag5
ag5
ag5
ag5
ag5
ag5
ag5
asS'intr_470'
p1180
(lp1181
g5
ag5
ag5
ag5
ag5
ag5
ag5
ag5
ag5
ag5
ag5
ag5
ag5
ag5
ag5
ag5
ag5
asS'intr_576'
p1182
(lp1183
g5
ag5
ag5
ag5
ag5
ag5
ag5
ag5
ag5
ag5
ag5
ag5
ag5
ag5
ag5
ag5
ag5
asS'intr_577'
p1184
(lp1185
g5
ag5
ag5
ag5
ag5
ag5
ag5
ag5
ag5
ag5
ag5
ag5
ag5
ag5
ag5
ag5
ag5
asS'intr_574'
p1186
(lp1187
g5
ag5
ag5
ag5
ag5
ag5
ag5
ag5
ag5
ag5
ag5
ag5
ag5
ag5
ag5
ag5
ag5
asS'intr_575'
p1188
(lp1189
g5
ag5
ag5
ag5
ag5
ag5
ag5
ag5
ag5
ag5
ag5
ag5
ag5
ag5
ag5
ag5
ag5
asS'intr_572'
p1190
(lp1191
g5
ag5
ag5
ag5
ag5
ag5
ag5
ag5
ag5
ag5
ag5
ag5
ag5
ag5
ag5
ag5
ag5
asS'intr_573'
p1192
(lp1193
g5
ag5
ag5
ag5
ag5
ag5
ag5
ag5
ag5
ag5
ag5
ag5
ag5
ag5
ag5
ag5
ag5
asS'intr_479'
p1194
(lp1195
g5
ag5
ag5
ag5
ag5
ag5
ag5
ag5
ag5
ag5
ag5
ag5
ag5
ag5
ag5
ag5
ag5
asS'intr_478'
p1196
(lp1197
g5
ag5
ag5
ag5
ag5
ag5
ag5
ag5
ag5
ag5
ag5
ag5
ag5
ag5
ag5
ag5
ag5
asS'intr_45'
p1198
(lp1199
g5
ag5
ag5
ag5
ag5
ag5
ag5
ag5
ag5
ag5
ag5
ag5
ag5
ag5
ag5
ag5
ag5
asS'intr_44'
p1200
(lp1201
g5
ag5
ag5
ag5
ag5
ag5
ag5
ag5
ag5
ag5
ag5
ag5
ag5
ag5
ag5
ag5
ag5
asS'intr_47'
p1202
(lp1203
g5
ag5
ag5
ag5
ag5
ag5
ag5
ag5
ag5
ag5
ag5
ag5
ag5
ag5
ag5
ag5
ag5
asS'intr_46'
p1204
(lp1205
g5
ag5
ag5
ag5
ag5
ag5
ag5
ag5
ag5
ag5
ag5
ag5
ag5
ag5
ag5
ag5
ag5
asS'intr_41'
p1206
(lp1207
g5
ag5
ag5
ag5
ag5
ag5
ag5
ag5
ag5
ag5
ag5
ag5
ag5
ag5
ag5
ag5
ag5
asS'intr_40'
p1208
(lp1209
g5
ag5
ag5
ag5
ag5
ag5
ag5
ag5
ag5
ag5
ag5
ag5
ag5
ag5
ag5
ag5
ag5
asS'intr_43'
p1210
(lp1211
g5
ag5
ag5
ag5
ag5
ag5
ag5
ag5
ag5
ag5
ag5
ag5
ag5
ag5
ag5
ag5
ag5
asS'intr_42'
p1212
(lp1213
g5
ag5
ag5
ag5
ag5
ag5
ag5
ag5
ag5
ag5
ag5
ag5
ag5
ag5
ag5
ag5
ag5
asS'intr_49'
p1214
(lp1215
g5
ag5
ag5
ag5
ag5
ag5
ag5
ag5
ag5
ag5
ag5
ag5
ag5
ag5
ag5
ag5
ag5
asS'intr_48'
p1216
(lp1217
g5
ag5
ag5
ag5
ag5
ag5
ag5
ag5
ag5
ag5
ag5
ag5
ag5
ag5
ag5
ag5
ag5
asS'cpu0_5'
p1218
(lp1219
S'54002'
p1220
aS'54092'
p1221
aS'54159'
p1222
aS'54159'
p1223
aS'54159'
p1224
aS'54167'
p1225
aS'54167'
p1226
aS'54167'
p1227
aS'54167'
p1228
aS'54167'
p1229
aS'54167'
p1230
aS'54167'
p1231
aS'54167'
p1232
aS'54167'
p1233
aS'54167'
p1234
aS'54167'
p1235
aS'54167'
p1236
asS'cpu0_4'
p1237
(lp1238
S'7995358'
p1239
aS'7995362'
p1240
aS'7995370'
p1241
aS'7995398'
p1242
aS'7995440'
p1243
aS'7995469'
p1244
aS'7995514'
p1245
aS'7995595'
p1246
aS'7995607'
p1247
aS'7995614'
p1248
aS'7995614'
p1249
aS'7995615'
p1250
aS'7995615'
p1251
aS'7995627'
p1252
aS'7995628'
p1253
aS'7995628'
p1254
aS'7995635'
p1255
asS'cpu0_7'
p1256
(lp1257
S'15236'
p1258
aS'15236'
p1259
aS'15236'
p1260
aS'15236'
p1261
aS'15236'
p1262
aS'15236'
p1263
aS'15236'
p1264
aS'15236'
p1265
aS'15236'
p1266
aS'15236'
p1267
aS'15236'
p1268
aS'15236'
p1269
aS'15236'
p1270
aS'15236'
p1271
aS'15236'
p1272
aS'15236'
p1273
aS'15236'
p1274
asS'cpu0_6'
p1275
(lp1276
g5
ag5
ag5
ag5
ag5
ag5
ag5
ag5
ag5
ag5
ag5
ag5
ag5
ag5
ag5
ag5
ag5
asS'cpu0_1'
p1277
(lp1278
S'156984'
p1279
aS'156985'
p1280
aS'157003'
p1281
aS'157067'
p1282
aS'157115'
p1283
aS'157172'
p1284
aS'157218'
p1285
aS'157237'
p1286
aS'157322'
p1287
aS'157414'
p1288
aS'157504'
p1289
aS'157601'
p1290
aS'157701'
p1291
aS'157788'
p1292
aS'157883'
p1293
aS'157983'
p1294
aS'158075'
p1295
asS'cpu0_3'
p1296
(lp1297
S'38898'
p1298
aS'38903'
p1299
aS'38911'
p1300
aS'38919'
p1301
aS'38928'
p1302
aS'38935'
p1303
aS'38944'
p1304
aS'38944'
p1305
aS'38948'
p1306
aS'38948'
p1307
aS'38958'
p1308
aS'38961'
p1309
aS'38961'
p1310
aS'38962'
p1311
aS'38966'
p1312
aS'38966'
p1313
aS'38967'
p1314
asS'cpu0_2'
p1315
(lp1316
S'1964'
p1317
aS'1964'
p1318
aS'1964'
p1319
aS'1964'
p1320
aS'1964'
p1321
aS'1964'
p1322
aS'1964'
p1323
aS'1964'
p1324
aS'1964'
p1325
aS'1964'
p1326
aS'1964'
p1327
aS'1964'
p1328
aS'1964'
p1329
aS'1964'
p1330
aS'1964'
p1331
aS'1964'
p1332
aS'1964'
p1333
asS'cpu0_9'
p1334
(lp1335
g5
ag5
ag5
ag5
ag5
ag5
ag5
ag5
ag5
ag5
ag5
ag5
ag5
ag5
ag5
ag5
ag5
asS'cpu0_8'
p1336
(lp1337
g5
ag5
ag5
ag5
ag5
ag5
ag5
ag5
ag5
ag5
ag5
ag5
ag5
ag5
ag5
ag5
ag5
asS'intr_751'
p1338
(lp1339
g5
ag5
ag5
ag5
ag5
ag5
ag5
ag5
ag5
ag5
ag5
ag5
ag5
ag5
ag5
ag5
ag5
asS'procs_running_1'
p1340
(lp1341
S'1'
p1342
ag1342
ag1003
ag1003
ag1003
aS'3'
p1343
ag1003
ag1343
ag1003
ag1343
ag1343
ag1003
ag1003
ag1343
ag1003
ag1003
ag1343
asS'intr_420'
p1344
(lp1345
g5
ag5
ag5
ag5
ag5
ag5
ag5
ag5
ag5
ag5
ag5
ag5
ag5
ag5
ag5
ag5
ag5
asS'intr_279'
p1346
(lp1347
g5
ag5
ag5
ag5
ag5
ag5
ag5
ag5
ag5
ag5
ag5
ag5
ag5
ag5
ag5
ag5
ag5
asS'intr_278'
p1348
(lp1349
g5
ag5
ag5
ag5
ag5
ag5
ag5
ag5
ag5
ag5
ag5
ag5
ag5
ag5
ag5
ag5
ag5
asS'intr_421'
p1350
(lp1351
g5
ag5
ag5
ag5
ag5
ag5
ag5
ag5
ag5
ag5
ag5
ag5
ag5
ag5
ag5
ag5
ag5
asS'intr_275'
p1352
(lp1353
g5
ag5
ag5
ag5
ag5
ag5
ag5
ag5
ag5
ag5
ag5
ag5
ag5
ag5
ag5
ag5
ag5
asS'intr_274'
p1354
(lp1355
g5
ag5
ag5
ag5
ag5
ag5
ag5
ag5
ag5
ag5
ag5
ag5
ag5
ag5
ag5
ag5
ag5
asS'intr_277'
p1356
(lp1357
g5
ag5
ag5
ag5
ag5
ag5
ag5
ag5
ag5
ag5
ag5
ag5
ag5
ag5
ag5
ag5
ag5
asS'intr_276'
p1358
(lp1359
g5
ag5
ag5
ag5
ag5
ag5
ag5
ag5
ag5
ag5
ag5
ag5
ag5
ag5
ag5
ag5
ag5
asS'intr_271'
p1360
(lp1361
g5
ag5
ag5
ag5
ag5
ag5
ag5
ag5
ag5
ag5
ag5
ag5
ag5
ag5
ag5
ag5
ag5
asS'intr_270'
p1362
(lp1363
g5
ag5
ag5
ag5
ag5
ag5
ag5
ag5
ag5
ag5
ag5
ag5
ag5
ag5
ag5
ag5
ag5
asS'intr_273'
p1364
(lp1365
g5
ag5
ag5
ag5
ag5
ag5
ag5
ag5
ag5
ag5
ag5
ag5
ag5
ag5
ag5
ag5
ag5
asS'intr_272'
p1366
(lp1367
g5
ag5
ag5
ag5
ag5
ag5
ag5
ag5
ag5
ag5
ag5
ag5
ag5
ag5
ag5
ag5
ag5
asS'intr_374'
p1368
(lp1369
g5
ag5
ag5
ag5
ag5
ag5
ag5
ag5
ag5
ag5
ag5
ag5
ag5
ag5
ag5
ag5
ag5
asS'intr_375'
p1370
(lp1371
g5
ag5
ag5
ag5
ag5
ag5
ag5
ag5
ag5
ag5
ag5
ag5
ag5
ag5
ag5
ag5
ag5
asS'intr_376'
p1372
(lp1373
g5
ag5
ag5
ag5
ag5
ag5
ag5
ag5
ag5
ag5
ag5
ag5
ag5
ag5
ag5
ag5
ag5
asS'intr_351'
p1374
(lp1375
g5
ag5
ag5
ag5
ag5
ag5
ag5
ag5
ag5
ag5
ag5
ag5
ag5
ag5
ag5
ag5
ag5
asS'intr_370'
p1376
(lp1377
g5
ag5
ag5
ag5
ag5
ag5
ag5
ag5
ag5
ag5
ag5
ag5
ag5
ag5
ag5
ag5
ag5
asS'intr_371'
p1378
(lp1379
g5
ag5
ag5
ag5
ag5
ag5
ag5
ag5
ag5
ag5
ag5
ag5
ag5
ag5
ag5
ag5
ag5
asS'intr_372'
p1380
(lp1381
g5
ag5
ag5
ag5
ag5
ag5
ag5
ag5
ag5
ag5
ag5
ag5
ag5
ag5
ag5
ag5
ag5
asS'intr_373'
p1382
(lp1383
g5
ag5
ag5
ag5
ag5
ag5
ag5
ag5
ag5
ag5
ag5
ag5
ag5
ag5
ag5
ag5
ag5
asS'intr_424'
p1384
(lp1385
g5
ag5
ag5
ag5
ag5
ag5
ag5
ag5
ag5
ag5
ag5
ag5
ag5
ag5
ag5
ag5
ag5
asS'intr_728'
p1386
(lp1387
g5
ag5
ag5
ag5
ag5
ag5
ag5
ag5
ag5
ag5
ag5
ag5
ag5
ag5
ag5
ag5
ag5
asS'intr_378'
p1388
(lp1389
g5
ag5
ag5
ag5
ag5
ag5
ag5
ag5
ag5
ag5
ag5
ag5
ag5
ag5
ag5
ag5
ag5
asS'intr_379'
p1390
(lp1391
g5
ag5
ag5
ag5
ag5
ag5
ag5
ag5
ag5
ag5
ag5
ag5
ag5
ag5
ag5
ag5
ag5
asS'intr_425'
p1392
(lp1393
g5
ag5
ag5
ag5
ag5
ag5
ag5
ag5
ag5
ag5
ag5
ag5
ag5
ag5
ag5
ag5
ag5
asS'intr_426'
p1394
(lp1395
g5
ag5
ag5
ag5
ag5
ag5
ag5
ag5
ag5
ag5
ag5
ag5
ag5
ag5
ag5
ag5
ag5
asS'intr_726'
p1396
(lp1397
g5
ag5
ag5
ag5
ag5
ag5
ag5
ag5
ag5
ag5
ag5
ag5
ag5
ag5
ag5
ag5
ag5
asS'intr_427'
p1398
(lp1399
g5
ag5
ag5
ag5
ag5
ag5
ag5
ag5
ag5
ag5
ag5
ag5
ag5
ag5
ag5
ag5
ag5
asS'procs_blocked_1'
p1400
(lp1401
g1342
ag1342
ag5
ag5
ag5
ag5
ag5
ag5
ag5
ag5
ag5
ag5
ag5
ag5
ag5
ag5
ag5
asS'intr_358'
p1402
(lp1403
g5
ag5
ag5
ag5
ag5
ag5
ag5
ag5
ag5
ag5
ag5
ag5
ag5
ag5
ag5
ag5
ag5
asS'intr_720'
p1404
(lp1405
g5
ag5
ag5
ag5
ag5
ag5
ag5
ag5
ag5
ag5
ag5
ag5
ag5
ag5
ag5
ag5
ag5
asS'intr_208'
p1406
(lp1407
g5
ag5
ag5
ag5
ag5
ag5
ag5
ag5
ag5
ag5
ag5
ag5
ag5
ag5
ag5
ag5
ag5
asS'intr_209'
p1408
(lp1409
g5
ag5
ag5
ag5
ag5
ag5
ag5
ag5
ag5
ag5
ag5
ag5
ag5
ag5
ag5
ag5
ag5
asS'intr_559'
p1410
(lp1411
g5
ag5
ag5
ag5
ag5
ag5
ag5
ag5
ag5
ag5
ag5
ag5
ag5
ag5
ag5
ag5
ag5
asS'intr_200'
p1412
(lp1413
g5
ag5
ag5
ag5
ag5
ag5
ag5
ag5
ag5
ag5
ag5
ag5
ag5
ag5
ag5
ag5
ag5
asS'intr_201'
p1414
(lp1415
g5
ag5
ag5
ag5
ag5
ag5
ag5
ag5
ag5
ag5
ag5
ag5
ag5
ag5
ag5
ag5
ag5
asS'intr_202'
p1416
(lp1417
g5
ag5
ag5
ag5
ag5
ag5
ag5
ag5
ag5
ag5
ag5
ag5
ag5
ag5
ag5
ag5
ag5
asS'intr_203'
p1418
(lp1419
g5
ag5
ag5
ag5
ag5
ag5
ag5
ag5
ag5
ag5
ag5
ag5
ag5
ag5
ag5
ag5
ag5
asS'intr_204'
p1420
(lp1421
g5
ag5
ag5
ag5
ag5
ag5
ag5
ag5
ag5
ag5
ag5
ag5
ag5
ag5
ag5
ag5
ag5
asS'intr_205'
p1422
(lp1423
g5
ag5
ag5
ag5
ag5
ag5
ag5
ag5
ag5
ag5
ag5
ag5
ag5
ag5
ag5
ag5
ag5
asS'intr_206'
p1424
(lp1425
g5
ag5
ag5
ag5
ag5
ag5
ag5
ag5
ag5
ag5
ag5
ag5
ag5
ag5
ag5
ag5
ag5
asS'intr_207'
p1426
(lp1427
g5
ag5
ag5
ag5
ag5
ag5
ag5
ag5
ag5
ag5
ag5
ag5
ag5
ag5
ag5
ag5
ag5
asS'intr_359'
p1428
(lp1429
g5
ag5
ag5
ag5
ag5
ag5
ag5
ag5
ag5
ag5
ag5
ag5
ag5
ag5
ag5
ag5
ag5
asS'intr_619'
p1430
(lp1431
g5
ag5
ag5
ag5
ag5
ag5
ag5
ag5
ag5
ag5
ag5
ag5
ag5
ag5
ag5
ag5
ag5
asS'intr_618'
p1432
(lp1433
g5
ag5
ag5
ag5
ag5
ag5
ag5
ag5
ag5
ag5
ag5
ag5
ag5
ag5
ag5
ag5
ag5
asS'intr_617'
p1434
(lp1435
g5
ag5
ag5
ag5
ag5
ag5
ag5
ag5
ag5
ag5
ag5
ag5
ag5
ag5
ag5
ag5
ag5
asS'intr_616'
p1436
(lp1437
g5
ag5
ag5
ag5
ag5
ag5
ag5
ag5
ag5
ag5
ag5
ag5
ag5
ag5
ag5
ag5
ag5
asS'intr_615'
p1438
(lp1439
g5
ag5
ag5
ag5
ag5
ag5
ag5
ag5
ag5
ag5
ag5
ag5
ag5
ag5
ag5
ag5
ag5
asS'intr_614'
p1440
(lp1441
g5
ag5
ag5
ag5
ag5
ag5
ag5
ag5
ag5
ag5
ag5
ag5
ag5
ag5
ag5
ag5
ag5
asS'intr_613'
p1442
(lp1443
g5
ag5
ag5
ag5
ag5
ag5
ag5
ag5
ag5
ag5
ag5
ag5
ag5
ag5
ag5
ag5
ag5
asS'intr_612'
p1444
(lp1445
g5
ag5
ag5
ag5
ag5
ag5
ag5
ag5
ag5
ag5
ag5
ag5
ag5
ag5
ag5
ag5
ag5
asS'intr_611'
p1446
(lp1447
g5
ag5
ag5
ag5
ag5
ag5
ag5
ag5
ag5
ag5
ag5
ag5
ag5
ag5
ag5
ag5
ag5
asS'intr_610'
p1448
(lp1449
g5
ag5
ag5
ag5
ag5
ag5
ag5
ag5
ag5
ag5
ag5
ag5
ag5
ag5
ag5
ag5
ag5
asS'intr_756'
p1450
(lp1451
g5
ag5
ag5
ag5
ag5
ag5
ag5
ag5
ag5
ag5
ag5
ag5
ag5
ag5
ag5
ag5
ag5
asS'intr_550'
p1452
(lp1453
g5
ag5
ag5
ag5
ag5
ag5
ag5
ag5
ag5
ag5
ag5
ag5
ag5
ag5
ag5
ag5
ag5
asS'intr_754'
p1454
(lp1455
g5
ag5
ag5
ag5
ag5
ag5
ag5
ag5
ag5
ag5
ag5
ag5
ag5
ag5
ag5
ag5
ag5
asS'intr_755'
p1456
(lp1457
g5
ag5
ag5
ag5
ag5
ag5
ag5
ag5
ag5
ag5
ag5
ag5
ag5
ag5
ag5
ag5
ag5
asS'intr_752'
p1458
(lp1459
g5
ag5
ag5
ag5
ag5
ag5
ag5
ag5
ag5
ag5
ag5
ag5
ag5
ag5
ag5
ag5
ag5
asS'intr_753'
p1460
(lp1461
g5
ag5
ag5
ag5
ag5
ag5
ag5
ag5
ag5
ag5
ag5
ag5
ag5
ag5
ag5
ag5
ag5
asS'intr_750'
p1462
(lp1463
g5
ag5
ag5
ag5
ag5
ag5
ag5
ag5
ag5
ag5
ag5
ag5
ag5
ag5
ag5
ag5
ag5
asS'intr_551'
p1464
(lp1465
g5
ag5
ag5
ag5
ag5
ag5
ag5
ag5
ag5
ag5
ag5
ag5
ag5
ag5
ag5
ag5
ag5
asS'intr_758'
p1466
(lp1467
g5
ag5
ag5
ag5
ag5
ag5
ag5
ag5
ag5
ag5
ag5
ag5
ag5
ag5
ag5
ag5
ag5
asS'intr_759'
p1468
(lp1469
g5
ag5
ag5
ag5
ag5
ag5
ag5
ag5
ag5
ag5
ag5
ag5
ag5
ag5
ag5
ag5
ag5
asS'intr_538'
p1470
(lp1471
g5
ag5
ag5
ag5
ag5
ag5
ag5
ag5
ag5
ag5
ag5
ag5
ag5
ag5
ag5
ag5
ag5
asS'intr_539'
p1472
(lp1473
g5
ag5
ag5
ag5
ag5
ag5
ag5
ag5
ag5
ag5
ag5
ag5
ag5
ag5
ag5
ag5
ag5
asS'intr_532'
p1474
(lp1475
g5
ag5
ag5
ag5
ag5
ag5
ag5
ag5
ag5
ag5
ag5
ag5
ag5
ag5
ag5
ag5
ag5
asS'intr_533'
p1476
(lp1477
g5
ag5
ag5
ag5
ag5
ag5
ag5
ag5
ag5
ag5
ag5
ag5
ag5
ag5
ag5
ag5
ag5
asS'intr_530'
p1478
(lp1479
g5
ag5
ag5
ag5
ag5
ag5
ag5
ag5
ag5
ag5
ag5
ag5
ag5
ag5
ag5
ag5
ag5
asS'intr_531'
p1480
(lp1481
g5
ag5
ag5
ag5
ag5
ag5
ag5
ag5
ag5
ag5
ag5
ag5
ag5
ag5
ag5
ag5
ag5
asS'intr_536'
p1482
(lp1483
g5
ag5
ag5
ag5
ag5
ag5
ag5
ag5
ag5
ag5
ag5
ag5
ag5
ag5
ag5
ag5
ag5
asS'intr_537'
p1484
(lp1485
g5
ag5
ag5
ag5
ag5
ag5
ag5
ag5
ag5
ag5
ag5
ag5
ag5
ag5
ag5
ag5
ag5
asS'intr_534'
p1486
(lp1487
g5
ag5
ag5
ag5
ag5
ag5
ag5
ag5
ag5
ag5
ag5
ag5
ag5
ag5
ag5
ag5
ag5
asS'intr_535'
p1488
(lp1489
g5
ag5
ag5
ag5
ag5
ag5
ag5
ag5
ag5
ag5
ag5
ag5
ag5
ag5
ag5
ag5
ag5
asS'intr_103'
p1490
(lp1491
g5
ag5
ag5
ag5
ag5
ag5
ag5
ag5
ag5
ag5
ag5
ag5
ag5
ag5
ag5
ag5
ag5
asS'intr_102'
p1492
(lp1493
g5
ag5
ag5
ag5
ag5
ag5
ag5
ag5
ag5
ag5
ag5
ag5
ag5
ag5
ag5
ag5
ag5
asS'intr_101'
p1494
(lp1495
g5
ag5
ag5
ag5
ag5
ag5
ag5
ag5
ag5
ag5
ag5
ag5
ag5
ag5
ag5
ag5
ag5
asS'intr_100'
p1496
(lp1497
g5
ag5
ag5
ag5
ag5
ag5
ag5
ag5
ag5
ag5
ag5
ag5
ag5
ag5
ag5
ag5
ag5
asS'intr_107'
p1498
(lp1499
g5
ag5
ag5
ag5
ag5
ag5
ag5
ag5
ag5
ag5
ag5
ag5
ag5
ag5
ag5
ag5
ag5
asS'intr_106'
p1500
(lp1501
g5
ag5
ag5
ag5
ag5
ag5
ag5
ag5
ag5
ag5
ag5
ag5
ag5
ag5
ag5
ag5
ag5
asS'intr_105'
p1502
(lp1503
g5
ag5
ag5
ag5
ag5
ag5
ag5
ag5
ag5
ag5
ag5
ag5
ag5
ag5
ag5
ag5
ag5
asS'intr_104'
p1504
(lp1505
g5
ag5
ag5
ag5
ag5
ag5
ag5
ag5
ag5
ag5
ag5
ag5
ag5
ag5
ag5
ag5
ag5
asS'intr_109'
p1506
(lp1507
g5
ag5
ag5
ag5
ag5
ag5
ag5
ag5
ag5
ag5
ag5
ag5
ag5
ag5
ag5
ag5
ag5
asS'intr_108'
p1508
(lp1509
g5
ag5
ag5
ag5
ag5
ag5
ag5
ag5
ag5
ag5
ag5
ag5
ag5
ag5
ag5
ag5
ag5
asS'intr_89'
p1510
(lp1511
g5
ag5
ag5
ag5
ag5
ag5
ag5
ag5
ag5
ag5
ag5
ag5
ag5
ag5
ag5
ag5
ag5
asS'intr_88'
p1512
(lp1513
g5
ag5
ag5
ag5
ag5
ag5
ag5
ag5
ag5
ag5
ag5
ag5
ag5
ag5
ag5
ag5
ag5
asS'intr_81'
p1514
(lp1515
g5
ag5
ag5
ag5
ag5
ag5
ag5
ag5
ag5
ag5
ag5
ag5
ag5
ag5
ag5
ag5
ag5
asS'intr_80'
p1516
(lp1517
g5
ag5
ag5
ag5
ag5
ag5
ag5
ag5
ag5
ag5
ag5
ag5
ag5
ag5
ag5
ag5
ag5
asS'intr_83'
p1518
(lp1519
g5
ag5
ag5
ag5
ag5
ag5
ag5
ag5
ag5
ag5
ag5
ag5
ag5
ag5
ag5
ag5
ag5
asS'intr_82'
p1520
(lp1521
g5
ag5
ag5
ag5
ag5
ag5
ag5
ag5
ag5
ag5
ag5
ag5
ag5
ag5
ag5
ag5
ag5
asS'intr_85'
p1522
(lp1523
g5
ag5
ag5
ag5
ag5
ag5
ag5
ag5
ag5
ag5
ag5
ag5
ag5
ag5
ag5
ag5
ag5
asS'intr_84'
p1524
(lp1525
g5
ag5
ag5
ag5
ag5
ag5
ag5
ag5
ag5
ag5
ag5
ag5
ag5
ag5
ag5
ag5
ag5
asS'intr_87'
p1526
(lp1527
g5
ag5
ag5
ag5
ag5
ag5
ag5
ag5
ag5
ag5
ag5
ag5
ag5
ag5
ag5
ag5
ag5
asS'intr_86'
p1528
(lp1529
g5
ag5
ag5
ag5
ag5
ag5
ag5
ag5
ag5
ag5
ag5
ag5
ag5
ag5
ag5
ag5
ag5
asS'intr_562'
p1530
(lp1531
g5
ag5
ag5
ag5
ag5
ag5
ag5
ag5
ag5
ag5
ag5
ag5
ag5
ag5
ag5
ag5
ag5
asS'intr_589'
p1532
(lp1533
g5
ag5
ag5
ag5
ag5
ag5
ag5
ag5
ag5
ag5
ag5
ag5
ag5
ag5
ag5
ag5
ag5
asS'intr_588'
p1534
(lp1535
g5
ag5
ag5
ag5
ag5
ag5
ag5
ag5
ag5
ag5
ag5
ag5
ag5
ag5
ag5
ag5
ag5
asS'intr_587'
p1536
(lp1537
g5
ag5
ag5
ag5
ag5
ag5
ag5
ag5
ag5
ag5
ag5
ag5
ag5
ag5
ag5
ag5
ag5
asS'intr_586'
p1538
(lp1539
g5
ag5
ag5
ag5
ag5
ag5
ag5
ag5
ag5
ag5
ag5
ag5
ag5
ag5
ag5
ag5
ag5
asS'intr_585'
p1540
(lp1541
g5
ag5
ag5
ag5
ag5
ag5
ag5
ag5
ag5
ag5
ag5
ag5
ag5
ag5
ag5
ag5
ag5
asS'intr_584'
p1542
(lp1543
g5
ag5
ag5
ag5
ag5
ag5
ag5
ag5
ag5
ag5
ag5
ag5
ag5
ag5
ag5
ag5
ag5
asS'intr_583'
p1544
(lp1545
g5
ag5
ag5
ag5
ag5
ag5
ag5
ag5
ag5
ag5
ag5
ag5
ag5
ag5
ag5
ag5
ag5
asS'intr_582'
p1546
(lp1547
g5
ag5
ag5
ag5
ag5
ag5
ag5
ag5
ag5
ag5
ag5
ag5
ag5
ag5
ag5
ag5
ag5
asS'intr_581'
p1548
(lp1549
g5
ag5
ag5
ag5
ag5
ag5
ag5
ag5
ag5
ag5
ag5
ag5
ag5
ag5
ag5
ag5
ag5
asS'intr_580'
p1550
(lp1551
g5
ag5
ag5
ag5
ag5
ag5
ag5
ag5
ag5
ag5
ag5
ag5
ag5
ag5
ag5
ag5
ag5
asS'intr_569'
p1552
(lp1553
g5
ag5
ag5
ag5
ag5
ag5
ag5
ag5
ag5
ag5
ag5
ag5
ag5
ag5
ag5
ag5
ag5
asS'intr_408'
p1554
(lp1555
g5
ag5
ag5
ag5
ag5
ag5
ag5
ag5
ag5
ag5
ag5
ag5
ag5
ag5
ag5
ag5
ag5
asS'intr_409'
p1556
(lp1557
g5
ag5
ag5
ag5
ag5
ag5
ag5
ag5
ag5
ag5
ag5
ag5
ag5
ag5
ag5
ag5
ag5
asS'intr_406'
p1558
(lp1559
g5
ag5
ag5
ag5
ag5
ag5
ag5
ag5
ag5
ag5
ag5
ag5
ag5
ag5
ag5
ag5
ag5
asS'intr_407'
p1560
(lp1561
g5
ag5
ag5
ag5
ag5
ag5
ag5
ag5
ag5
ag5
ag5
ag5
ag5
ag5
ag5
ag5
ag5
asS'intr_404'
p1562
(lp1563
g5
ag5
ag5
ag5
ag5
ag5
ag5
ag5
ag5
ag5
ag5
ag5
ag5
ag5
ag5
ag5
ag5
asS'intr_405'
p1564
(lp1565
g5
ag5
ag5
ag5
ag5
ag5
ag5
ag5
ag5
ag5
ag5
ag5
ag5
ag5
ag5
ag5
ag5
asS'intr_402'
p1566
(lp1567
g5
ag5
ag5
ag5
ag5
ag5
ag5
ag5
ag5
ag5
ag5
ag5
ag5
ag5
ag5
ag5
ag5
asS'intr_403'
p1568
(lp1569
g5
ag5
ag5
ag5
ag5
ag5
ag5
ag5
ag5
ag5
ag5
ag5
ag5
ag5
ag5
ag5
ag5
asS'intr_400'
p1570
(lp1571
g5
ag5
ag5
ag5
ag5
ag5
ag5
ag5
ag5
ag5
ag5
ag5
ag5
ag5
ag5
ag5
ag5
asS'intr_401'
p1572
(lp1573
g5
ag5
ag5
ag5
ag5
ag5
ag5
ag5
ag5
ag5
ag5
ag5
ag5
ag5
ag5
ag5
ag5
asS'intr_803'
p1574
(lp1575
g5
ag5
ag5
ag5
ag5
ag5
ag5
ag5
ag5
ag5
ag5
ag5
ag5
ag5
ag5
ag5
ag5
asS'intr_18'
p1576
(lp1577
S'344793'
p1578
aS'345053'
p1579
aS'345317'
p1580
aS'345318'
p1581
aS'345318'
p1582
aS'345322'
p1583
aS'345322'
p1584
aS'345322'
p1585
aS'345324'
p1586
aS'345324'
p1587
aS'345324'
p1588
aS'345324'
p1589
aS'345324'
p1590
aS'345324'
p1591
aS'345328'
p1592
aS'345328'
p1593
aS'345328'
p1594
asS'intr_19'
p1595
(lp1596
S'1974'
p1597
aS'1974'
p1598
aS'1974'
p1599
aS'1974'
p1600
aS'1974'
p1601
aS'1974'
p1602
aS'1974'
p1603
aS'1974'
p1604
aS'1974'
p1605
aS'1974'
p1606
aS'1974'
p1607
aS'1974'
p1608
aS'1974'
p1609
aS'1974'
p1610
aS'1974'
p1611
aS'1974'
p1612
aS'1974'
p1613
asS'intr_16'
p1614
(lp1615
S'53'
p1616
aS'53'
p1617
aS'53'
p1618
aS'53'
p1619
aS'53'
p1620
aS'53'
p1621
aS'53'
p1622
aS'53'
p1623
aS'53'
p1624
aS'53'
p1625
aS'53'
p1626
aS'53'
p1627
aS'53'
p1628
aS'53'
p1629
aS'53'
p1630
aS'53'
p1631
aS'53'
p1632
asS'intr_17'
p1633
(lp1634
g5
ag5
ag5
ag5
ag5
ag5
ag5
ag5
ag5
ag5
ag5
ag5
ag5
ag5
ag5
ag5
ag5
asS'intr_14'
p1635
(lp1636
S'246'
p1637
aS'246'
p1638
aS'246'
p1639
aS'246'
p1640
aS'246'
p1641
aS'246'
p1642
aS'246'
p1643
aS'246'
p1644
aS'246'
p1645
aS'246'
p1646
aS'246'
p1647
aS'246'
p1648
aS'246'
p1649
aS'246'
p1650
aS'246'
p1651
aS'246'
p1652
aS'246'
p1653
asS'intr_15'
p1654
(lp1655
g5
ag5
ag5
ag5
ag5
ag5
ag5
ag5
ag5
ag5
ag5
ag5
ag5
ag5
ag5
ag5
ag5
asS'intr_12'
p1656
(lp1657
g5
ag5
ag5
ag5
ag5
ag5
ag5
ag5
ag5
ag5
ag5
ag5
ag5
ag5
ag5
ag5
ag5
asS'intr_13'
p1658
(lp1659
g5
ag5
ag5
ag5
ag5
ag5
ag5
ag5
ag5
ag5
ag5
ag5
ag5
ag5
ag5
ag5
ag5
asS'intr_10'
p1660
(lp1661
g5
ag5
ag5
ag5
ag5
ag5
ag5
ag5
ag5
ag5
ag5
ag5
ag5
ag5
ag5
ag5
ag5
asS'intr_11'
p1662
(lp1663
S'483509'
p1664
aS'483509'
p1665
aS'483509'
p1666
aS'483509'
p1667
aS'483509'
p1668
aS'483509'
p1669
aS'483697'
p1670
aS'483697'
p1671
aS'483697'
p1672
aS'483697'
p1673
aS'483697'
p1674
aS'483697'
p1675
aS'483697'
p1676
aS'483697'
p1677
aS'483697'
p1678
aS'483697'
p1679
aS'483697'
p1680
asS'intr_350'
p1681
(lp1682
g5
ag5
ag5
ag5
ag5
ag5
ag5
ag5
ag5
ag5
ag5
ag5
ag5
ag5
ag5
ag5
ag5
asS'intr_805'
p1683
(lp1684
g5
ag5
ag5
ag5
ag5
ag5
ag5
ag5
ag5
ag5
ag5
ag5
ag5
ag5
ag5
ag5
ag5
asS'intr_244'
p1685
(lp1686
g5
ag5
ag5
ag5
ag5
ag5
ag5
ag5
ag5
ag5
ag5
ag5
ag5
ag5
ag5
ag5
ag5
asS'intr_245'
p1687
(lp1688
g5
ag5
ag5
ag5
ag5
ag5
ag5
ag5
ag5
ag5
ag5
ag5
ag5
ag5
ag5
ag5
ag5
asS'intr_246'
p1689
(lp1690
g5
ag5
ag5
ag5
ag5
ag5
ag5
ag5
ag5
ag5
ag5
ag5
ag5
ag5
ag5
ag5
ag5
asS'intr_247'
p1691
(lp1692
g5
ag5
ag5
ag5
ag5
ag5
ag5
ag5
ag5
ag5
ag5
ag5
ag5
ag5
ag5
ag5
ag5
asS'intr_240'
p1693
(lp1694
g5
ag5
ag5
ag5
ag5
ag5
ag5
ag5
ag5
ag5
ag5
ag5
ag5
ag5
ag5
ag5
ag5
asS'intr_241'
p1695
(lp1696
g5
ag5
ag5
ag5
ag5
ag5
ag5
ag5
ag5
ag5
ag5
ag5
ag5
ag5
ag5
ag5
ag5
asS'intr_242'
p1697
(lp1698
g5
ag5
ag5
ag5
ag5
ag5
ag5
ag5
ag5
ag5
ag5
ag5
ag5
ag5
ag5
ag5
ag5
asS'intr_243'
p1699
(lp1700
g5
ag5
ag5
ag5
ag5
ag5
ag5
ag5
ag5
ag5
ag5
ag5
ag5
ag5
ag5
ag5
ag5
asS'intr_323'
p1701
(lp1702
g5
ag5
ag5
ag5
ag5
ag5
ag5
ag5
ag5
ag5
ag5
ag5
ag5
ag5
ag5
ag5
ag5
asS'intr_322'
p1703
(lp1704
g5
ag5
ag5
ag5
ag5
ag5
ag5
ag5
ag5
ag5
ag5
ag5
ag5
ag5
ag5
ag5
ag5
asS'intr_321'
p1705
(lp1706
g5
ag5
ag5
ag5
ag5
ag5
ag5
ag5
ag5
ag5
ag5
ag5
ag5
ag5
ag5
ag5
ag5
asS'intr_320'
p1707
(lp1708
g5
ag5
ag5
ag5
ag5
ag5
ag5
ag5
ag5
ag5
ag5
ag5
ag5
ag5
ag5
ag5
ag5
asS'intr_248'
p1709
(lp1710
g5
ag5
ag5
ag5
ag5
ag5
ag5
ag5
ag5
ag5
ag5
ag5
ag5
ag5
ag5
ag5
ag5
asS'intr_249'
p1711
(lp1712
g5
ag5
ag5
ag5
ag5
ag5
ag5
ag5
ag5
ag5
ag5
ag5
ag5
ag5
ag5
ag5
ag5
asS'intr_325'
p1713
(lp1714
g5
ag5
ag5
ag5
ag5
ag5
ag5
ag5
ag5
ag5
ag5
ag5
ag5
ag5
ag5
ag5
ag5
asS'intr_324'
p1715
(lp1716
g5
ag5
ag5
ag5
ag5
ag5
ag5
ag5
ag5
ag5
ag5
ag5
ag5
ag5
ag5
ag5
ag5
asS'intr_712'
p1717
(lp1718
g5
ag5
ag5
ag5
ag5
ag5
ag5
ag5
ag5
ag5
ag5
ag5
ag5
ag5
ag5
ag5
ag5
asS'intr_713'
p1719
(lp1720
g5
ag5
ag5
ag5
ag5
ag5
ag5
ag5
ag5
ag5
ag5
ag5
ag5
ag5
ag5
ag5
ag5
asS'intr_710'
p1721
(lp1722
g5
ag5
ag5
ag5
ag5
ag5
ag5
ag5
ag5
ag5
ag5
ag5
ag5
ag5
ag5
ag5
ag5
asS'intr_711'
p1723
(lp1724
g5
ag5
ag5
ag5
ag5
ag5
ag5
ag5
ag5
ag5
ag5
ag5
ag5
ag5
ag5
ag5
ag5
asS'intr_716'
p1725
(lp1726
g5
ag5
ag5
ag5
ag5
ag5
ag5
ag5
ag5
ag5
ag5
ag5
ag5
ag5
ag5
ag5
ag5
asS'intr_717'
p1727
(lp1728
g5
ag5
ag5
ag5
ag5
ag5
ag5
ag5
ag5
ag5
ag5
ag5
ag5
ag5
ag5
ag5
ag5
asS'intr_714'
p1729
(lp1730
g5
ag5
ag5
ag5
ag5
ag5
ag5
ag5
ag5
ag5
ag5
ag5
ag5
ag5
ag5
ag5
ag5
asS'intr_715'
p1731
(lp1732
g5
ag5
ag5
ag5
ag5
ag5
ag5
ag5
ag5
ag5
ag5
ag5
ag5
ag5
ag5
ag5
ag5
asS'intr_718'
p1733
(lp1734
g5
ag5
ag5
ag5
ag5
ag5
ag5
ag5
ag5
ag5
ag5
ag5
ag5
ag5
ag5
ag5
ag5
asS'intr_719'
p1735
(lp1736
g5
ag5
ag5
ag5
ag5
ag5
ag5
ag5
ag5
ag5
ag5
ag5
ag5
ag5
ag5
ag5
ag5
asS'intr_4'
p1737
(lp1738
g5
ag5
ag5
ag5
ag5
ag5
ag5
ag5
ag5
ag5
ag5
ag5
ag5
ag5
ag5
ag5
ag5
asS'intr_5'
p1739
(lp1740
g5
ag5
ag5
ag5
ag5
ag5
ag5
ag5
ag5
ag5
ag5
ag5
ag5
ag5
ag5
ag5
ag5
asS'intr_6'
p1741
(lp1742
g5
ag5
ag5
ag5
ag5
ag5
ag5
ag5
ag5
ag5
ag5
ag5
ag5
ag5
ag5
ag5
ag5
asS'intr_7'
p1743
(lp1744
g5
ag5
ag5
ag5
ag5
ag5
ag5
ag5
ag5
ag5
ag5
ag5
ag5
ag5
ag5
ag5
ag5
asS'cpu1_8'
p1745
(lp1746
g5
ag5
ag5
ag5
ag5
ag5
ag5
ag5
ag5
ag5
ag5
ag5
ag5
ag5
ag5
ag5
ag5
asS'intr_1'
p1747
(lp1748
S'7147565'
p1749
aS'7148005'
p1750
aS'7148731'
p1751
aS'7149201'
p1752
aS'7149721'
p1753
aS'7150269'
p1754
aS'7151285'
p1755
aS'7151814'
p1756
aS'7152204'
p1757
aS'7152596'
p1758
aS'7153209'
p1759
aS'7153919'
p1760
aS'7154216'
p1761
aS'7154751'
p1762
aS'7155249'
p1763
aS'7155546'
p1764
aS'7155872'
p1765
asS'intr_2'
p1766
(lp1767
S'106'
p1768
aS'106'
p1769
aS'106'
p1770
aS'106'
p1771
aS'106'
p1772
aS'106'
p1773
aS'106'
p1774
aS'106'
p1775
aS'106'
p1776
aS'106'
p1777
aS'106'
p1778
aS'106'
p1779
aS'106'
p1780
aS'106'
p1781
aS'106'
p1782
aS'106'
p1783
aS'106'
p1784
asS'intr_3'
p1785
(lp1786
S'32'
p1787
aS'32'
p1788
aS'32'
p1789
aS'32'
p1790
aS'32'
p1791
aS'32'
p1792
aS'32'
p1793
aS'32'
p1794
aS'32'
p1795
aS'32'
p1796
aS'32'
p1797
aS'32'
p1798
aS'32'
p1799
aS'32'
p1800
aS'32'
p1801
aS'32'
p1802
aS'32'
p1803
asS'cpu1_4'
p1804
(lp1805
S'8076102'
p1806
aS'8076195'
p1807
aS'8076270'
p1808
aS'8076317'
p1809
aS'8076334'
p1810
aS'8076343'
p1811
aS'8076345'
p1812
aS'8076346'
p1813
aS'8076409'
p1814
aS'8076477'
p1815
aS'8076488'
p1816
aS'8076576'
p1817
aS'8076676'
p1818
aS'8076687'
p1819
aS'8076732'
p1820
aS'8076832'
p1821
aS'8076923'
p1822
asS'cpu1_5'
p1823
(lp1824
S'10392'
p1825
aS'10392'
p1826
aS'10408'
p1827
aS'10408'
p1828
aS'10408'
p1829
aS'10408'
p1830
aS'10408'
p1831
aS'10408'
p1832
aS'10408'
p1833
aS'10408'
p1834
aS'10408'
p1835
aS'10408'
p1836
aS'10408'
p1837
aS'10408'
p1838
aS'10409'
p1839
aS'10409'
p1840
aS'10409'
p1841
asS'cpu1_6'
p1842
(lp1843
g5
ag5
ag5
ag5
ag5
ag5
ag5
ag5
ag5
ag5
ag5
ag5
ag5
ag5
ag5
ag5
ag5
asS'cpu1_7'
p1844
(lp1845
S'2792'
p1846
aS'2792'
p1847
aS'2792'
p1848
aS'2792'
p1849
aS'2792'
p1850
aS'2792'
p1851
aS'2792'
p1852
aS'2792'
p1853
aS'2792'
p1854
aS'2792'
p1855
aS'2792'
p1856
aS'2792'
p1857
aS'2792'
p1858
aS'2792'
p1859
aS'2792'
p1860
aS'2792'
p1861
aS'2792'
p1862
asS'intr_143'
p1863
(lp1864
g5
ag5
ag5
ag5
ag5
ag5
ag5
ag5
ag5
ag5
ag5
ag5
ag5
ag5
ag5
ag5
ag5
asS'intr_9'
p1865
(lp1866
g5
ag5
ag5
ag5
ag5
ag5
ag5
ag5
ag5
ag5
ag5
ag5
ag5
ag5
ag5
ag5
ag5
asS'cpu1_2'
p1867
(lp1868
S'3770'
p1869
aS'3770'
p1870
aS'3770'
p1871
aS'3770'
p1872
aS'3770'
p1873
aS'3770'
p1874
aS'3770'
p1875
aS'3770'
p1876
aS'3770'
p1877
aS'3770'
p1878
aS'3770'
p1879
aS'3770'
p1880
aS'3770'
p1881
aS'3770'
p1882
aS'3770'
p1883
aS'3770'
p1884
aS'3770'
p1885
asS'cpu1_3'
p1886
(lp1887
S'25808'
p1888
aS'25808'
p1889
aS'25810'
p1890
aS'25816'
p1891
aS'25822'
p1892
aS'25827'
p1893
aS'25834'
p1894
aS'25834'
p1895
aS'25838'
p1896
aS'25838'
p1897
aS'25848'
p1898
aS'25852'
p1899
aS'25852'
p1900
aS'25852'
p1901
aS'25860'
p1902
aS'25860'
p1903
aS'25860'
p1904
asS'intr_666'
p1905
(lp1906
g5
ag5
ag5
ag5
ag5
ag5
ag5
ag5
ag5
ag5
ag5
ag5
ag5
ag5
ag5
ag5
ag5
asS'intr_667'
p1907
(lp1908
g5
ag5
ag5
ag5
ag5
ag5
ag5
ag5
ag5
ag5
ag5
ag5
ag5
ag5
ag5
ag5
ag5
asS'intr_664'
p1909
(lp1910
g5
ag5
ag5
ag5
ag5
ag5
ag5
ag5
ag5
ag5
ag5
ag5
ag5
ag5
ag5
ag5
ag5
asS'intr_665'
p1911
(lp1912
g5
ag5
ag5
ag5
ag5
ag5
ag5
ag5
ag5
ag5
ag5
ag5
ag5
ag5
ag5
ag5
ag5
asS'intr_662'
p1913
(lp1914
g5
ag5
ag5
ag5
ag5
ag5
ag5
ag5
ag5
ag5
ag5
ag5
ag5
ag5
ag5
ag5
ag5
asS'intr_663'
p1915
(lp1916
g5
ag5
ag5
ag5
ag5
ag5
ag5
ag5
ag5
ag5
ag5
ag5
ag5
ag5
ag5
ag5
ag5
asS'intr_660'
p1917
(lp1918
g5
ag5
ag5
ag5
ag5
ag5
ag5
ag5
ag5
ag5
ag5
ag5
ag5
ag5
ag5
ag5
ag5
asS'intr_661'
p1919
(lp1920
g5
ag5
ag5
ag5
ag5
ag5
ag5
ag5
ag5
ag5
ag5
ag5
ag5
ag5
ag5
ag5
ag5
asS'intr_785'
p1921
(lp1922
g5
ag5
ag5
ag5
ag5
ag5
ag5
ag5
ag5
ag5
ag5
ag5
ag5
ag5
ag5
ag5
ag5
asS'intr_784'
p1923
(lp1924
g5
ag5
ag5
ag5
ag5
ag5
ag5
ag5
ag5
ag5
ag5
ag5
ag5
ag5
ag5
ag5
ag5
asS'intr_787'
p1925
(lp1926
g5
ag5
ag5
ag5
ag5
ag5
ag5
ag5
ag5
ag5
ag5
ag5
ag5
ag5
ag5
ag5
ag5
asS'intr_786'
p1927
(lp1928
g5
ag5
ag5
ag5
ag5
ag5
ag5
ag5
ag5
ag5
ag5
ag5
ag5
ag5
ag5
ag5
ag5
asS'intr_464'
p1929
(lp1930
g5
ag5
ag5
ag5
ag5
ag5
ag5
ag5
ag5
ag5
ag5
ag5
ag5
ag5
ag5
ag5
ag5
asS'intr_780'
p1931
(lp1932
g5
ag5
ag5
ag5
ag5
ag5
ag5
ag5
ag5
ag5
ag5
ag5
ag5
ag5
ag5
ag5
ag5
asS'intr_668'
p1933
(lp1934
g5
ag5
ag5
ag5
ag5
ag5
ag5
ag5
ag5
ag5
ag5
ag5
ag5
ag5
ag5
ag5
ag5
asS'intr_669'
p1935
(lp1936
g5
ag5
ag5
ag5
ag5
ag5
ag5
ag5
ag5
ag5
ag5
ag5
ag5
ag5
ag5
ag5
ag5
asS'intr_501'
p1937
(lp1938
g5
ag5
ag5
ag5
ag5
ag5
ag5
ag5
ag5
ag5
ag5
ag5
ag5
ag5
ag5
ag5
ag5
asS'intr_798'
p1939
(lp1940
g5
ag5
ag5
ag5
ag5
ag5
ag5
ag5
ag5
ag5
ag5
ag5
ag5
ag5
ag5
ag5
ag5
asS'intr_799'
p1941
(lp1942
g5
ag5
ag5
ag5
ag5
ag5
ag5
ag5
ag5
ag5
ag5
ag5
ag5
ag5
ag5
ag5
ag5
asS'intr_500'
p1943
(lp1944
g5
ag5
ag5
ag5
ag5
ag5
ag5
ag5
ag5
ag5
ag5
ag5
ag5
ag5
ag5
ag5
ag5
asS'intr_448'
p1945
(lp1946
g5
ag5
ag5
ag5
ag5
ag5
ag5
ag5
ag5
ag5
ag5
ag5
ag5
ag5
ag5
ag5
ag5
asS'intr_449'
p1947
(lp1948
g5
ag5
ag5
ag5
ag5
ag5
ag5
ag5
ag5
ag5
ag5
ag5
ag5
ag5
ag5
ag5
ag5
asS'intr_442'
p1949
(lp1950
g5
ag5
ag5
ag5
ag5
ag5
ag5
ag5
ag5
ag5
ag5
ag5
ag5
ag5
ag5
ag5
ag5
asS'intr_443'
p1951
(lp1952
g5
ag5
ag5
ag5
ag5
ag5
ag5
ag5
ag5
ag5
ag5
ag5
ag5
ag5
ag5
ag5
ag5
asS'intr_440'
p1953
(lp1954
g5
ag5
ag5
ag5
ag5
ag5
ag5
ag5
ag5
ag5
ag5
ag5
ag5
ag5
ag5
ag5
ag5
asS'intr_441'
p1955
(lp1956
g5
ag5
ag5
ag5
ag5
ag5
ag5
ag5
ag5
ag5
ag5
ag5
ag5
ag5
ag5
ag5
ag5
asS'intr_446'
p1957
(lp1958
g5
ag5
ag5
ag5
ag5
ag5
ag5
ag5
ag5
ag5
ag5
ag5
ag5
ag5
ag5
ag5
ag5
asS'intr_447'
p1959
(lp1960
g5
ag5
ag5
ag5
ag5
ag5
ag5
ag5
ag5
ag5
ag5
ag5
ag5
ag5
ag5
ag5
ag5
asS'intr_444'
p1961
(lp1962
g5
ag5
ag5
ag5
ag5
ag5
ag5
ag5
ag5
ag5
ag5
ag5
ag5
ag5
ag5
ag5
ag5
asS'intr_445'
p1963
(lp1964
g5
ag5
ag5
ag5
ag5
ag5
ag5
ag5
ag5
ag5
ag5
ag5
ag5
ag5
ag5
ag5
ag5
asS'intr_561'
p1965
(lp1966
g5
ag5
ag5
ag5
ag5
ag5
ag5
ag5
ag5
ag5
ag5
ag5
ag5
ag5
ag5
ag5
ag5
asS'intr_560'
p1967
(lp1968
g5
ag5
ag5
ag5
ag5
ag5
ag5
ag5
ag5
ag5
ag5
ag5
ag5
ag5
ag5
ag5
ag5
asS'cpu_8'
p1969
(lp1970
g5
ag5
ag5
ag5
ag5
ag5
ag5
ag5
ag5
ag5
ag5
ag5
ag5
ag5
ag5
ag5
ag5
asS'cpu_9'
p1971
(lp1972
g5
ag5
ag5
ag5
ag5
ag5
ag5
ag5
ag5
ag5
ag5
ag5
ag5
ag5
ag5
ag5
ag5
asS'intr_565'
p1973
(lp1974
g5
ag5
ag5
ag5
ag5
ag5
ag5
ag5
ag5
ag5
ag5
ag5
ag5
ag5
ag5
ag5
ag5
asS'intr_564'
p1975
(lp1976
g5
ag5
ag5
ag5
ag5
ag5
ag5
ag5
ag5
ag5
ag5
ag5
ag5
ag5
ag5
ag5
ag5
asS'intr_567'
p1977
(lp1978
g5
ag5
ag5
ag5
ag5
ag5
ag5
ag5
ag5
ag5
ag5
ag5
ag5
ag5
ag5
ag5
ag5
asS'intr_566'
p1979
(lp1980
g5
ag5
ag5
ag5
ag5
ag5
ag5
ag5
ag5
ag5
ag5
ag5
ag5
ag5
ag5
ag5
ag5
asS'cpu_2'
p1981
(lp1982
S'5734'
p1983
aS'5734'
p1984
aS'5734'
p1985
aS'5734'
p1986
aS'5734'
p1987
aS'5734'
p1988
aS'5734'
p1989
aS'5734'
p1990
aS'5734'
p1991
aS'5734'
p1992
aS'5734'
p1993
aS'5734'
p1994
aS'5734'
p1995
aS'5734'
p1996
aS'5734'
p1997
aS'5734'
p1998
aS'5734'
p1999
asS'cpu_3'
p2000
(lp2001
S'64706'
p2002
aS'64711'
p2003
aS'64722'
p2004
aS'64735'
p2005
aS'64751'
p2006
aS'64762'
p2007
aS'64778'
p2008
aS'64779'
p2009
aS'64786'
p2010
aS'64787'
p2011
aS'64807'
p2012
aS'64813'
p2013
aS'64813'
p2014
aS'64814'
p2015
aS'64826'
p2016
aS'64826'
p2017
aS'64828'
p2018
asS'cpu_1'
p2019
(lp2020
S'310632'
p2021
aS'310633'
p2022
aS'310664'
p2023
aS'310775'
p2024
aS'310899'
p2025
aS'311043'
p2026
aS'311180'
p2027
aS'311297'
p2028
aS'311415'
p2029
aS'311539'
p2030
aS'311708'
p2031
aS'311813'
p2032
aS'311913'
p2033
aS'312089'
p2034
aS'312231'
p2035
aS'312331'
p2036
aS'312432'
p2037
asS'cpu_6'
p2038
(lp2039
g5
ag5
ag5
ag5
ag5
ag5
ag5
ag5
ag5
ag5
ag5
ag5
ag5
ag5
ag5
ag5
ag5
asS'cpu_7'
p2040
(lp2041
S'18029'
p2042
aS'18029'
p2043
aS'18029'
p2044
aS'18029'
p2045
aS'18029'
p2046
aS'18029'
p2047
aS'18029'
p2048
aS'18029'
p2049
aS'18029'
p2050
aS'18029'
p2051
aS'18029'
p2052
aS'18029'
p2053
aS'18029'
p2054
aS'18029'
p2055
aS'18029'
p2056
aS'18029'
p2057
aS'18029'
p2058
asS'cpu_4'
p2059
(lp2060
S'16071460'
p2061
aS'16071557'
p2062
aS'16071640'
p2063
aS'16071716'
p2064
aS'16071775'
p2065
aS'16071812'
p2066
aS'16071860'
p2067
aS'16071942'
p2068
aS'16072016'
p2069
aS'16072092'
p2070
aS'16072103'
p2071
aS'16072192'
p2072
aS'16072292'
p2073
aS'16072315'
p2074
aS'16072360'
p2075
aS'16072460'
p2076
aS'16072558'
p2077
asS'cpu_5'
p2078
(lp2079
S'64394'
p2080
aS'64485'
p2081
aS'64568'
p2082
aS'64568'
p2083
aS'64568'
p2084
aS'64576'
p2085
aS'64576'
p2086
aS'64576'
p2087
aS'64576'
p2088
aS'64576'
p2089
aS'64576'
p2090
aS'64576'
p2091
aS'64576'
p2092
aS'64576'
p2093
aS'64576'
p2094
aS'64576'
p2095
aS'64576'
p2096
asS'intr_52'
p2097
(lp2098
g5
ag5
ag5
ag5
ag5
ag5
ag5
ag5
ag5
ag5
ag5
ag5
ag5
ag5
ag5
ag5
ag5
asS'intr_53'
p2099
(lp2100
g5
ag5
ag5
ag5
ag5
ag5
ag5
ag5
ag5
ag5
ag5
ag5
ag5
ag5
ag5
ag5
ag5
asS'intr_50'
p2101
(lp2102
g5
ag5
ag5
ag5
ag5
ag5
ag5
ag5
ag5
ag5
ag5
ag5
ag5
ag5
ag5
ag5
ag5
asS'intr_51'
p2103
(lp2104
g5
ag5
ag5
ag5
ag5
ag5
ag5
ag5
ag5
ag5
ag5
ag5
ag5
ag5
ag5
ag5
ag5
asS'intr_56'
p2105
(lp2106
g5
ag5
ag5
ag5
ag5
ag5
ag5
ag5
ag5
ag5
ag5
ag5
ag5
ag5
ag5
ag5
ag5
asS'intr_57'
p2107
(lp2108
g5
ag5
ag5
ag5
ag5
ag5
ag5
ag5
ag5
ag5
ag5
ag5
ag5
ag5
ag5
ag5
ag5
asS'intr_54'
p2109
(lp2110
g5
ag5
ag5
ag5
ag5
ag5
ag5
ag5
ag5
ag5
ag5
ag5
ag5
ag5
ag5
ag5
ag5
asS'intr_55'
p2111
(lp2112
g5
ag5
ag5
ag5
ag5
ag5
ag5
ag5
ag5
ag5
ag5
ag5
ag5
ag5
ag5
ag5
ag5
asS'intr_58'
p2113
(lp2114
g5
ag5
ag5
ag5
ag5
ag5
ag5
ag5
ag5
ag5
ag5
ag5
ag5
ag5
ag5
ag5
ag5
asS'intr_59'
p2115
(lp2116
g5
ag5
ag5
ag5
ag5
ag5
ag5
ag5
ag5
ag5
ag5
ag5
ag5
ag5
ag5
ag5
ag5
asS'intr_422'
p2117
(lp2118
g5
ag5
ag5
ag5
ag5
ag5
ag5
ag5
ag5
ag5
ag5
ag5
ag5
ag5
ag5
ag5
ag5
asS'intr_600'
p2119
(lp2120
g5
ag5
ag5
ag5
ag5
ag5
ag5
ag5
ag5
ag5
ag5
ag5
ag5
ag5
ag5
ag5
ag5
asS'intr_601'
p2121
(lp2122
g5
ag5
ag5
ag5
ag5
ag5
ag5
ag5
ag5
ag5
ag5
ag5
ag5
ag5
ag5
ag5
ag5
asS'intr_280'
p2123
(lp2124
g5
ag5
ag5
ag5
ag5
ag5
ag5
ag5
ag5
ag5
ag5
ag5
ag5
ag5
ag5
ag5
ag5
asS'intr_281'
p2125
(lp2126
g5
ag5
ag5
ag5
ag5
ag5
ag5
ag5
ag5
ag5
ag5
ag5
ag5
ag5
ag5
ag5
ag5
asS'intr_282'
p2127
(lp2128
g5
ag5
ag5
ag5
ag5
ag5
ag5
ag5
ag5
ag5
ag5
ag5
ag5
ag5
ag5
ag5
ag5
asS'intr_283'
p2129
(lp2130
g5
ag5
ag5
ag5
ag5
ag5
ag5
ag5
ag5
ag5
ag5
ag5
ag5
ag5
ag5
ag5
ag5
asS'intr_284'
p2131
(lp2132
g5
ag5
ag5
ag5
ag5
ag5
ag5
ag5
ag5
ag5
ag5
ag5
ag5
ag5
ag5
ag5
ag5
asS'intr_285'
p2133
(lp2134
g5
ag5
ag5
ag5
ag5
ag5
ag5
ag5
ag5
ag5
ag5
ag5
ag5
ag5
ag5
ag5
ag5
asS'intr_286'
p2135
(lp2136
g5
ag5
ag5
ag5
ag5
ag5
ag5
ag5
ag5
ag5
ag5
ag5
ag5
ag5
ag5
ag5
ag5
asS'intr_287'
p2137
(lp2138
g5
ag5
ag5
ag5
ag5
ag5
ag5
ag5
ag5
ag5
ag5
ag5
ag5
ag5
ag5
ag5
ag5
asS'intr_288'
p2139
(lp2140
g5
ag5
ag5
ag5
ag5
ag5
ag5
ag5
ag5
ag5
ag5
ag5
ag5
ag5
ag5
ag5
ag5
asS'intr_289'
p2141
(lp2142
g5
ag5
ag5
ag5
ag5
ag5
ag5
ag5
ag5
ag5
ag5
ag5
ag5
ag5
ag5
ag5
ag5
asS'intr_367'
p2143
(lp2144
g5
ag5
ag5
ag5
ag5
ag5
ag5
ag5
ag5
ag5
ag5
ag5
ag5
ag5
ag5
ag5
ag5
asS'intr_366'
p2145
(lp2146
g5
ag5
ag5
ag5
ag5
ag5
ag5
ag5
ag5
ag5
ag5
ag5
ag5
ag5
ag5
ag5
ag5
asS'intr_365'
p2147
(lp2148
g5
ag5
ag5
ag5
ag5
ag5
ag5
ag5
ag5
ag5
ag5
ag5
ag5
ag5
ag5
ag5
ag5
asS'intr_364'
p2149
(lp2150
g5
ag5
ag5
ag5
ag5
ag5
ag5
ag5
ag5
ag5
ag5
ag5
ag5
ag5
ag5
ag5
ag5
asS'intr_363'
p2151
(lp2152
g5
ag5
ag5
ag5
ag5
ag5
ag5
ag5
ag5
ag5
ag5
ag5
ag5
ag5
ag5
ag5
ag5
asS'intr_318'
p2153
(lp2154
g5
ag5
ag5
ag5
ag5
ag5
ag5
ag5
ag5
ag5
ag5
ag5
ag5
ag5
ag5
ag5
ag5
asS'intr_361'
p2155
(lp2156
g5
ag5
ag5
ag5
ag5
ag5
ag5
ag5
ag5
ag5
ag5
ag5
ag5
ag5
ag5
ag5
ag5
asS'intr_360'
p2157
(lp2158
g5
ag5
ag5
ag5
ag5
ag5
ag5
ag5
ag5
ag5
ag5
ag5
ag5
ag5
ag5
ag5
ag5
asS'intr_791'
p2159
(lp2160
g5
ag5
ag5
ag5
ag5
ag5
ag5
ag5
ag5
ag5
ag5
ag5
ag5
ag5
ag5
ag5
ag5
asS'intr_319'
p2161
(lp2162
g5
ag5
ag5
ag5
ag5
ag5
ag5
ag5
ag5
ag5
ag5
ag5
ag5
ag5
ag5
ag5
ag5
asS'intr_369'
p2163
(lp2164
g5
ag5
ag5
ag5
ag5
ag5
ag5
ag5
ag5
ag5
ag5
ag5
ag5
ag5
ag5
ag5
ag5
asS'intr_368'
p2165
(lp2166
g5
ag5
ag5
ag5
ag5
ag5
ag5
ag5
ag5
ag5
ag5
ag5
ag5
ag5
ag5
ag5
ag5
asS'intr_27'
p2167
(lp2168
g5
ag5
ag5
ag5
ag5
ag5
ag5
ag5
ag5
ag5
ag5
ag5
ag5
ag5
ag5
ag5
ag5
asS'intr_26'
p2169
(lp2170
g5
ag5
ag5
ag5
ag5
ag5
ag5
ag5
ag5
ag5
ag5
ag5
ag5
ag5
ag5
ag5
ag5
asS'intr_25'
p2171
(lp2172
S'371126'
p2173
aS'371126'
p2174
aS'371127'
p2175
aS'371127'
p2176
aS'371128'
p2177
aS'371128'
p2178
aS'371129'
p2179
aS'371129'
p2180
aS'371130'
p2181
aS'371130'
p2182
aS'371131'
p2183
aS'371131'
p2184
aS'371132'
p2185
aS'371132'
p2186
aS'371133'
p2187
aS'371133'
p2188
aS'371134'
p2189
asS'intr_24'
p2190
(lp2191
g5
ag5
ag5
ag5
ag5
ag5
ag5
ag5
ag5
ag5
ag5
ag5
ag5
ag5
ag5
ag5
ag5
asS'intr_23'
p2192
(lp2193
g5
ag5
ag5
ag5
ag5
ag5
ag5
ag5
ag5
ag5
ag5
ag5
ag5
ag5
ag5
ag5
ag5
asS'intr_22'
p2194
(lp2195
g5
ag5
ag5
ag5
ag5
ag5
ag5
ag5
ag5
ag5
ag5
ag5
ag5
ag5
ag5
ag5
ag5
asS'intr_21'
p2196
(lp2197
g5
ag5
ag5
ag5
ag5
ag5
ag5
ag5
ag5
ag5
ag5
ag5
ag5
ag5
ag5
ag5
ag5
asS'intr_20'
p2198
(lp2199
S'30'
p2200
aS'30'
p2201
aS'30'
p2202
aS'30'
p2203
aS'30'
p2204
aS'30'
p2205
aS'30'
p2206
aS'30'
p2207
aS'30'
p2208
aS'30'
p2209
aS'30'
p2210
aS'30'
p2211
aS'30'
p2212
aS'30'
p2213
aS'30'
p2214
aS'30'
p2215
aS'30'
p2216
asS'intr_29'
p2217
(lp2218
g5
ag5
ag5
ag5
ag5
ag5
ag5
ag5
ag5
ag5
ag5
ag5
ag5
ag5
ag5
ag5
ag5
asS'intr_28'
p2219
(lp2220
g5
ag5
ag5
ag5
ag5
ag5
ag5
ag5
ag5
ag5
ag5
ag5
ag5
ag5
ag5
ag5
ag5
asS'intr_465'
p2221
(lp2222
g5
ag5
ag5
ag5
ag5
ag5
ag5
ag5
ag5
ag5
ag5
ag5
ag5
ag5
ag5
ag5
ag5
asS'intr_310'
p2223
(lp2224
g5
ag5
ag5
ag5
ag5
ag5
ag5
ag5
ag5
ag5
ag5
ag5
ag5
ag5
ag5
ag5
ag5
asS'intr_738'
p2225
(lp2226
g5
ag5
ag5
ag5
ag5
ag5
ag5
ag5
ag5
ag5
ag5
ag5
ag5
ag5
ag5
ag5
ag5
asS'intr_311'
p2227
(lp2228
g5
ag5
ag5
ag5
ag5
ag5
ag5
ag5
ag5
ag5
ag5
ag5
ag5
ag5
ag5
ag5
ag5
asS'intr_739'
p2229
(lp2230
g5
ag5
ag5
ag5
ag5
ag5
ag5
ag5
ag5
ag5
ag5
ag5
ag5
ag5
ag5
ag5
ag5
asS'intr_433'
p2231
(lp2232
g5
ag5
ag5
ag5
ag5
ag5
ag5
ag5
ag5
ag5
ag5
ag5
ag5
ag5
ag5
ag5
ag5
asS'intr_219'
p2233
(lp2234
g5
ag5
ag5
ag5
ag5
ag5
ag5
ag5
ag5
ag5
ag5
ag5
ag5
ag5
ag5
ag5
ag5
asS'intr_218'
p2235
(lp2236
g5
ag5
ag5
ag5
ag5
ag5
ag5
ag5
ag5
ag5
ag5
ag5
ag5
ag5
ag5
ag5
ag5
asS'intr_213'
p2237
(lp2238
g5
ag5
ag5
ag5
ag5
ag5
ag5
ag5
ag5
ag5
ag5
ag5
ag5
ag5
ag5
ag5
ag5
asS'intr_212'
p2239
(lp2240
g5
ag5
ag5
ag5
ag5
ag5
ag5
ag5
ag5
ag5
ag5
ag5
ag5
ag5
ag5
ag5
ag5
asS'intr_211'
p2241
(lp2242
g5
ag5
ag5
ag5
ag5
ag5
ag5
ag5
ag5
ag5
ag5
ag5
ag5
ag5
ag5
ag5
ag5
asS'intr_210'
p2243
(lp2244
g5
ag5
ag5
ag5
ag5
ag5
ag5
ag5
ag5
ag5
ag5
ag5
ag5
ag5
ag5
ag5
ag5
asS'intr_217'
p2245
(lp2246
g5
ag5
ag5
ag5
ag5
ag5
ag5
ag5
ag5
ag5
ag5
ag5
ag5
ag5
ag5
ag5
ag5
asS'intr_216'
p2247
(lp2248
g5
ag5
ag5
ag5
ag5
ag5
ag5
ag5
ag5
ag5
ag5
ag5
ag5
ag5
ag5
ag5
ag5
asS'intr_215'
p2249
(lp2250
g5
ag5
ag5
ag5
ag5
ag5
ag5
ag5
ag5
ag5
ag5
ag5
ag5
ag5
ag5
ag5
ag5
asS'intr_214'
p2251
(lp2252
g5
ag5
ag5
ag5
ag5
ag5
ag5
ag5
ag5
ag5
ag5
ag5
ag5
ag5
ag5
ag5
ag5
asS'intr_776'
p2253
(lp2254
g5
ag5
ag5
ag5
ag5
ag5
ag5
ag5
ag5
ag5
ag5
ag5
ag5
ag5
ag5
ag5
ag5
asS'intr_735'
p2255
(lp2256
g5
ag5
ag5
ag5
ag5
ag5
ag5
ag5
ag5
ag5
ag5
ag5
ag5
ag5
ag5
ag5
ag5
asS'intr_432'
p2257
(lp2258
g5
ag5
ag5
ag5
ag5
ag5
ag5
ag5
ag5
ag5
ag5
ag5
ag5
ag5
ag5
ag5
ag5
asS'softirq_11'
p2259
(lp2260
S'1001304'
p2261
aS'1001388'
p2262
aS'1001440'
p2263
aS'1001451'
p2264
aS'1001457'
p2265
aS'1001468'
p2266
aS'1001603'
p2267
aS'1001609'
p2268
aS'1001616'
p2269
aS'1001647'
p2270
aS'1001653'
p2271
aS'1001667'
p2272
aS'1001673'
p2273
aS'1001679'
p2274
aS'1001685'
p2275
aS'1001691'
p2276
aS'1001697'
p2277
asS'intr_622'
p2278
(lp2279
g5
ag5
ag5
ag5
ag5
ag5
ag5
ag5
ag5
ag5
ag5
ag5
ag5
ag5
ag5
ag5
ag5
asS'intr_623'
p2280
(lp2281
g5
ag5
ag5
ag5
ag5
ag5
ag5
ag5
ag5
ag5
ag5
ag5
ag5
ag5
ag5
ag5
ag5
asS'intr_620'
p2282
(lp2283
g5
ag5
ag5
ag5
ag5
ag5
ag5
ag5
ag5
ag5
ag5
ag5
ag5
ag5
ag5
ag5
ag5
asS'intr_621'
p2284
(lp2285
g5
ag5
ag5
ag5
ag5
ag5
ag5
ag5
ag5
ag5
ag5
ag5
ag5
ag5
ag5
ag5
ag5
asS'intr_626'
p2286
(lp2287
g5
ag5
ag5
ag5
ag5
ag5
ag5
ag5
ag5
ag5
ag5
ag5
ag5
ag5
ag5
ag5
ag5
asS'intr_627'
p2288
(lp2289
g5
ag5
ag5
ag5
ag5
ag5
ag5
ag5
ag5
ag5
ag5
ag5
ag5
ag5
ag5
ag5
ag5
asS'intr_624'
p2290
(lp2291
g5
ag5
ag5
ag5
ag5
ag5
ag5
ag5
ag5
ag5
ag5
ag5
ag5
ag5
ag5
ag5
ag5
asS'intr_625'
p2292
(lp2293
g5
ag5
ag5
ag5
ag5
ag5
ag5
ag5
ag5
ag5
ag5
ag5
ag5
ag5
ag5
ag5
ag5
asS'intr_741'
p2294
(lp2295
g5
ag5
ag5
ag5
ag5
ag5
ag5
ag5
ag5
ag5
ag5
ag5
ag5
ag5
ag5
ag5
ag5
asS'intr_730'
p2296
(lp2297
g5
ag5
ag5
ag5
ag5
ag5
ag5
ag5
ag5
ag5
ag5
ag5
ag5
ag5
ag5
ag5
ag5
asS'intr_628'
p2298
(lp2299
g5
ag5
ag5
ag5
ag5
ag5
ag5
ag5
ag5
ag5
ag5
ag5
ag5
ag5
ag5
ag5
ag5
asS'intr_629'
p2300
(lp2301
g5
ag5
ag5
ag5
ag5
ag5
ag5
ag5
ag5
ag5
ag5
ag5
ag5
ag5
ag5
ag5
ag5
asS'intr_745'
p2302
(lp2303
g5
ag5
ag5
ag5
ag5
ag5
ag5
ag5
ag5
ag5
ag5
ag5
ag5
ag5
ag5
ag5
ag5
asS'intr_744'
p2304
(lp2305
g5
ag5
ag5
ag5
ag5
ag5
ag5
ag5
ag5
ag5
ag5
ag5
ag5
ag5
ag5
ag5
ag5
asS'intr_747'
p2306
(lp2307
g5
ag5
ag5
ag5
ag5
ag5
ag5
ag5
ag5
ag5
ag5
ag5
ag5
ag5
ag5
ag5
ag5
asS'intr_731'
p2308
(lp2309
g5
ag5
ag5
ag5
ag5
ag5
ag5
ag5
ag5
ag5
ag5
ag5
ag5
ag5
ag5
ag5
ag5
asS'intr_733'
p2310
(lp2311
g5
ag5
ag5
ag5
ag5
ag5
ag5
ag5
ag5
ag5
ag5
ag5
ag5
ag5
ag5
ag5
ag5
asS'intr_362'
p2312
(lp2313
g5
ag5
ag5
ag5
ag5
ag5
ag5
ag5
ag5
ag5
ag5
ag5
ag5
ag5
ag5
ag5
ag5
asS'intr_529'
p2314
(lp2315
g5
ag5
ag5
ag5
ag5
ag5
ag5
ag5
ag5
ag5
ag5
ag5
ag5
ag5
ag5
ag5
ag5
asS'intr_486'
p2316
(lp2317
g5
ag5
ag5
ag5
ag5
ag5
ag5
ag5
ag5
ag5
ag5
ag5
ag5
ag5
ag5
ag5
ag5
asS'intr_487'
p2318
(lp2319
g5
ag5
ag5
ag5
ag5
ag5
ag5
ag5
ag5
ag5
ag5
ag5
ag5
ag5
ag5
ag5
ag5
asS'intr_484'
p2320
(lp2321
g5
ag5
ag5
ag5
ag5
ag5
ag5
ag5
ag5
ag5
ag5
ag5
ag5
ag5
ag5
ag5
ag5
asS'intr_485'
p2322
(lp2323
g5
ag5
ag5
ag5
ag5
ag5
ag5
ag5
ag5
ag5
ag5
ag5
ag5
ag5
ag5
ag5
ag5
asS'intr_482'
p2324
(lp2325
g5
ag5
ag5
ag5
ag5
ag5
ag5
ag5
ag5
ag5
ag5
ag5
ag5
ag5
ag5
ag5
ag5
asS'intr_483'
p2326
(lp2327
g5
ag5
ag5
ag5
ag5
ag5
ag5
ag5
ag5
ag5
ag5
ag5
ag5
ag5
ag5
ag5
ag5
asS'intr_480'
p2328
(lp2329
g5
ag5
ag5
ag5
ag5
ag5
ag5
ag5
ag5
ag5
ag5
ag5
ag5
ag5
ag5
ag5
ag5
asS'intr_481'
p2330
(lp2331
g5
ag5
ag5
ag5
ag5
ag5
ag5
ag5
ag5
ag5
ag5
ag5
ag5
ag5
ag5
ag5
ag5
asS'intr_525'
p2332
(lp2333
g5
ag5
ag5
ag5
ag5
ag5
ag5
ag5
ag5
ag5
ag5
ag5
ag5
ag5
ag5
ag5
ag5
asS'intr_524'
p2334
(lp2335
g5
ag5
ag5
ag5
ag5
ag5
ag5
ag5
ag5
ag5
ag5
ag5
ag5
ag5
ag5
ag5
ag5
asS'intr_527'
p2336
(lp2337
g5
ag5
ag5
ag5
ag5
ag5
ag5
ag5
ag5
ag5
ag5
ag5
ag5
ag5
ag5
ag5
ag5
asS'intr_526'
p2338
(lp2339
g5
ag5
ag5
ag5
ag5
ag5
ag5
ag5
ag5
ag5
ag5
ag5
ag5
ag5
ag5
ag5
ag5
asS'intr_521'
p2340
(lp2341
g5
ag5
ag5
ag5
ag5
ag5
ag5
ag5
ag5
ag5
ag5
ag5
ag5
ag5
ag5
ag5
ag5
asS'intr_520'
p2342
(lp2343
g5
ag5
ag5
ag5
ag5
ag5
ag5
ag5
ag5
ag5
ag5
ag5
ag5
ag5
ag5
ag5
ag5
asS'intr_488'
p2344
(lp2345
g5
ag5
ag5
ag5
ag5
ag5
ag5
ag5
ag5
ag5
ag5
ag5
ag5
ag5
ag5
ag5
ag5
asS'intr_489'
p2346
(lp2347
g5
ag5
ag5
ag5
ag5
ag5
ag5
ag5
ag5
ag5
ag5
ag5
ag5
ag5
ag5
ag5
ag5
asS'intr_136'
p2348
(lp2349
g5
ag5
ag5
ag5
ag5
ag5
ag5
ag5
ag5
ag5
ag5
ag5
ag5
ag5
ag5
ag5
ag5
asS'intr_137'
p2350
(lp2351
g5
ag5
ag5
ag5
ag5
ag5
ag5
ag5
ag5
ag5
ag5
ag5
ag5
ag5
ag5
ag5
ag5
asS'intr_134'
p2352
(lp2353
g5
ag5
ag5
ag5
ag5
ag5
ag5
ag5
ag5
ag5
ag5
ag5
ag5
ag5
ag5
ag5
ag5
asS'intr_135'
p2354
(lp2355
g5
ag5
ag5
ag5
ag5
ag5
ag5
ag5
ag5
ag5
ag5
ag5
ag5
ag5
ag5
ag5
ag5
asS'intr_132'
p2356
(lp2357
g5
ag5
ag5
ag5
ag5
ag5
ag5
ag5
ag5
ag5
ag5
ag5
ag5
ag5
ag5
ag5
ag5
asS'intr_133'
p2358
(lp2359
g5
ag5
ag5
ag5
ag5
ag5
ag5
ag5
ag5
ag5
ag5
ag5
ag5
ag5
ag5
ag5
ag5
asS'intr_130'
p2360
(lp2361
g5
ag5
ag5
ag5
ag5
ag5
ag5
ag5
ag5
ag5
ag5
ag5
ag5
ag5
ag5
ag5
ag5
asS'intr_131'
p2362
(lp2363
g5
ag5
ag5
ag5
ag5
ag5
ag5
ag5
ag5
ag5
ag5
ag5
ag5
ag5
ag5
ag5
ag5
asS'intr_701'
p2364
(lp2365
g5
ag5
ag5
ag5
ag5
ag5
ag5
ag5
ag5
ag5
ag5
ag5
ag5
ag5
ag5
ag5
ag5
asS'intr_98'
p2366
(lp2367
g5
ag5
ag5
ag5
ag5
ag5
ag5
ag5
ag5
ag5
ag5
ag5
ag5
ag5
ag5
ag5
ag5
asS'intr_99'
p2368
(lp2369
g5
ag5
ag5
ag5
ag5
ag5
ag5
ag5
ag5
ag5
ag5
ag5
ag5
ag5
ag5
ag5
ag5
asS'intr_549'
p2370
(lp2371
g5
ag5
ag5
ag5
ag5
ag5
ag5
ag5
ag5
ag5
ag5
ag5
ag5
ag5
ag5
ag5
ag5
asS'ctxt_1'
p2372
(lp2373
S'4940537'
p2374
aS'4941306'
p2375
aS'4942201'
p2376
aS'4942328'
p2377
aS'4942425'
p2378
aS'4942555'
p2379
aS'4943253'
p2380
aS'4943306'
p2381
aS'4943378'
p2382
aS'4943436'
p2383
aS'4943559'
p2384
aS'4944374'
p2385
aS'4944420'
p2386
aS'4944503'
p2387
aS'4944670'
p2388
aS'4944716'
p2389
aS'4944769'
p2390
asS'intr_548'
p2391
(lp2392
g5
ag5
ag5
ag5
ag5
ag5
ag5
ag5
ag5
ag5
ag5
ag5
ag5
ag5
ag5
ag5
ag5
asS'intr_411'
p2393
(lp2394
g5
ag5
ag5
ag5
ag5
ag5
ag5
ag5
ag5
ag5
ag5
ag5
ag5
ag5
ag5
ag5
ag5
asS'intr_410'
p2395
(lp2396
g5
ag5
ag5
ag5
ag5
ag5
ag5
ag5
ag5
ag5
ag5
ag5
ag5
ag5
ag5
ag5
ag5
asS'intr_413'
p2397
(lp2398
g5
ag5
ag5
ag5
ag5
ag5
ag5
ag5
ag5
ag5
ag5
ag5
ag5
ag5
ag5
ag5
ag5
asS'intr_412'
p2399
(lp2400
g5
ag5
ag5
ag5
ag5
ag5
ag5
ag5
ag5
ag5
ag5
ag5
ag5
ag5
ag5
ag5
ag5
asS'intr_415'
p2401
(lp2402
g5
ag5
ag5
ag5
ag5
ag5
ag5
ag5
ag5
ag5
ag5
ag5
ag5
ag5
ag5
ag5
ag5
asS'intr_414'
p2403
(lp2404
g5
ag5
ag5
ag5
ag5
ag5
ag5
ag5
ag5
ag5
ag5
ag5
ag5
ag5
ag5
ag5
ag5
asS'intr_417'
p2405
(lp2406
g5
ag5
ag5
ag5
ag5
ag5
ag5
ag5
ag5
ag5
ag5
ag5
ag5
ag5
ag5
ag5
ag5
asS'intr_416'
p2407
(lp2408
g5
ag5
ag5
ag5
ag5
ag5
ag5
ag5
ag5
ag5
ag5
ag5
ag5
ag5
ag5
ag5
ag5
asS'intr_419'
p2409
(lp2410
g5
ag5
ag5
ag5
ag5
ag5
ag5
ag5
ag5
ag5
ag5
ag5
ag5
ag5
ag5
ag5
ag5
asS'intr_418'
p2411
(lp2412
g5
ag5
ag5
ag5
ag5
ag5
ag5
ag5
ag5
ag5
ag5
ag5
ag5
ag5
ag5
ag5
ag5
asS'intr_552'
p2413
(lp2414
g5
ag5
ag5
ag5
ag5
ag5
ag5
ag5
ag5
ag5
ag5
ag5
ag5
ag5
ag5
ag5
ag5
asS'intr_553'
p2415
(lp2416
g5
ag5
ag5
ag5
ag5
ag5
ag5
ag5
ag5
ag5
ag5
ag5
ag5
ag5
ag5
ag5
ag5
asS'intr_554'
p2417
(lp2418
g5
ag5
ag5
ag5
ag5
ag5
ag5
ag5
ag5
ag5
ag5
ag5
ag5
ag5
ag5
ag5
ag5
asS'intr_555'
p2419
(lp2420
g5
ag5
ag5
ag5
ag5
ag5
ag5
ag5
ag5
ag5
ag5
ag5
ag5
ag5
ag5
ag5
ag5
asS'intr_556'
p2421
(lp2422
g5
ag5
ag5
ag5
ag5
ag5
ag5
ag5
ag5
ag5
ag5
ag5
ag5
ag5
ag5
ag5
ag5
asS'intr_557'
p2423
(lp2424
g5
ag5
ag5
ag5
ag5
ag5
ag5
ag5
ag5
ag5
ag5
ag5
ag5
ag5
ag5
ag5
ag5
asS'intr_69'
p2425
(lp2426
g5
ag5
ag5
ag5
ag5
ag5
ag5
ag5
ag5
ag5
ag5
ag5
ag5
ag5
ag5
ag5
ag5
asS'intr_68'
p2427
(lp2428
g5
ag5
ag5
ag5
ag5
ag5
ag5
ag5
ag5
ag5
ag5
ag5
ag5
ag5
ag5
ag5
ag5
asS'intr_63'
p2429
(lp2430
g5
ag5
ag5
ag5
ag5
ag5
ag5
ag5
ag5
ag5
ag5
ag5
ag5
ag5
ag5
ag5
ag5
asS'intr_62'
p2431
(lp2432
g5
ag5
ag5
ag5
ag5
ag5
ag5
ag5
ag5
ag5
ag5
ag5
ag5
ag5
ag5
ag5
ag5
asS'intr_61'
p2433
(lp2434
g5
ag5
ag5
ag5
ag5
ag5
ag5
ag5
ag5
ag5
ag5
ag5
ag5
ag5
ag5
ag5
ag5
asS'intr_60'
p2435
(lp2436
g5
ag5
ag5
ag5
ag5
ag5
ag5
ag5
ag5
ag5
ag5
ag5
ag5
ag5
ag5
ag5
ag5
asS'intr_67'
p2437
(lp2438
g5
ag5
ag5
ag5
ag5
ag5
ag5
ag5
ag5
ag5
ag5
ag5
ag5
ag5
ag5
ag5
ag5
asS'intr_66'
p2439
(lp2440
g5
ag5
ag5
ag5
ag5
ag5
ag5
ag5
ag5
ag5
ag5
ag5
ag5
ag5
ag5
ag5
ag5
asS'intr_65'
p2441
(lp2442
g5
ag5
ag5
ag5
ag5
ag5
ag5
ag5
ag5
ag5
ag5
ag5
ag5
ag5
ag5
ag5
ag5
asS'intr_64'
p2443
(lp2444
g5
ag5
ag5
ag5
ag5
ag5
ag5
ag5
ag5
ag5
ag5
ag5
ag5
ag5
ag5
ag5
ag5
asS'intr_578'
p2445
(lp2446
g5
ag5
ag5
ag5
ag5
ag5
ag5
ag5
ag5
ag5
ag5
ag5
ag5
ag5
ag5
ag5
ag5
asS'intr_579'
p2447
(lp2448
g5
ag5
ag5
ag5
ag5
ag5
ag5
ag5
ag5
ag5
ag5
ag5
ag5
ag5
ag5
ag5
ag5
asS'intr_493'
p2449
(lp2450
g5
ag5
ag5
ag5
ag5
ag5
ag5
ag5
ag5
ag5
ag5
ag5
ag5
ag5
ag5
ag5
ag5
asS'intr_257'
p2451
(lp2452
g5
ag5
ag5
ag5
ag5
ag5
ag5
ag5
ag5
ag5
ag5
ag5
ag5
ag5
ag5
ag5
ag5
asS'intr_256'
p2453
(lp2454
g5
ag5
ag5
ag5
ag5
ag5
ag5
ag5
ag5
ag5
ag5
ag5
ag5
ag5
ag5
ag5
ag5
asS'intr_255'
p2455
(lp2456
g5
ag5
ag5
ag5
ag5
ag5
ag5
ag5
ag5
ag5
ag5
ag5
ag5
ag5
ag5
ag5
ag5
asS'intr_254'
p2457
(lp2458
g5
ag5
ag5
ag5
ag5
ag5
ag5
ag5
ag5
ag5
ag5
ag5
ag5
ag5
ag5
ag5
ag5
asS'intr_253'
p2459
(lp2460
g5
ag5
ag5
ag5
ag5
ag5
ag5
ag5
ag5
ag5
ag5
ag5
ag5
ag5
ag5
ag5
ag5
asS'intr_252'
p2461
(lp2462
g5
ag5
ag5
ag5
ag5
ag5
ag5
ag5
ag5
ag5
ag5
ag5
ag5
ag5
ag5
ag5
ag5
asS'intr_251'
p2463
(lp2464
g5
ag5
ag5
ag5
ag5
ag5
ag5
ag5
ag5
ag5
ag5
ag5
ag5
ag5
ag5
ag5
ag5
asS'intr_250'
p2465
(lp2466
g5
ag5
ag5
ag5
ag5
ag5
ag5
ag5
ag5
ag5
ag5
ag5
ag5
ag5
ag5
ag5
ag5
asS'intr_316'
p2467
(lp2468
g5
ag5
ag5
ag5
ag5
ag5
ag5
ag5
ag5
ag5
ag5
ag5
ag5
ag5
ag5
ag5
ag5
asS'intr_317'
p2469
(lp2470
g5
ag5
ag5
ag5
ag5
ag5
ag5
ag5
ag5
ag5
ag5
ag5
ag5
ag5
ag5
ag5
ag5
asS'intr_314'
p2471
(lp2472
g5
ag5
ag5
ag5
ag5
ag5
ag5
ag5
ag5
ag5
ag5
ag5
ag5
ag5
ag5
ag5
ag5
asS'intr_315'
p2473
(lp2474
g5
ag5
ag5
ag5
ag5
ag5
ag5
ag5
ag5
ag5
ag5
ag5
ag5
ag5
ag5
ag5
ag5
asS'intr_312'
p2475
(lp2476
g5
ag5
ag5
ag5
ag5
ag5
ag5
ag5
ag5
ag5
ag5
ag5
ag5
ag5
ag5
ag5
ag5
asS'intr_313'
p2477
(lp2478
g5
ag5
ag5
ag5
ag5
ag5
ag5
ag5
ag5
ag5
ag5
ag5
ag5
ag5
ag5
ag5
ag5
asS'intr_259'
p2479
(lp2480
g5
ag5
ag5
ag5
ag5
ag5
ag5
ag5
ag5
ag5
ag5
ag5
ag5
ag5
ag5
ag5
ag5
asS'intr_258'
p2481
(lp2482
g5
ag5
ag5
ag5
ag5
ag5
ag5
ag5
ag5
ag5
ag5
ag5
ag5
ag5
ag5
ag5
ag5
asS'intr_570'
p2483
(lp2484
g5
ag5
ag5
ag5
ag5
ag5
ag5
ag5
ag5
ag5
ag5
ag5
ag5
ag5
ag5
ag5
ag5
asS'intr_571'
p2485
(lp2486
g5
ag5
ag5
ag5
ag5
ag5
ag5
ag5
ag5
ag5
ag5
ag5
ag5
ag5
ag5
ag5
ag5
asS'intr_705'
p2487
(lp2488
g5
ag5
ag5
ag5
ag5
ag5
ag5
ag5
ag5
ag5
ag5
ag5
ag5
ag5
ag5
ag5
ag5
asS'intr_704'
p2489
(lp2490
g5
ag5
ag5
ag5
ag5
ag5
ag5
ag5
ag5
ag5
ag5
ag5
ag5
ag5
ag5
ag5
ag5
asS'intr_707'
p2491
(lp2492
g5
ag5
ag5
ag5
ag5
ag5
ag5
ag5
ag5
ag5
ag5
ag5
ag5
ag5
ag5
ag5
ag5
asS'intr_706'
p2493
(lp2494
g5
ag5
ag5
ag5
ag5
ag5
ag5
ag5
ag5
ag5
ag5
ag5
ag5
ag5
ag5
ag5
ag5
asS'intr_608'
p2495
(lp2496
g5
ag5
ag5
ag5
ag5
ag5
ag5
ag5
ag5
ag5
ag5
ag5
ag5
ag5
ag5
ag5
ag5
asS'intr_700'
p2497
(lp2498
g5
ag5
ag5
ag5
ag5
ag5
ag5
ag5
ag5
ag5
ag5
ag5
ag5
ag5
ag5
ag5
ag5
asS'intr_703'
p2499
(lp2500
g5
ag5
ag5
ag5
ag5
ag5
ag5
ag5
ag5
ag5
ag5
ag5
ag5
ag5
ag5
ag5
ag5
asS'intr_702'
p2501
(lp2502
g5
ag5
ag5
ag5
ag5
ag5
ag5
ag5
ag5
ag5
ag5
ag5
ag5
ag5
ag5
ag5
ag5
asS'intr_709'
p2503
(lp2504
g5
ag5
ag5
ag5
ag5
ag5
ag5
ag5
ag5
ag5
ag5
ag5
ag5
ag5
ag5
ag5
ag5
asS'intr_708'
p2505
(lp2506
g5
ag5
ag5
ag5
ag5
ag5
ag5
ag5
ag5
ag5
ag5
ag5
ag5
ag5
ag5
ag5
ag5
asS'intr_507'
p2507
(lp2508
g5
ag5
ag5
ag5
ag5
ag5
ag5
ag5
ag5
ag5
ag5
ag5
ag5
ag5
ag5
ag5
ag5
asS'intr_609'
p2509
(lp2510
g5
ag5
ag5
ag5
ag5
ag5
ag5
ag5
ag5
ag5
ag5
ag5
ag5
ag5
ag5
ag5
ag5
asS'intr_506'
p2511
(lp2512
g5
ag5
ag5
ag5
ag5
ag5
ag5
ag5
ag5
ag5
ag5
ag5
ag5
ag5
ag5
ag5
ag5
asS'intr_505'
p2513
(lp2514
g5
ag5
ag5
ag5
ag5
ag5
ag5
ag5
ag5
ag5
ag5
ag5
ag5
ag5
ag5
ag5
ag5
asS'intr_504'
p2515
(lp2516
g5
ag5
ag5
ag5
ag5
ag5
ag5
ag5
ag5
ag5
ag5
ag5
ag5
ag5
ag5
ag5
ag5
asS'intr_503'
p2517
(lp2518
g5
ag5
ag5
ag5
ag5
ag5
ag5
ag5
ag5
ag5
ag5
ag5
ag5
ag5
ag5
ag5
ag5
asS'intr_502'
p2519
(lp2520
g5
ag5
ag5
ag5
ag5
ag5
ag5
ag5
ag5
ag5
ag5
ag5
ag5
ag5
ag5
ag5
ag5
asS'intr_172'
p2521
(lp2522
g5
ag5
ag5
ag5
ag5
ag5
ag5
ag5
ag5
ag5
ag5
ag5
ag5
ag5
ag5
ag5
ag5
asS'intr_173'
p2523
(lp2524
g5
ag5
ag5
ag5
ag5
ag5
ag5
ag5
ag5
ag5
ag5
ag5
ag5
ag5
ag5
ag5
ag5
asS'intr_170'
p2525
(lp2526
g5
ag5
ag5
ag5
ag5
ag5
ag5
ag5
ag5
ag5
ag5
ag5
ag5
ag5
ag5
ag5
ag5
asS'intr_171'
p2527
(lp2528
g5
ag5
ag5
ag5
ag5
ag5
ag5
ag5
ag5
ag5
ag5
ag5
ag5
ag5
ag5
ag5
ag5
asS'intr_176'
p2529
(lp2530
g5
ag5
ag5
ag5
ag5
ag5
ag5
ag5
ag5
ag5
ag5
ag5
ag5
ag5
ag5
ag5
ag5
asS'intr_177'
p2531
(lp2532
g5
ag5
ag5
ag5
ag5
ag5
ag5
ag5
ag5
ag5
ag5
ag5
ag5
ag5
ag5
ag5
ag5
asS'intr_174'
p2533
(lp2534
g5
ag5
ag5
ag5
ag5
ag5
ag5
ag5
ag5
ag5
ag5
ag5
ag5
ag5
ag5
ag5
ag5
asS'intr_175'
p2535
(lp2536
g5
ag5
ag5
ag5
ag5
ag5
ag5
ag5
ag5
ag5
ag5
ag5
ag5
ag5
ag5
ag5
ag5
asS'intr_671'
p2537
(lp2538
g5
ag5
ag5
ag5
ag5
ag5
ag5
ag5
ag5
ag5
ag5
ag5
ag5
ag5
ag5
ag5
ag5
asS'intr_670'
p2539
(lp2540
g5
ag5
ag5
ag5
ag5
ag5
ag5
ag5
ag5
ag5
ag5
ag5
ag5
ag5
ag5
ag5
ag5
asS'intr_178'
p2541
(lp2542
g5
ag5
ag5
ag5
ag5
ag5
ag5
ag5
ag5
ag5
ag5
ag5
ag5
ag5
ag5
ag5
ag5
asS'intr_179'
p2543
(lp2544
g5
ag5
ag5
ag5
ag5
ag5
ag5
ag5
ag5
ag5
ag5
ag5
ag5
ag5
ag5
ag5
ag5
asS'intr_675'
p2545
(lp2546
g5
ag5
ag5
ag5
ag5
ag5
ag5
ag5
ag5
ag5
ag5
ag5
ag5
ag5
ag5
ag5
ag5
asS'intr_674'
p2547
(lp2548
g5
ag5
ag5
ag5
ag5
ag5
ag5
ag5
ag5
ag5
ag5
ag5
ag5
ag5
ag5
ag5
ag5
asS'intr_677'
p2549
(lp2550
g5
ag5
ag5
ag5
ag5
ag5
ag5
ag5
ag5
ag5
ag5
ag5
ag5
ag5
ag5
ag5
ag5
asS'intr_676'
p2551
(lp2552
g5
ag5
ag5
ag5
ag5
ag5
ag5
ag5
ag5
ag5
ag5
ag5
ag5
ag5
ag5
ag5
ag5
asS'intr_770'
p2553
(lp2554
g5
ag5
ag5
ag5
ag5
ag5
ag5
ag5
ag5
ag5
ag5
ag5
ag5
ag5
ag5
ag5
ag5
asS'intr_771'
p2555
(lp2556
g5
ag5
ag5
ag5
ag5
ag5
ag5
ag5
ag5
ag5
ag5
ag5
ag5
ag5
ag5
ag5
ag5
asS'intr_772'
p2557
(lp2558
g5
ag5
ag5
ag5
ag5
ag5
ag5
ag5
ag5
ag5
ag5
ag5
ag5
ag5
ag5
ag5
ag5
asS'intr_773'
p2559
(lp2560
g5
ag5
ag5
ag5
ag5
ag5
ag5
ag5
ag5
ag5
ag5
ag5
ag5
ag5
ag5
ag5
ag5
asS'intr_774'
p2561
(lp2562
g5
ag5
ag5
ag5
ag5
ag5
ag5
ag5
ag5
ag5
ag5
ag5
ag5
ag5
ag5
ag5
ag5
asS'intr_775'
p2563
(lp2564
g5
ag5
ag5
ag5
ag5
ag5
ag5
ag5
ag5
ag5
ag5
ag5
ag5
ag5
ag5
ag5
ag5
asS'intr_523'
p2565
(lp2566
g5
ag5
ag5
ag5
ag5
ag5
ag5
ag5
ag5
ag5
ag5
ag5
ag5
ag5
ag5
ag5
ag5
asS'intr_777'
p2567
(lp2568
g5
ag5
ag5
ag5
ag5
ag5
ag5
ag5
ag5
ag5
ag5
ag5
ag5
ag5
ag5
ag5
ag5
asS'intr_778'
p2569
(lp2570
g5
ag5
ag5
ag5
ag5
ag5
ag5
ag5
ag5
ag5
ag5
ag5
ag5
ag5
ag5
ag5
ag5
asS'intr_779'
p2571
(lp2572
g5
ag5
ag5
ag5
ag5
ag5
ag5
ag5
ag5
ag5
ag5
ag5
ag5
ag5
ag5
ag5
ag5
asS'intr_428'
p2573
(lp2574
g5
ag5
ag5
ag5
ag5
ag5
ag5
ag5
ag5
ag5
ag5
ag5
ag5
ag5
ag5
ag5
ag5
asS'processes_1'
p2575
(lp2576
S'46079'
p2577
aS'46085'
p2578
aS'46090'
p2579
aS'46090'
p2580
aS'46090'
p2581
aS'46090'
p2582
aS'46099'
p2583
aS'46099'
p2584
aS'46099'
p2585
aS'46099'
p2586
aS'46099'
p2587
aS'46099'
p2588
aS'46099'
p2589
aS'46099'
p2590
aS'46099'
p2591
aS'46099'
p2592
aS'46099'
p2593
asS'intr_766'
p2594
(lp2595
g5
ag5
ag5
ag5
ag5
ag5
ag5
ag5
ag5
ag5
ag5
ag5
ag5
ag5
ag5
ag5
ag5
asS'intr_522'
p2596
(lp2597
g5
ag5
ag5
ag5
ag5
ag5
ag5
ag5
ag5
ag5
ag5
ag5
ag5
ag5
ag5
ag5
ag5
asS'intr_429'
p2598
(lp2599
g5
ag5
ag5
ag5
ag5
ag5
ag5
ag5
ag5
ag5
ag5
ag5
ag5
ag5
ag5
ag5
ag5
asS'intr_459'
p2600
(lp2601
g5
ag5
ag5
ag5
ag5
ag5
ag5
ag5
ag5
ag5
ag5
ag5
ag5
ag5
ag5
ag5
ag5
asS'intr_458'
p2602
(lp2603
g5
ag5
ag5
ag5
ag5
ag5
ag5
ag5
ag5
ag5
ag5
ag5
ag5
ag5
ag5
ag5
ag5
asS'intr_696'
p2604
(lp2605
g5
ag5
ag5
ag5
ag5
ag5
ag5
ag5
ag5
ag5
ag5
ag5
ag5
ag5
ag5
ag5
ag5
asS'intr_455'
p2606
(lp2607
g5
ag5
ag5
ag5
ag5
ag5
ag5
ag5
ag5
ag5
ag5
ag5
ag5
ag5
ag5
ag5
ag5
asS'intr_454'
p2608
(lp2609
g5
ag5
ag5
ag5
ag5
ag5
ag5
ag5
ag5
ag5
ag5
ag5
ag5
ag5
ag5
ag5
ag5
asS'intr_457'
p2610
(lp2611
g5
ag5
ag5
ag5
ag5
ag5
ag5
ag5
ag5
ag5
ag5
ag5
ag5
ag5
ag5
ag5
ag5
asS'intr_456'
p2612
(lp2613
g5
ag5
ag5
ag5
ag5
ag5
ag5
ag5
ag5
ag5
ag5
ag5
ag5
ag5
ag5
ag5
ag5
asS'intr_451'
p2614
(lp2615
g5
ag5
ag5
ag5
ag5
ag5
ag5
ag5
ag5
ag5
ag5
ag5
ag5
ag5
ag5
ag5
ag5
asS'intr_450'
p2616
(lp2617
g5
ag5
ag5
ag5
ag5
ag5
ag5
ag5
ag5
ag5
ag5
ag5
ag5
ag5
ag5
ag5
ag5
asS'intr_94'
p2618
(lp2619
g5
ag5
ag5
ag5
ag5
ag5
ag5
ag5
ag5
ag5
ag5
ag5
ag5
ag5
ag5
ag5
ag5
asS'intr_452'
p2620
(lp2621
g5
ag5
ag5
ag5
ag5
ag5
ag5
ag5
ag5
ag5
ag5
ag5
ag5
ag5
ag5
ag5
ag5
asS'intr_514'
p2622
(lp2623
g5
ag5
ag5
ag5
ag5
ag5
ag5
ag5
ag5
ag5
ag5
ag5
ag5
ag5
ag5
ag5
ag5
asS'intr_515'
p2624
(lp2625
g5
ag5
ag5
ag5
ag5
ag5
ag5
ag5
ag5
ag5
ag5
ag5
ag5
ag5
ag5
ag5
ag5
asS'intr_516'
p2626
(lp2627
g5
ag5
ag5
ag5
ag5
ag5
ag5
ag5
ag5
ag5
ag5
ag5
ag5
ag5
ag5
ag5
ag5
asS'intr_517'
p2628
(lp2629
g5
ag5
ag5
ag5
ag5
ag5
ag5
ag5
ag5
ag5
ag5
ag5
ag5
ag5
ag5
ag5
ag5
asS'intr_510'
p2630
(lp2631
g5
ag5
ag5
ag5
ag5
ag5
ag5
ag5
ag5
ag5
ag5
ag5
ag5
ag5
ag5
ag5
ag5
asS'intr_511'
p2632
(lp2633
g5
ag5
ag5
ag5
ag5
ag5
ag5
ag5
ag5
ag5
ag5
ag5
ag5
ag5
ag5
ag5
ag5
asS'intr_512'
p2634
(lp2635
g5
ag5
ag5
ag5
ag5
ag5
ag5
ag5
ag5
ag5
ag5
ag5
ag5
ag5
ag5
ag5
ag5
asS'intr_513'
p2636
(lp2637
g5
ag5
ag5
ag5
ag5
ag5
ag5
ag5
ag5
ag5
ag5
ag5
ag5
ag5
ag5
ag5
ag5
asS'intr_518'
p2638
(lp2639
g5
ag5
ag5
ag5
ag5
ag5
ag5
ag5
ag5
ag5
ag5
ag5
ag5
ag5
ag5
ag5
ag5
asS'intr_519'
p2640
(lp2641
g5
ag5
ag5
ag5
ag5
ag5
ag5
ag5
ag5
ag5
ag5
ag5
ag5
ag5
ag5
ag5
ag5
asS'intr_684'
p2642
(lp2643
g5
ag5
ag5
ag5
ag5
ag5
ag5
ag5
ag5
ag5
ag5
ag5
ag5
ag5
ag5
ag5
ag5
asS'intr_685'
p2644
(lp2645
g5
ag5
ag5
ag5
ag5
ag5
ag5
ag5
ag5
ag5
ag5
ag5
ag5
ag5
ag5
ag5
ag5
asS'intr_686'
p2646
(lp2647
g5
ag5
ag5
ag5
ag5
ag5
ag5
ag5
ag5
ag5
ag5
ag5
ag5
ag5
ag5
ag5
ag5
asS'intr_687'
p2648
(lp2649
g5
ag5
ag5
ag5
ag5
ag5
ag5
ag5
ag5
ag5
ag5
ag5
ag5
ag5
ag5
ag5
ag5
asS'intr_680'
p2650
(lp2651
g5
ag5
ag5
ag5
ag5
ag5
ag5
ag5
ag5
ag5
ag5
ag5
ag5
ag5
ag5
ag5
ag5
asS'intr_681'
p2652
(lp2653
g5
ag5
ag5
ag5
ag5
ag5
ag5
ag5
ag5
ag5
ag5
ag5
ag5
ag5
ag5
ag5
ag5
asS'intr_682'
p2654
(lp2655
g5
ag5
ag5
ag5
ag5
ag5
ag5
ag5
ag5
ag5
ag5
ag5
ag5
ag5
ag5
ag5
ag5
asS'intr_683'
p2656
(lp2657
g5
ag5
ag5
ag5
ag5
ag5
ag5
ag5
ag5
ag5
ag5
ag5
ag5
ag5
ag5
ag5
ag5
asS'intr_690'
p2658
(lp2659
g5
ag5
ag5
ag5
ag5
ag5
ag5
ag5
ag5
ag5
ag5
ag5
ag5
ag5
ag5
ag5
ag5
asS'intr_546'
p2660
(lp2661
g5
ag5
ag5
ag5
ag5
ag5
ag5
ag5
ag5
ag5
ag5
ag5
ag5
ag5
ag5
ag5
ag5
asS'intr_689'
p2662
(lp2663
g5
ag5
ag5
ag5
ag5
ag5
ag5
ag5
ag5
ag5
ag5
ag5
ag5
ag5
ag5
ag5
ag5
asS'intr_643'
p2664
(lp2665
g5
ag5
ag5
ag5
ag5
ag5
ag5
ag5
ag5
ag5
ag5
ag5
ag5
ag5
ag5
ag5
ag5
asS'intr_644'
p2666
(lp2667
g5
ag5
ag5
ag5
ag5
ag5
ag5
ag5
ag5
ag5
ag5
ag5
ag5
ag5
ag5
ag5
ag5
asS'softirq_7'
p2668
(lp2669
g5
ag5
ag5
ag5
ag5
ag5
ag5
ag5
ag5
ag5
ag5
ag5
ag5
ag5
ag5
ag5
ag5
asS'intr_679'
p2670
(lp2671
g5
ag5
ag5
ag5
ag5
ag5
ag5
ag5
ag5
ag5
ag5
ag5
ag5
ag5
ag5
ag5
ag5
asS'softirq_4'
p2672
(lp2673
S'16568'
p2674
aS'16568'
p2675
aS'16569'
p2676
aS'16569'
p2677
aS'16569'
p2678
aS'16569'
p2679
aS'16569'
p2680
aS'16570'
p2681
aS'16570'
p2682
aS'16570'
p2683
aS'16570'
p2684
aS'16570'
p2685
aS'16571'
p2686
aS'16571'
p2687
aS'16571'
p2688
aS'16571'
p2689
aS'16571'
p2690
asS'intr_678'
p2691
(lp2692
g5
ag5
ag5
ag5
ag5
ag5
ag5
ag5
ag5
ag5
ag5
ag5
ag5
ag5
ag5
ag5
ag5
asS'softirq_5'
p2693
(lp2694
S'435788'
p2695
aS'435788'
p2696
aS'435789'
p2697
aS'435789'
p2698
aS'435790'
p2699
aS'435790'
p2700
aS'435791'
p2701
aS'435791'
p2702
aS'435792'
p2703
aS'435792'
p2704
aS'435793'
p2705
aS'435793'
p2706
aS'435794'
p2707
aS'435794'
p2708
aS'435795'
p2709
aS'435795'
p2710
aS'435796'
p2711
asS'intr_293'
p2712
(lp2713
g5
ag5
ag5
ag5
ag5
ag5
ag5
ag5
ag5
ag5
ag5
ag5
ag5
ag5
ag5
ag5
ag5
asS'intr_292'
p2714
(lp2715
g5
ag5
ag5
ag5
ag5
ag5
ag5
ag5
ag5
ag5
ag5
ag5
ag5
ag5
ag5
ag5
ag5
asS'intr_291'
p2716
(lp2717
g5
ag5
ag5
ag5
ag5
ag5
ag5
ag5
ag5
ag5
ag5
ag5
ag5
ag5
ag5
ag5
ag5
asS'intr_290'
p2718
(lp2719
g5
ag5
ag5
ag5
ag5
ag5
ag5
ag5
ag5
ag5
ag5
ag5
ag5
ag5
ag5
ag5
ag5
asS'intr_297'
p2720
(lp2721
g5
ag5
ag5
ag5
ag5
ag5
ag5
ag5
ag5
ag5
ag5
ag5
ag5
ag5
ag5
ag5
ag5
asS'intr_296'
p2722
(lp2723
g5
ag5
ag5
ag5
ag5
ag5
ag5
ag5
ag5
ag5
ag5
ag5
ag5
ag5
ag5
ag5
ag5
asS'intr_295'
p2724
(lp2725
g5
ag5
ag5
ag5
ag5
ag5
ag5
ag5
ag5
ag5
ag5
ag5
ag5
ag5
ag5
ag5
ag5
asS'intr_294'
p2726
(lp2727
g5
ag5
ag5
ag5
ag5
ag5
ag5
ag5
ag5
ag5
ag5
ag5
ag5
ag5
ag5
ag5
ag5
asS'intr_352'
p2728
(lp2729
g5
ag5
ag5
ag5
ag5
ag5
ag5
ag5
ag5
ag5
ag5
ag5
ag5
ag5
ag5
ag5
ag5
asS'intr_353'
p2730
(lp2731
g5
ag5
ag5
ag5
ag5
ag5
ag5
ag5
ag5
ag5
ag5
ag5
ag5
ag5
ag5
ag5
ag5
asS'intr_299'
p2732
(lp2733
g5
ag5
ag5
ag5
ag5
ag5
ag5
ag5
ag5
ag5
ag5
ag5
ag5
ag5
ag5
ag5
ag5
asS'intr_298'
p2734
(lp2735
g5
ag5
ag5
ag5
ag5
ag5
ag5
ag5
ag5
ag5
ag5
ag5
ag5
ag5
ag5
ag5
ag5
asS'intr_356'
p2736
(lp2737
g5
ag5
ag5
ag5
ag5
ag5
ag5
ag5
ag5
ag5
ag5
ag5
ag5
ag5
ag5
ag5
ag5
asS'intr_357'
p2738
(lp2739
g5
ag5
ag5
ag5
ag5
ag5
ag5
ag5
ag5
ag5
ag5
ag5
ag5
ag5
ag5
ag5
ag5
asS'intr_354'
p2740
(lp2741
g5
ag5
ag5
ag5
ag5
ag5
ag5
ag5
ag5
ag5
ag5
ag5
ag5
ag5
ag5
ag5
ag5
asS'intr_355'
p2742
(lp2743
g5
ag5
ag5
ag5
ag5
ag5
ag5
ag5
ag5
ag5
ag5
ag5
ag5
ag5
ag5
ag5
ag5
asS'intr_198'
p2744
(lp2745
g5
ag5
ag5
ag5
ag5
ag5
ag5
ag5
ag5
ag5
ag5
ag5
ag5
ag5
ag5
ag5
ag5
asS'intr_199'
p2746
(lp2747
g5
ag5
ag5
ag5
ag5
ag5
ag5
ag5
ag5
ag5
ag5
ag5
ag5
ag5
ag5
ag5
ag5
asS'softirq_9'
p2748
(lp2749
S'681449'
p2750
aS'681467'
p2751
aS'681480'
p2752
aS'681492'
p2753
aS'681508'
p2754
aS'681532'
p2755
aS'681544'
p2756
aS'681559'
p2757
aS'681566'
p2758
aS'681577'
p2759
aS'681596'
p2760
aS'681603'
p2761
aS'681612'
p2762
aS'681626'
p2763
aS'681636'
p2764
aS'681644'
p2765
aS'681654'
p2766
asS'softirq_2'
p2767
(lp2768
g5
ag5
ag5
ag5
ag5
ag5
ag5
ag5
ag5
ag5
ag5
ag5
ag5
ag5
ag5
ag5
ag5
asS'intr_190'
p2769
(lp2770
g5
ag5
ag5
ag5
ag5
ag5
ag5
ag5
ag5
ag5
ag5
ag5
ag5
ag5
ag5
ag5
ag5
asS'intr_191'
p2771
(lp2772
g5
ag5
ag5
ag5
ag5
ag5
ag5
ag5
ag5
ag5
ag5
ag5
ag5
ag5
ag5
ag5
ag5
asS'intr_192'
p2773
(lp2774
g5
ag5
ag5
ag5
ag5
ag5
ag5
ag5
ag5
ag5
ag5
ag5
ag5
ag5
ag5
ag5
ag5
asS'intr_193'
p2775
(lp2776
g5
ag5
ag5
ag5
ag5
ag5
ag5
ag5
ag5
ag5
ag5
ag5
ag5
ag5
ag5
ag5
ag5
asS'intr_194'
p2777
(lp2778
g5
ag5
ag5
ag5
ag5
ag5
ag5
ag5
ag5
ag5
ag5
ag5
ag5
ag5
ag5
ag5
ag5
asS'intr_195'
p2779
(lp2780
g5
ag5
ag5
ag5
ag5
ag5
ag5
ag5
ag5
ag5
ag5
ag5
ag5
ag5
ag5
ag5
ag5
asS'intr_196'
p2781
(lp2782
g5
ag5
ag5
ag5
ag5
ag5
ag5
ag5
ag5
ag5
ag5
ag5
ag5
ag5
ag5
ag5
ag5
asS'intr_197'
p2783
(lp2784
g5
ag5
ag5
ag5
ag5
ag5
ag5
ag5
ag5
ag5
ag5
ag5
ag5
ag5
ag5
ag5
ag5
asS'intr_34'
p2785
(lp2786
g5
ag5
ag5
ag5
ag5
ag5
ag5
ag5
ag5
ag5
ag5
ag5
ag5
ag5
ag5
ag5
ag5
asS'intr_35'
p2787
(lp2788
g5
ag5
ag5
ag5
ag5
ag5
ag5
ag5
ag5
ag5
ag5
ag5
ag5
ag5
ag5
ag5
ag5
asS'intr_36'
p2789
(lp2790
g5
ag5
ag5
ag5
ag5
ag5
ag5
ag5
ag5
ag5
ag5
ag5
ag5
ag5
ag5
ag5
ag5
asS'intr_37'
p2791
(lp2792
g5
ag5
ag5
ag5
ag5
ag5
ag5
ag5
ag5
ag5
ag5
ag5
ag5
ag5
ag5
ag5
ag5
asS'intr_30'
p2793
(lp2794
g5
ag5
ag5
ag5
ag5
ag5
ag5
ag5
ag5
ag5
ag5
ag5
ag5
ag5
ag5
ag5
ag5
asS'intr_31'
p2795
(lp2796
g5
ag5
ag5
ag5
ag5
ag5
ag5
ag5
ag5
ag5
ag5
ag5
ag5
ag5
ag5
ag5
ag5
asS'intr_32'
p2797
(lp2798
g5
ag5
ag5
ag5
ag5
ag5
ag5
ag5
ag5
ag5
ag5
ag5
ag5
ag5
ag5
ag5
ag5
asS'intr_33'
p2799
(lp2800
g5
ag5
ag5
ag5
ag5
ag5
ag5
ag5
ag5
ag5
ag5
ag5
ag5
ag5
ag5
ag5
ag5
asS'intr_38'
p2801
(lp2802
g5
ag5
ag5
ag5
ag5
ag5
ag5
ag5
ag5
ag5
ag5
ag5
ag5
ag5
ag5
ag5
ag5
asS'intr_39'
p2803
(lp2804
g5
ag5
ag5
ag5
ag5
ag5
ag5
ag5
ag5
ag5
ag5
ag5
ag5
ag5
ag5
ag5
ag5
asS'softirq_3'
p2805
(lp2806
S'1674714'
p2807
aS'1674760'
p2808
aS'1674905'
p2809
aS'1675216'
p2810
aS'1675573'
p2811
aS'1675968'
p2812
aS'1676364'
p2813
aS'1676666'
p2814
aS'1676979'
p2815
aS'1677303'
p2816
aS'1677775'
p2817
aS'1678055'
p2818
aS'1678309'
p2819
aS'1678755'
p2820
aS'1679144'
p2821
aS'1679397'
p2822
aS'1679656'
p2823
asS'intr_672'
p2824
(lp2825
g5
ag5
ag5
ag5
ag5
ag5
ag5
ag5
ag5
ag5
ag5
ag5
ag5
ag5
ag5
ag5
ag5
asS'intr_329'
p2826
(lp2827
g5
ag5
ag5
ag5
ag5
ag5
ag5
ag5
ag5
ag5
ag5
ag5
ag5
ag5
ag5
ag5
ag5
asS'intr_328'
p2828
(lp2829
g5
ag5
ag5
ag5
ag5
ag5
ag5
ag5
ag5
ag5
ag5
ag5
ag5
ag5
ag5
ag5
ag5
asS'intr_434'
p2830
(lp2831
g5
ag5
ag5
ag5
ag5
ag5
ag5
ag5
ag5
ag5
ag5
ag5
ag5
ag5
ag5
ag5
ag5
asS'intr_228'
p2832
(lp2833
g5
ag5
ag5
ag5
ag5
ag5
ag5
ag5
ag5
ag5
ag5
ag5
ag5
ag5
ag5
ag5
ag5
asS'intr_229'
p2834
(lp2835
g5
ag5
ag5
ag5
ag5
ag5
ag5
ag5
ag5
ag5
ag5
ag5
ag5
ag5
ag5
ag5
ag5
asS'intr_226'
p2836
(lp2837
g5
ag5
ag5
ag5
ag5
ag5
ag5
ag5
ag5
ag5
ag5
ag5
ag5
ag5
ag5
ag5
ag5
asS'intr_227'
p2838
(lp2839
g5
ag5
ag5
ag5
ag5
ag5
ag5
ag5
ag5
ag5
ag5
ag5
ag5
ag5
ag5
ag5
ag5
asS'intr_224'
p2840
(lp2841
g5
ag5
ag5
ag5
ag5
ag5
ag5
ag5
ag5
ag5
ag5
ag5
ag5
ag5
ag5
ag5
ag5
asS'intr_225'
p2842
(lp2843
g5
ag5
ag5
ag5
ag5
ag5
ag5
ag5
ag5
ag5
ag5
ag5
ag5
ag5
ag5
ag5
ag5
asS'intr_222'
p2844
(lp2845
g5
ag5
ag5
ag5
ag5
ag5
ag5
ag5
ag5
ag5
ag5
ag5
ag5
ag5
ag5
ag5
ag5
asS'intr_223'
p2846
(lp2847
g5
ag5
ag5
ag5
ag5
ag5
ag5
ag5
ag5
ag5
ag5
ag5
ag5
ag5
ag5
ag5
ag5
asS'intr_220'
p2848
(lp2849
g5
ag5
ag5
ag5
ag5
ag5
ag5
ag5
ag5
ag5
ag5
ag5
ag5
ag5
ag5
ag5
ag5
asS'intr_221'
p2850
(lp2851
g5
ag5
ag5
ag5
ag5
ag5
ag5
ag5
ag5
ag5
ag5
ag5
ag5
ag5
ag5
ag5
ag5
asS'softirq_1'
p2852
(lp2853
S'4155947'
p2854
aS'4156355'
p2855
aS'4156831'
p2856
aS'4157167'
p2857
aS'4157547'
p2858
aS'4157981'
p2859
aS'4158525'
p2860
aS'4158849'
p2861
aS'4159179'
p2862
aS'4159545'
p2863
aS'4160043'
p2864
aS'4160344'
p2865
aS'4160615'
p2866
aS'4161081'
p2867
aS'4161491'
p2868
aS'4161758'
p2869
aS'4162034'
p2870
asS'intr_635'
p2871
(lp2872
g5
ag5
ag5
ag5
ag5
ag5
ag5
ag5
ag5
ag5
ag5
ag5
ag5
ag5
ag5
ag5
ag5
asS'intr_634'
p2873
(lp2874
g5
ag5
ag5
ag5
ag5
ag5
ag5
ag5
ag5
ag5
ag5
ag5
ag5
ag5
ag5
ag5
ag5
asS'intr_637'
p2875
(lp2876
g5
ag5
ag5
ag5
ag5
ag5
ag5
ag5
ag5
ag5
ag5
ag5
ag5
ag5
ag5
ag5
ag5
asS'intr_636'
p2877
(lp2878
g5
ag5
ag5
ag5
ag5
ag5
ag5
ag5
ag5
ag5
ag5
ag5
ag5
ag5
ag5
ag5
ag5
asS'intr_631'
p2879
(lp2880
g5
ag5
ag5
ag5
ag5
ag5
ag5
ag5
ag5
ag5
ag5
ag5
ag5
ag5
ag5
ag5
ag5
asS'intr_630'
p2881
(lp2882
g5
ag5
ag5
ag5
ag5
ag5
ag5
ag5
ag5
ag5
ag5
ag5
ag5
ag5
ag5
ag5
ag5
asS'intr_633'
p2883
(lp2884
g5
ag5
ag5
ag5
ag5
ag5
ag5
ag5
ag5
ag5
ag5
ag5
ag5
ag5
ag5
ag5
ag5
asS'intr_632'
p2885
(lp2886
g5
ag5
ag5
ag5
ag5
ag5
ag5
ag5
ag5
ag5
ag5
ag5
ag5
ag5
ag5
ag5
ag5
asS'intr_734'
p2887
(lp2888
g5
ag5
ag5
ag5
ag5
ag5
ag5
ag5
ag5
ag5
ag5
ag5
ag5
ag5
ag5
ag5
ag5
asS'intr_327'
p2889
(lp2890
g5
ag5
ag5
ag5
ag5
ag5
ag5
ag5
ag5
ag5
ag5
ag5
ag5
ag5
ag5
ag5
ag5
asS'intr_736'
p2891
(lp2892
g5
ag5
ag5
ag5
ag5
ag5
ag5
ag5
ag5
ag5
ag5
ag5
ag5
ag5
ag5
ag5
ag5
asS'intr_737'
p2893
(lp2894
g5
ag5
ag5
ag5
ag5
ag5
ag5
ag5
ag5
ag5
ag5
ag5
ag5
ag5
ag5
ag5
ag5
asS'intr_639'
p2895
(lp2896
g5
ag5
ag5
ag5
ag5
ag5
ag5
ag5
ag5
ag5
ag5
ag5
ag5
ag5
ag5
ag5
ag5
asS'intr_638'
p2897
(lp2898
g5
ag5
ag5
ag5
ag5
ag5
ag5
ag5
ag5
ag5
ag5
ag5
ag5
ag5
ag5
ag5
ag5
asS'intr_732'
p2899
(lp2900
g5
ag5
ag5
ag5
ag5
ag5
ag5
ag5
ag5
ag5
ag5
ag5
ag5
ag5
ag5
ag5
ag5
asS'intr_326'
p2901
(lp2902
g5
ag5
ag5
ag5
ag5
ag5
ag5
ag5
ag5
ag5
ag5
ag5
ag5
ag5
ag5
ag5
ag5
asS'softirq_6'
p2903
(lp2904
S'344840'
p2905
aS'345100'
p2906
aS'345364'
p2907
aS'345365'
p2908
aS'345365'
p2909
aS'345369'
p2910
aS'345369'
p2911
aS'345369'
p2912
aS'345371'
p2913
aS'345371'
p2914
aS'345371'
p2915
aS'345371'
p2916
aS'345371'
p2917
aS'345371'
p2918
aS'345375'
p2919
aS'345375'
p2920
aS'345375'
p2921
asS'intr_740'
p2922
(lp2923
g5
ag5
ag5
ag5
ag5
ag5
ag5
ag5
ag5
ag5
ag5
ag5
ag5
ag5
ag5
ag5
ag5
asS'intr_743'
p2924
(lp2925
g5
ag5
ag5
ag5
ag5
ag5
ag5
ag5
ag5
ag5
ag5
ag5
ag5
ag5
ag5
ag5
ag5
asS'intr_129'
p2926
(lp2927
g5
ag5
ag5
ag5
ag5
ag5
ag5
ag5
ag5
ag5
ag5
ag5
ag5
ag5
ag5
ag5
ag5
asS'intr_128'
p2928
(lp2929
g5
ag5
ag5
ag5
ag5
ag5
ag5
ag5
ag5
ag5
ag5
ag5
ag5
ag5
ag5
ag5
ag5
asS'intr_742'
p2930
(lp2931
g5
ag5
ag5
ag5
ag5
ag5
ag5
ag5
ag5
ag5
ag5
ag5
ag5
ag5
ag5
ag5
ag5
asS'intr_121'
p2932
(lp2933
g5
ag5
ag5
ag5
ag5
ag5
ag5
ag5
ag5
ag5
ag5
ag5
ag5
ag5
ag5
ag5
ag5
asS'intr_120'
p2934
(lp2935
g5
ag5
ag5
ag5
ag5
ag5
ag5
ag5
ag5
ag5
ag5
ag5
ag5
ag5
ag5
ag5
ag5
asS'intr_123'
p2936
(lp2937
g5
ag5
ag5
ag5
ag5
ag5
ag5
ag5
ag5
ag5
ag5
ag5
ag5
ag5
ag5
ag5
ag5
asS'intr_122'
p2938
(lp2939
g5
ag5
ag5
ag5
ag5
ag5
ag5
ag5
ag5
ag5
ag5
ag5
ag5
ag5
ag5
ag5
ag5
asS'intr_125'
p2940
(lp2941
g5
ag5
ag5
ag5
ag5
ag5
ag5
ag5
ag5
ag5
ag5
ag5
ag5
ag5
ag5
ag5
ag5
asS'intr_124'
p2942
(lp2943
g5
ag5
ag5
ag5
ag5
ag5
ag5
ag5
ag5
ag5
ag5
ag5
ag5
ag5
ag5
ag5
ag5
asS'intr_127'
p2944
(lp2945
g5
ag5
ag5
ag5
ag5
ag5
ag5
ag5
ag5
ag5
ag5
ag5
ag5
ag5
ag5
ag5
ag5
asS'intr_126'
p2946
(lp2947
g5
ag5
ag5
ag5
ag5
ag5
ag5
ag5
ag5
ag5
ag5
ag5
ag5
ag5
ag5
ag5
ag5
asS'intr_640'
p2948
(lp2949
g5
ag5
ag5
ag5
ag5
ag5
ag5
ag5
ag5
ag5
ag5
ag5
ag5
ag5
ag5
ag5
ag5
asS'intr_641'
p2950
(lp2951
g5
ag5
ag5
ag5
ag5
ag5
ag5
ag5
ag5
ag5
ag5
ag5
ag5
ag5
ag5
ag5
ag5
asS'intr_642'
p2952
(lp2953
g5
ag5
ag5
ag5
ag5
ag5
ag5
ag5
ag5
ag5
ag5
ag5
ag5
ag5
ag5
ag5
ag5
asS'intr_377'
p2954
(lp2955
g5
ag5
ag5
ag5
ag5
ag5
ag5
ag5
ag5
ag5
ag5
ag5
ag5
ag5
ag5
ag5
ag5
asS'intr_558'
p2956
(lp2957
g5
ag5
ag5
ag5
ag5
ag5
ag5
ag5
ag5
ag5
ag5
ag5
ag5
ag5
ag5
ag5
ag5
asS'intr_645'
p2958
(lp2959
g5
ag5
ag5
ag5
ag5
ag5
ag5
ag5
ag5
ag5
ag5
ag5
ag5
ag5
ag5
ag5
ag5
asS'intr_646'
p2960
(lp2961
g5
ag5
ag5
ag5
ag5
ag5
ag5
ag5
ag5
ag5
ag5
ag5
ag5
ag5
ag5
ag5
ag5
asS'intr_647'
p2962
(lp2963
g5
ag5
ag5
ag5
ag5
ag5
ag5
ag5
ag5
ag5
ag5
ag5
ag5
ag5
ag5
ag5
ag5
asS'intr_648'
p2964
(lp2965
g5
ag5
ag5
ag5
ag5
ag5
ag5
ag5
ag5
ag5
ag5
ag5
ag5
ag5
ag5
ag5
ag5
asS'intr_649'
p2966
(lp2967
g5
ag5
ag5
ag5
ag5
ag5
ag5
ag5
ag5
ag5
ag5
ag5
ag5
ag5
ag5
ag5
ag5
asS'softirq_8'
p2968
(lp2969
S'16'
p2970
aS'16'
p2971
aS'16'
p2972
aS'16'
p2973
aS'16'
p2974
aS'16'
p2975
aS'16'
p2976
aS'16'
p2977
aS'16'
p2978
aS'16'
p2979
aS'16'
p2980
aS'16'
p2981
aS'16'
p2982
aS'16'
p2983
aS'16'
p2984
aS'16'
p2985
aS'16'
p2986
asS'intr_746'
p2987
(lp2988
g5
ag5
ag5
ag5
ag5
ag5
ag5
ag5
ag5
ag5
ag5
ag5
ag5
ag5
ag5
ag5
ag5
asS'cpu0_10'
p2989
(lp2990
g5
ag5
ag5
ag5
ag5
ag5
ag5
ag5
ag5
ag5
ag5
ag5
ag5
ag5
ag5
ag5
ag5
asS'intr_423'
p2991
(lp2992
g5
ag5
ag5
ag5
ag5
ag5
ag5
ag5
ag5
ag5
ag5
ag5
ag5
ag5
ag5
ag5
ag5
ass.