(dp0
S'mem'
p1
(dp2
S'WritebackTmp'
p3
(lp4
S'0'
p5
ag5
ag5
ag5
ag5
ag5
ag5
ag5
ag5
asS'SwapTotal'
p6
(lp7
S'1046524'
p8
aS'1046524'
p9
aS'1046524'
p10
aS'1046524'
p11
aS'1046524'
p12
aS'1046524'
p13
aS'1046524'
p14
aS'1046524'
p15
aS'1046524'
p16
asS'Active(anon)'
p17
(lp18
S'5536'
p19
aS'276348'
p20
aS'556520'
p21
aS'827840'
p22
aS'1082036'
p23
aS'1352952'
p24
aS'1627844'
p25
aS'1903276'
p26
aS'2060780'
p27
asS'SwapFree'
p28
(lp29
S'1024128'
p30
aS'1024128'
p31
aS'1024128'
p32
aS'1024128'
p33
aS'1024128'
p34
aS'1024128'
p35
aS'1024128'
p36
aS'1024128'
p37
aS'1024128'
p38
asS'DirectMap4k'
p39
(lp40
S'38848'
p41
aS'38848'
p42
aS'38848'
p43
aS'38848'
p44
aS'38848'
p45
aS'38848'
p46
aS'38848'
p47
aS'38848'
p48
aS'38848'
p49
asS'KernelStack'
p50
(lp51
S'1272'
p52
aS'1272'
p53
aS'1272'
p54
aS'1272'
p55
aS'1272'
p56
aS'1272'
p57
aS'1272'
p58
aS'1272'
p59
aS'1272'
p60
asS'MemFree'
p61
(lp62
S'3407276'
p63
aS'3136088'
p64
aS'2855352'
p65
aS'2583916'
p66
aS'2329220'
p67
aS'2057784'
p68
aS'1782256'
p69
aS'1506356'
p70
aS'1348628'
p71
asS'HugePages_Rsvd'
p72
(lp73
g5
ag5
ag5
ag5
ag5
ag5
ag5
ag5
ag5
asS'Committed_AS'
p74
(lp75
S'192604'
p76
aS'463376'
p77
aS'743784'
p78
aS'1016256'
p79
aS'1270320'
p80
aS'1541996'
p81
aS'1815028'
p82
aS'2093372'
p83
aS'2248004'
p84
asS'Active(file)'
p85
(lp86
S'285480'
p87
aS'285480'
p88
aS'285480'
p89
aS'285480'
p90
aS'285480'
p91
aS'285480'
p92
aS'285480'
p93
aS'285480'
p94
aS'285480'
p95
asS'NFS_Unstable'
p96
(lp97
g5
ag5
ag5
ag5
ag5
ag5
ag5
ag5
ag5
asS'VmallocChunk'
p98
(lp99
S'34359713404'
p100
aS'34359713404'
p101
aS'34359713404'
p102
aS'34359713404'
p103
aS'34359713404'
p104
aS'34359713404'
p105
aS'34359713404'
p106
aS'34359713404'
p107
aS'34359713404'
p108
asS'Writeback'
p109
(lp110
g5
ag5
ag5
ag5
ag5
ag5
ag5
ag5
ag5
asS'Inactive(file)'
p111
(lp112
S'233984'
p113
aS'233984'
p114
aS'233984'
p115
aS'233984'
p116
aS'233984'
p117
aS'233984'
p118
aS'233984'
p119
aS'233984'
p120
aS'233984'
p121
asS'MemTotal'
p122
(lp123
S'4055496'
p124
aS'4055496'
p125
aS'4055496'
p126
aS'4055496'
p127
aS'4055496'
p128
aS'4055496'
p129
aS'4055496'
p130
aS'4055496'
p131
aS'4055496'
p132
asS'VmallocUsed'
p133
(lp134
S'21480'
p135
aS'21480'
p136
aS'21480'
p137
aS'21480'
p138
aS'21480'
p139
aS'21480'
p140
aS'21480'
p141
aS'21480'
p142
aS'21480'
p143
asS'HugePages_Free'
p144
(lp145
g5
ag5
ag5
ag5
ag5
ag5
ag5
ag5
ag5
asS'AnonHugePages'
p146
(lp147
g5
ag5
ag5
ag5
ag5
ag5
ag5
ag5
ag5
asS'AnonPages'
p148
(lp149
S'11032'
p150
aS'281808'
p151
aS'561948'
p152
aS'833268'
p153
aS'1087448'
p154
aS'1358440'
p155
aS'1633332'
p156
aS'1908780'
p157
aS'2066252'
p158
asS'Active'
p159
(lp160
S'291016'
p161
aS'561828'
p162
aS'842000'
p163
aS'1113320'
p164
aS'1367516'
p165
aS'1638432'
p166
aS'1913324'
p167
aS'2188756'
p168
aS'2346260'
p169
asS'Inactive(anon)'
p170
(lp171
S'8668'
p172
aS'8668'
p173
aS'8668'
p174
aS'8668'
p175
aS'8668'
p176
aS'8668'
p177
aS'8668'
p178
aS'8668'
p179
aS'8668'
p180
asS'CommitLimit'
p181
(lp182
S'3074272'
p183
aS'3074272'
p184
aS'3074272'
p185
aS'3074272'
p186
aS'3074272'
p187
aS'3074272'
p188
aS'3074272'
p189
aS'3074272'
p190
aS'3074272'
p191
asS'Hugepagesize'
p192
(lp193
S'2048'
p194
aS'2048'
p195
aS'2048'
p196
aS'2048'
p197
aS'2048'
p198
aS'2048'
p199
aS'2048'
p200
aS'2048'
p201
aS'2048'
p202
asS'Cached'
p203
(lp204
S'439012'
p205
aS'439012'
p206
aS'439012'
p207
aS'439012'
p208
aS'439012'
p209
aS'439012'
p210
aS'439012'
p211
aS'439012'
p212
aS'439012'
p213
asS'SwapCached'
p214
(lp215
S'5132'
p216
aS'5132'
p217
aS'5132'
p218
aS'5132'
p219
aS'5132'
p220
aS'5132'
p221
aS'5132'
p222
aS'5132'
p223
aS'5132'
p224
asS'VmallocTotal'
p225
(lp226
S'34359738367'
p227
aS'34359738367'
p228
aS'34359738367'
p229
aS'34359738367'
p230
aS'34359738367'
p231
aS'34359738367'
p232
aS'34359738367'
p233
aS'34359738367'
p234
aS'34359738367'
p235
asS'Shmem'
p236
(lp237
S'12'
p238
aS'12'
p239
aS'12'
p240
aS'12'
p241
aS'12'
p242
aS'12'
p243
aS'12'
p244
aS'12'
p245
aS'12'
p246
asS'Mapped'
p247
(lp248
S'6020'
p249
aS'5984'
p250
aS'5984'
p251
aS'5984'
p252
aS'5984'
p253
aS'5984'
p254
aS'5984'
p255
aS'5984'
p256
aS'5984'
p257
asS'SUnreclaim'
p258
(lp259
S'11460'
p260
aS'11460'
p261
aS'11460'
p262
aS'11460'
p263
aS'11460'
p264
aS'11460'
p265
aS'11460'
p266
aS'11460'
p267
aS'11460'
p268
asS'Unevictable'
p269
(lp270
g5
ag5
ag5
ag5
ag5
ag5
ag5
ag5
ag5
asS'SReclaimable'
p271
(lp272
S'41380'
p273
aS'41380'
p274
aS'41380'
p275
aS'41380'
p276
aS'41380'
p277
aS'41380'
p278
aS'41380'
p279
aS'41380'
p280
aS'41380'
p281
asS'Mlocked'
p282
(lp283
g5
ag5
ag5
ag5
ag5
ag5
ag5
ag5
ag5
asS'DirectMap2M'
p284
(lp285
S'4155392'
p286
aS'4155392'
p287
aS'4155392'
p288
aS'4155392'
p289
aS'4155392'
p290
aS'4155392'
p291
aS'4155392'
p292
aS'4155392'
p293
aS'4155392'
p294
asS'HugePages_Surp'
p295
(lp296
g5
ag5
ag5
ag5
ag5
ag5
ag5
ag5
ag5
asS'Bounce'
p297
(lp298
g5
ag5
ag5
ag5
ag5
ag5
ag5
ag5
ag5
asS'Inactive'
p299
(lp300
S'242652'
p301
aS'242652'
p302
aS'242652'
p303
aS'242652'
p304
aS'242652'
p305
aS'242652'
p306
aS'242652'
p307
aS'242652'
p308
aS'242652'
p309
asS'PageTables'
p310
(lp311
S'3568'
p312
aS'4148'
p313
aS'4672'
p314
aS'5220'
p315
aS'5700'
p316
aS'6236'
p317
aS'6756'
p318
aS'7300'
p319
aS'7592'
p320
asS'HardwareCorrupted'
p321
(lp322
g5
ag5
ag5
ag5
ag5
ag5
ag5
ag5
ag5
asS'HugePages_Total'
p323
(lp324
g5
ag5
ag5
ag5
ag5
ag5
ag5
ag5
ag5
asS'Slab'
p325
(lp326
S'52840'
p327
aS'52840'
p328
aS'52840'
p329
aS'52840'
p330
aS'52840'
p331
aS'52840'
p332
aS'52840'
p333
aS'52840'
p334
aS'52840'
p335
asS'Buffers'
p336
(lp337
S'80464'
p338
aS'80464'
p339
aS'80464'
p340
aS'80464'
p341
aS'80464'
p342
aS'80464'
p343
aS'80464'
p344
aS'80464'
p345
aS'80464'
p346
asS'Dirty'
p347
(lp348
S'64'
p349
aS'64'
p350
aS'64'
p351
aS'64'
p352
aS'64'
p353
aS'64'
p354
aS'64'
p355
aS'64'
p356
aS'64'
p357
assS'cpu'
p358
(dp359
S'intr_396'
p360
(lp361
g5
ag5
ag5
ag5
ag5
ag5
ag5
ag5
ag5
asS'intr_397'
p362
(lp363
g5
ag5
ag5
ag5
ag5
ag5
ag5
ag5
ag5
asS'intr_394'
p364
(lp365
g5
ag5
ag5
ag5
ag5
ag5
ag5
ag5
ag5
asS'intr_395'
p366
(lp367
g5
ag5
ag5
ag5
ag5
ag5
ag5
ag5
ag5
asS'intr_392'
p368
(lp369
g5
ag5
ag5
ag5
ag5
ag5
ag5
ag5
ag5
asS'intr_393'
p370
(lp371
g5
ag5
ag5
ag5
ag5
ag5
ag5
ag5
ag5
asS'intr_390'
p372
(lp373
g5
ag5
ag5
ag5
ag5
ag5
ag5
ag5
ag5
asS'intr_391'
p374
(lp375
g5
ag5
ag5
ag5
ag5
ag5
ag5
ag5
ag5
asS'intr_543'
p376
(lp377
g5
ag5
ag5
ag5
ag5
ag5
ag5
ag5
ag5
asS'intr_542'
p378
(lp379
g5
ag5
ag5
ag5
ag5
ag5
ag5
ag5
ag5
asS'intr_541'
p380
(lp381
g5
ag5
ag5
ag5
ag5
ag5
ag5
ag5
ag5
asS'intr_540'
p382
(lp383
g5
ag5
ag5
ag5
ag5
ag5
ag5
ag5
ag5
asS'intr_468'
p384
(lp385
g5
ag5
ag5
ag5
ag5
ag5
ag5
ag5
ag5
asS'intr_431'
p386
(lp387
g5
ag5
ag5
ag5
ag5
ag5
ag5
ag5
ag5
asS'intr_398'
p388
(lp389
g5
ag5
ag5
ag5
ag5
ag5
ag5
ag5
ag5
asS'intr_399'
p390
(lp391
g5
ag5
ag5
ag5
ag5
ag5
ag5
ag5
ag5
asS'intr_430'
p392
(lp393
g5
ag5
ag5
ag5
ag5
ag5
ag5
ag5
ag5
asS'intr_437'
p394
(lp395
g5
ag5
ag5
ag5
ag5
ag5
ag5
ag5
ag5
asS'intr_436'
p396
(lp397
g5
ag5
ag5
ag5
ag5
ag5
ag5
ag5
ag5
asS'intr_78'
p398
(lp399
g5
ag5
ag5
ag5
ag5
ag5
ag5
ag5
ag5
asS'intr_79'
p400
(lp401
g5
ag5
ag5
ag5
ag5
ag5
ag5
ag5
ag5
asS'intr_435'
p402
(lp403
g5
ag5
ag5
ag5
ag5
ag5
ag5
ag5
ag5
asS'intr_70'
p404
(lp405
g5
ag5
ag5
ag5
ag5
ag5
ag5
ag5
ag5
asS'intr_71'
p406
(lp407
g5
ag5
ag5
ag5
ag5
ag5
ag5
ag5
ag5
asS'intr_72'
p408
(lp409
g5
ag5
ag5
ag5
ag5
ag5
ag5
ag5
ag5
asS'intr_73'
p410
(lp411
g5
ag5
ag5
ag5
ag5
ag5
ag5
ag5
ag5
asS'intr_74'
p412
(lp413
g5
ag5
ag5
ag5
ag5
ag5
ag5
ag5
ag5
asS'intr_75'
p414
(lp415
g5
ag5
ag5
ag5
ag5
ag5
ag5
ag5
ag5
asS'intr_76'
p416
(lp417
g5
ag5
ag5
ag5
ag5
ag5
ag5
ag5
ag5
asS'intr_77'
p418
(lp419
g5
ag5
ag5
ag5
ag5
ag5
ag5
ag5
ag5
asS'intr_268'
p420
(lp421
g5
ag5
ag5
ag5
ag5
ag5
ag5
ag5
ag5
asS'intr_269'
p422
(lp423
g5
ag5
ag5
ag5
ag5
ag5
ag5
ag5
ag5
asS'intr_262'
p424
(lp425
g5
ag5
ag5
ag5
ag5
ag5
ag5
ag5
ag5
asS'intr_263'
p426
(lp427
g5
ag5
ag5
ag5
ag5
ag5
ag5
ag5
ag5
asS'intr_260'
p428
(lp429
g5
ag5
ag5
ag5
ag5
ag5
ag5
ag5
ag5
asS'intr_261'
p430
(lp431
g5
ag5
ag5
ag5
ag5
ag5
ag5
ag5
ag5
asS'intr_266'
p432
(lp433
g5
ag5
ag5
ag5
ag5
ag5
ag5
ag5
ag5
asS'intr_267'
p434
(lp435
g5
ag5
ag5
ag5
ag5
ag5
ag5
ag5
ag5
asS'intr_264'
p436
(lp437
g5
ag5
ag5
ag5
ag5
ag5
ag5
ag5
ag5
asS'intr_265'
p438
(lp439
g5
ag5
ag5
ag5
ag5
ag5
ag5
ag5
ag5
asS'intr_301'
p440
(lp441
g5
ag5
ag5
ag5
ag5
ag5
ag5
ag5
ag5
asS'intr_300'
p442
(lp443
g5
ag5
ag5
ag5
ag5
ag5
ag5
ag5
ag5
asS'intr_303'
p444
(lp445
g5
ag5
ag5
ag5
ag5
ag5
ag5
ag5
ag5
asS'intr_302'
p446
(lp447
g5
ag5
ag5
ag5
ag5
ag5
ag5
ag5
ag5
asS'intr_305'
p448
(lp449
g5
ag5
ag5
ag5
ag5
ag5
ag5
ag5
ag5
asS'intr_304'
p450
(lp451
g5
ag5
ag5
ag5
ag5
ag5
ag5
ag5
ag5
asS'intr_307'
p452
(lp453
g5
ag5
ag5
ag5
ag5
ag5
ag5
ag5
ag5
asS'intr_306'
p454
(lp455
g5
ag5
ag5
ag5
ag5
ag5
ag5
ag5
ag5
asS'intr_309'
p456
(lp457
g5
ag5
ag5
ag5
ag5
ag5
ag5
ag5
ag5
asS'intr_308'
p458
(lp459
g5
ag5
ag5
ag5
ag5
ag5
ag5
ag5
ag5
asS'intr_466'
p460
(lp461
g5
ag5
ag5
ag5
ag5
ag5
ag5
ag5
ag5
asS'intr_492'
p462
(lp463
g5
ag5
ag5
ag5
ag5
ag5
ag5
ag5
ag5
asS'intr_467'
p464
(lp465
g5
ag5
ag5
ag5
ag5
ag5
ag5
ag5
ag5
asS'intr_460'
p466
(lp467
g5
ag5
ag5
ag5
ag5
ag5
ag5
ag5
ag5
asS'intr_461'
p468
(lp469
g5
ag5
ag5
ag5
ag5
ag5
ag5
ag5
ag5
asS'intr_462'
p470
(lp471
g5
ag5
ag5
ag5
ag5
ag5
ag5
ag5
ag5
asS'cpu1_10'
p472
(lp473
g5
ag5
ag5
ag5
ag5
ag5
ag5
ag5
ag5
asS'cpu_10'
p474
(lp475
g5
ag5
ag5
ag5
ag5
ag5
ag5
ag5
ag5
asS'intr_463'
p476
(lp477
g5
ag5
ag5
ag5
ag5
ag5
ag5
ag5
ag5
asS'intr_495'
p478
(lp479
g5
ag5
ag5
ag5
ag5
ag5
ag5
ag5
ag5
asS'intr_790'
p480
(lp481
g5
ag5
ag5
ag5
ag5
ag5
ag5
ag5
ag5
asS'intr_547'
p482
(lp483
g5
ag5
ag5
ag5
ag5
ag5
ag5
ag5
ag5
asS'intr_494'
p484
(lp485
g5
ag5
ag5
ag5
ag5
ag5
ag5
ag5
ag5
asS'intr_469'
p486
(lp487
g5
ag5
ag5
ag5
ag5
ag5
ag5
ag5
ag5
asS'intr_545'
p488
(lp489
g5
ag5
ag5
ag5
ag5
ag5
ag5
ag5
ag5
asS'intr_544'
p490
(lp491
g5
ag5
ag5
ag5
ag5
ag5
ag5
ag5
ag5
asS'intr_165'
p492
(lp493
g5
ag5
ag5
ag5
ag5
ag5
ag5
ag5
ag5
asS'intr_164'
p494
(lp495
g5
ag5
ag5
ag5
ag5
ag5
ag5
ag5
ag5
asS'intr_167'
p496
(lp497
g5
ag5
ag5
ag5
ag5
ag5
ag5
ag5
ag5
asS'intr_166'
p498
(lp499
g5
ag5
ag5
ag5
ag5
ag5
ag5
ag5
ag5
asS'intr_161'
p500
(lp501
g5
ag5
ag5
ag5
ag5
ag5
ag5
ag5
ag5
asS'intr_160'
p502
(lp503
g5
ag5
ag5
ag5
ag5
ag5
ag5
ag5
ag5
asS'intr_163'
p504
(lp505
g5
ag5
ag5
ag5
ag5
ag5
ag5
ag5
ag5
asS'intr_162'
p506
(lp507
g5
ag5
ag5
ag5
ag5
ag5
ag5
ag5
ag5
asS'intr_604'
p508
(lp509
g5
ag5
ag5
ag5
ag5
ag5
ag5
ag5
ag5
asS'intr_605'
p510
(lp511
g5
ag5
ag5
ag5
ag5
ag5
ag5
ag5
ag5
asS'intr_606'
p512
(lp513
g5
ag5
ag5
ag5
ag5
ag5
ag5
ag5
ag5
asS'intr_607'
p514
(lp515
g5
ag5
ag5
ag5
ag5
ag5
ag5
ag5
ag5
asS'intr_169'
p516
(lp517
g5
ag5
ag5
ag5
ag5
ag5
ag5
ag5
ag5
asS'intr_168'
p518
(lp519
g5
ag5
ag5
ag5
ag5
ag5
ag5
ag5
ag5
asS'intr_602'
p520
(lp521
g5
ag5
ag5
ag5
ag5
ag5
ag5
ag5
ag5
asS'intr_603'
p522
(lp523
g5
ag5
ag5
ag5
ag5
ag5
ag5
ag5
ag5
asS'intr_763'
p524
(lp525
g5
ag5
ag5
ag5
ag5
ag5
ag5
ag5
ag5
asS'intr_762'
p526
(lp527
g5
ag5
ag5
ag5
ag5
ag5
ag5
ag5
ag5
asS'intr_761'
p528
(lp529
g5
ag5
ag5
ag5
ag5
ag5
ag5
ag5
ag5
asS'intr_760'
p530
(lp531
g5
ag5
ag5
ag5
ag5
ag5
ag5
ag5
ag5
asS'intr_767'
p532
(lp533
g5
ag5
ag5
ag5
ag5
ag5
ag5
ag5
ag5
asS'intr_453'
p534
(lp535
g5
ag5
ag5
ag5
ag5
ag5
ag5
ag5
ag5
asS'intr_765'
p536
(lp537
g5
ag5
ag5
ag5
ag5
ag5
ag5
ag5
ag5
asS'intr_764'
p538
(lp539
g5
ag5
ag5
ag5
ag5
ag5
ag5
ag5
ag5
asS'intr_769'
p540
(lp541
g5
ag5
ag5
ag5
ag5
ag5
ag5
ag5
ag5
asS'intr_768'
p542
(lp543
g5
ag5
ag5
ag5
ag5
ag5
ag5
ag5
ag5
asS'intr_528'
p544
(lp545
g5
ag5
ag5
ag5
ag5
ag5
ag5
ag5
ag5
asS'intr_110'
p546
(lp547
g5
ag5
ag5
ag5
ag5
ag5
ag5
ag5
ag5
asS'intr_111'
p548
(lp549
g5
ag5
ag5
ag5
ag5
ag5
ag5
ag5
ag5
asS'intr_112'
p550
(lp551
g5
ag5
ag5
ag5
ag5
ag5
ag5
ag5
ag5
asS'intr_113'
p552
(lp553
g5
ag5
ag5
ag5
ag5
ag5
ag5
ag5
ag5
asS'intr_114'
p554
(lp555
g5
ag5
ag5
ag5
ag5
ag5
ag5
ag5
ag5
asS'intr_115'
p556
(lp557
g5
ag5
ag5
ag5
ag5
ag5
ag5
ag5
ag5
asS'intr_116'
p558
(lp559
g5
ag5
ag5
ag5
ag5
ag5
ag5
ag5
ag5
asS'intr_117'
p560
(lp561
g5
ag5
ag5
ag5
ag5
ag5
ag5
ag5
ag5
asS'intr_118'
p562
(lp563
g5
ag5
ag5
ag5
ag5
ag5
ag5
ag5
ag5
asS'intr_119'
p564
(lp565
g5
ag5
ag5
ag5
ag5
ag5
ag5
ag5
ag5
asS'intr_509'
p566
(lp567
g5
ag5
ag5
ag5
ag5
ag5
ag5
ag5
ag5
asS'intr_508'
p568
(lp569
g5
ag5
ag5
ag5
ag5
ag5
ag5
ag5
ag5
asS'intr_697'
p570
(lp571
g5
ag5
ag5
ag5
ag5
ag5
ag5
ag5
ag5
asS'intr_499'
p572
(lp573
g5
ag5
ag5
ag5
ag5
ag5
ag5
ag5
ag5
asS'intr_695'
p574
(lp575
g5
ag5
ag5
ag5
ag5
ag5
ag5
ag5
ag5
asS'intr_694'
p576
(lp577
g5
ag5
ag5
ag5
ag5
ag5
ag5
ag5
ag5
asS'intr_693'
p578
(lp579
g5
ag5
ag5
ag5
ag5
ag5
ag5
ag5
ag5
asS'intr_692'
p580
(lp581
g5
ag5
ag5
ag5
ag5
ag5
ag5
ag5
ag5
asS'intr_691'
p582
(lp583
g5
ag5
ag5
ag5
ag5
ag5
ag5
ag5
ag5
asS'intr_498'
p584
(lp585
g5
ag5
ag5
ag5
ag5
ag5
ag5
ag5
ag5
asS'intr_699'
p586
(lp587
g5
ag5
ag5
ag5
ag5
ag5
ag5
ag5
ag5
asS'intr_698'
p588
(lp589
g5
ag5
ag5
ag5
ag5
ag5
ag5
ag5
ag5
asS'intr_598'
p590
(lp591
g5
ag5
ag5
ag5
ag5
ag5
ag5
ag5
ag5
asS'intr_599'
p592
(lp593
g5
ag5
ag5
ag5
ag5
ag5
ag5
ag5
ag5
asS'cpu1_1'
p594
(lp595
S'162419'
p596
aS'162493'
p597
aS'162568'
p598
aS'162644'
p599
aS'162721'
p600
aS'162798'
p601
aS'162872'
p602
aS'162952'
p603
aS'163042'
p604
asS'intr_594'
p605
(lp606
g5
ag5
ag5
ag5
ag5
ag5
ag5
ag5
ag5
asS'intr_595'
p607
(lp608
g5
ag5
ag5
ag5
ag5
ag5
ag5
ag5
ag5
asS'intr_596'
p609
(lp610
g5
ag5
ag5
ag5
ag5
ag5
ag5
ag5
ag5
asS'intr_597'
p611
(lp612
g5
ag5
ag5
ag5
ag5
ag5
ag5
ag5
ag5
asS'intr_590'
p613
(lp614
g5
ag5
ag5
ag5
ag5
ag5
ag5
ag5
ag5
asS'intr_591'
p615
(lp616
g5
ag5
ag5
ag5
ag5
ag5
ag5
ag5
ag5
asS'intr_592'
p617
(lp618
g5
ag5
ag5
ag5
ag5
ag5
ag5
ag5
ag5
asS'intr_593'
p619
(lp620
g5
ag5
ag5
ag5
ag5
ag5
ag5
ag5
ag5
asS'intr_491'
p621
(lp622
g5
ag5
ag5
ag5
ag5
ag5
ag5
ag5
ag5
asS'intr_439'
p623
(lp624
g5
ag5
ag5
ag5
ag5
ag5
ag5
ag5
ag5
asS'intr_438'
p625
(lp626
g5
ag5
ag5
ag5
ag5
ag5
ag5
ag5
ag5
asS'intr_349'
p627
(lp628
g5
ag5
ag5
ag5
ag5
ag5
ag5
ag5
ag5
asS'intr_348'
p629
(lp630
g5
ag5
ag5
ag5
ag5
ag5
ag5
ag5
ag5
asS'intr_490'
p631
(lp632
g5
ag5
ag5
ag5
ag5
ag5
ag5
ag5
ag5
asS'intr_345'
p633
(lp634
g5
ag5
ag5
ag5
ag5
ag5
ag5
ag5
ag5
asS'intr_344'
p635
(lp636
g5
ag5
ag5
ag5
ag5
ag5
ag5
ag5
ag5
asS'intr_347'
p637
(lp638
g5
ag5
ag5
ag5
ag5
ag5
ag5
ag5
ag5
asS'intr_346'
p639
(lp640
g5
ag5
ag5
ag5
ag5
ag5
ag5
ag5
ag5
asS'intr_341'
p641
(lp642
g5
ag5
ag5
ag5
ag5
ag5
ag5
ag5
ag5
asS'intr_340'
p643
(lp644
g5
ag5
ag5
ag5
ag5
ag5
ag5
ag5
ag5
asS'intr_343'
p645
(lp646
g5
ag5
ag5
ag5
ag5
ag5
ag5
ag5
ag5
asS'intr_342'
p647
(lp648
g5
ag5
ag5
ag5
ag5
ag5
ag5
ag5
ag5
asS'intr_96'
p649
(lp650
g5
ag5
ag5
ag5
ag5
ag5
ag5
ag5
ag5
asS'intr_189'
p651
(lp652
g5
ag5
ag5
ag5
ag5
ag5
ag5
ag5
ag5
asS'intr_188'
p653
(lp654
g5
ag5
ag5
ag5
ag5
ag5
ag5
ag5
ag5
asS'intr_673'
p655
(lp656
g5
ag5
ag5
ag5
ag5
ag5
ag5
ag5
ag5
asS'intr_97'
p657
(lp658
g5
ag5
ag5
ag5
ag5
ag5
ag5
ag5
ag5
asS'intr_183'
p659
(lp660
g5
ag5
ag5
ag5
ag5
ag5
ag5
ag5
ag5
asS'intr_182'
p661
(lp662
g5
ag5
ag5
ag5
ag5
ag5
ag5
ag5
ag5
asS'intr_181'
p663
(lp664
g5
ag5
ag5
ag5
ag5
ag5
ag5
ag5
ag5
asS'intr_180'
p665
(lp666
g5
ag5
ag5
ag5
ag5
ag5
ag5
ag5
ag5
asS'intr_187'
p667
(lp668
g5
ag5
ag5
ag5
ag5
ag5
ag5
ag5
ag5
asS'intr_186'
p669
(lp670
g5
ag5
ag5
ag5
ag5
ag5
ag5
ag5
ag5
asS'intr_185'
p671
(lp672
g5
ag5
ag5
ag5
ag5
ag5
ag5
ag5
ag5
asS'intr_184'
p673
(lp674
g5
ag5
ag5
ag5
ag5
ag5
ag5
ag5
ag5
asS'intr_749'
p675
(lp676
g5
ag5
ag5
ag5
ag5
ag5
ag5
ag5
ag5
asS'intr_95'
p677
(lp678
g5
ag5
ag5
ag5
ag5
ag5
ag5
ag5
ag5
asS'intr_497'
p679
(lp680
g5
ag5
ag5
ag5
ag5
ag5
ag5
ag5
ag5
asS'intr_92'
p681
(lp682
g5
ag5
ag5
ag5
ag5
ag5
ag5
ag5
ag5
asS'intr_496'
p683
(lp684
g5
ag5
ag5
ag5
ag5
ag5
ag5
ag5
ag5
asS'intr_93'
p685
(lp686
g5
ag5
ag5
ag5
ag5
ag5
ag5
ag5
ag5
asS'intr_90'
p687
(lp688
g5
ag5
ag5
ag5
ag5
ag5
ag5
ag5
ag5
asS'intr_688'
p689
(lp690
g5
ag5
ag5
ag5
ag5
ag5
ag5
ag5
ag5
asS'intr_91'
p691
(lp692
g5
ag5
ag5
ag5
ag5
ag5
ag5
ag5
ag5
asS'intr_748'
p693
(lp694
g5
ag5
ag5
ag5
ag5
ag5
ag5
ag5
ag5
asS'intr_568'
p695
(lp696
g5
ag5
ag5
ag5
ag5
ag5
ag5
ag5
ag5
asS'intr_757'
p697
(lp698
g5
ag5
ag5
ag5
ag5
ag5
ag5
ag5
ag5
asS'cpu1_9'
p699
(lp700
g5
ag5
ag5
ag5
ag5
ag5
ag5
ag5
ag5
asS'intr_231'
p701
(lp702
g5
ag5
ag5
ag5
ag5
ag5
ag5
ag5
ag5
asS'intr_230'
p703
(lp704
g5
ag5
ag5
ag5
ag5
ag5
ag5
ag5
ag5
asS'intr_233'
p705
(lp706
g5
ag5
ag5
ag5
ag5
ag5
ag5
ag5
ag5
asS'intr_232'
p707
(lp708
g5
ag5
ag5
ag5
ag5
ag5
ag5
ag5
ag5
asS'intr_235'
p709
(lp710
g5
ag5
ag5
ag5
ag5
ag5
ag5
ag5
ag5
asS'intr_149'
p711
(lp712
g5
ag5
ag5
ag5
ag5
ag5
ag5
ag5
ag5
asS'intr_237'
p713
(lp714
g5
ag5
ag5
ag5
ag5
ag5
ag5
ag5
ag5
asS'intr_236'
p715
(lp716
g5
ag5
ag5
ag5
ag5
ag5
ag5
ag5
ag5
asS'intr_239'
p717
(lp718
g5
ag5
ag5
ag5
ag5
ag5
ag5
ag5
ag5
asS'intr_238'
p719
(lp720
g5
ag5
ag5
ag5
ag5
ag5
ag5
ag5
ag5
asS'intr_332'
p721
(lp722
g5
ag5
ag5
ag5
ag5
ag5
ag5
ag5
ag5
asS'intr_148'
p723
(lp724
g5
ag5
ag5
ag5
ag5
ag5
ag5
ag5
ag5
asS'intr_334'
p725
(lp726
g5
ag5
ag5
ag5
ag5
ag5
ag5
ag5
ag5
asS'intr_335'
p727
(lp728
g5
ag5
ag5
ag5
ag5
ag5
ag5
ag5
ag5
asS'intr_336'
p729
(lp730
g5
ag5
ag5
ag5
ag5
ag5
ag5
ag5
ag5
asS'intr_337'
p731
(lp732
g5
ag5
ag5
ag5
ag5
ag5
ag5
ag5
ag5
asS'intr_147'
p733
(lp734
g5
ag5
ag5
ag5
ag5
ag5
ag5
ag5
ag5
asS'intr_138'
p735
(lp736
g5
ag5
ag5
ag5
ag5
ag5
ag5
ag5
ag5
asS'intr_146'
p737
(lp738
g5
ag5
ag5
ag5
ag5
ag5
ag5
ag5
ag5
asS'intr_139'
p739
(lp740
g5
ag5
ag5
ag5
ag5
ag5
ag5
ag5
ag5
asS'intr_145'
p741
(lp742
g5
ag5
ag5
ag5
ag5
ag5
ag5
ag5
ag5
asS'intr_338'
p743
(lp744
g5
ag5
ag5
ag5
ag5
ag5
ag5
ag5
ag5
asS'intr_144'
p745
(lp746
g5
ag5
ag5
ag5
ag5
ag5
ag5
ag5
ag5
asS'intr_729'
p747
(lp748
g5
ag5
ag5
ag5
ag5
ag5
ag5
ag5
ag5
asS'intr_339'
p749
(lp750
g5
ag5
ag5
ag5
ag5
ag5
ag5
ag5
ag5
asS'intr_727'
p751
(lp752
g5
ag5
ag5
ag5
ag5
ag5
ag5
ag5
ag5
asS'intr_8'
p753
(lp754
S'2'
p755
ag755
ag755
ag755
ag755
ag755
ag755
ag755
ag755
asS'intr_725'
p756
(lp757
g5
ag5
ag5
ag5
ag5
ag5
ag5
ag5
ag5
asS'intr_724'
p758
(lp759
g5
ag5
ag5
ag5
ag5
ag5
ag5
ag5
ag5
asS'intr_723'
p760
(lp761
g5
ag5
ag5
ag5
ag5
ag5
ag5
ag5
ag5
asS'intr_722'
p762
(lp763
g5
ag5
ag5
ag5
ag5
ag5
ag5
ag5
ag5
asS'intr_721'
p764
(lp765
g5
ag5
ag5
ag5
ag5
ag5
ag5
ag5
ag5
asS'intr_142'
p766
(lp767
g5
ag5
ag5
ag5
ag5
ag5
ag5
ag5
ag5
asS'intr_141'
p768
(lp769
g5
ag5
ag5
ag5
ag5
ag5
ag5
ag5
ag5
asS'intr_140'
p770
(lp771
g5
ag5
ag5
ag5
ag5
ag5
ag5
ag5
ag5
asS'intr_563'
p772
(lp773
g5
ag5
ag5
ag5
ag5
ag5
ag5
ag5
ag5
asS'intr_234'
p774
(lp775
g5
ag5
ag5
ag5
ag5
ag5
ag5
ag5
ag5
asS'intr_802'
p776
(lp777
g5
ag5
ag5
ag5
ag5
ag5
ag5
ag5
ag5
asS'intr_330'
p778
(lp779
g5
ag5
ag5
ag5
ag5
ag5
ag5
ag5
ag5
asS'intr_800'
p780
(lp781
g5
ag5
ag5
ag5
ag5
ag5
ag5
ag5
ag5
asS'intr_801'
p782
(lp783
g5
ag5
ag5
ag5
ag5
ag5
ag5
ag5
ag5
asS'intr_806'
p784
(lp785
g5
ag5
ag5
ag5
ag5
ag5
ag5
ag5
ag5
asS'intr_807'
p786
(lp787
g5
ag5
ag5
ag5
ag5
ag5
ag5
ag5
ag5
asS'intr_804'
p788
(lp789
g5
ag5
ag5
ag5
ag5
ag5
ag5
ag5
ag5
asS'intr_331'
p790
(lp791
g5
ag5
ag5
ag5
ag5
ag5
ag5
ag5
ag5
asS'intr_789'
p792
(lp793
g5
ag5
ag5
ag5
ag5
ag5
ag5
ag5
ag5
asS'intr_808'
p794
(lp795
g5
ag5
ag5
ag5
ag5
ag5
ag5
ag5
ag5
asS'intr_809'
p796
(lp797
g5
ag5
ag5
ag5
ag5
ag5
ag5
ag5
ag5
asS'intr_788'
p798
(lp799
g5
ag5
ag5
ag5
ag5
ag5
ag5
ag5
ag5
asS'intr_333'
p800
(lp801
g5
ag5
ag5
ag5
ag5
ag5
ag5
ag5
ag5
asS'intr_158'
p802
(lp803
g5
ag5
ag5
ag5
ag5
ag5
ag5
ag5
ag5
asS'intr_159'
p804
(lp805
g5
ag5
ag5
ag5
ag5
ag5
ag5
ag5
ag5
asS'intr_154'
p806
(lp807
g5
ag5
ag5
ag5
ag5
ag5
ag5
ag5
ag5
asS'intr_155'
p808
(lp809
g5
ag5
ag5
ag5
ag5
ag5
ag5
ag5
ag5
asS'intr_156'
p810
(lp811
g5
ag5
ag5
ag5
ag5
ag5
ag5
ag5
ag5
asS'intr_157'
p812
(lp813
g5
ag5
ag5
ag5
ag5
ag5
ag5
ag5
ag5
asS'intr_150'
p814
(lp815
g5
ag5
ag5
ag5
ag5
ag5
ag5
ag5
ag5
asS'intr_151'
p816
(lp817
g5
ag5
ag5
ag5
ag5
ag5
ag5
ag5
ag5
asS'intr_152'
p818
(lp819
g5
ag5
ag5
ag5
ag5
ag5
ag5
ag5
ag5
asS'intr_153'
p820
(lp821
g5
ag5
ag5
ag5
ag5
ag5
ag5
ag5
ag5
asS'intr_653'
p822
(lp823
g5
ag5
ag5
ag5
ag5
ag5
ag5
ag5
ag5
asS'intr_652'
p824
(lp825
g5
ag5
ag5
ag5
ag5
ag5
ag5
ag5
ag5
asS'intr_651'
p826
(lp827
g5
ag5
ag5
ag5
ag5
ag5
ag5
ag5
ag5
asS'intr_650'
p828
(lp829
g5
ag5
ag5
ag5
ag5
ag5
ag5
ag5
ag5
asS'intr_657'
p830
(lp831
g5
ag5
ag5
ag5
ag5
ag5
ag5
ag5
ag5
asS'intr_656'
p832
(lp833
g5
ag5
ag5
ag5
ag5
ag5
ag5
ag5
ag5
asS'intr_655'
p834
(lp835
g5
ag5
ag5
ag5
ag5
ag5
ag5
ag5
ag5
asS'intr_654'
p836
(lp837
g5
ag5
ag5
ag5
ag5
ag5
ag5
ag5
ag5
asS'intr_792'
p838
(lp839
g5
ag5
ag5
ag5
ag5
ag5
ag5
ag5
ag5
asS'intr_793'
p840
(lp841
g5
ag5
ag5
ag5
ag5
ag5
ag5
ag5
ag5
asS'intr_659'
p842
(lp843
g5
ag5
ag5
ag5
ag5
ag5
ag5
ag5
ag5
asS'intr_658'
p844
(lp845
g5
ag5
ag5
ag5
ag5
ag5
ag5
ag5
ag5
asS'intr_796'
p846
(lp847
g5
ag5
ag5
ag5
ag5
ag5
ag5
ag5
ag5
asS'intr_797'
p848
(lp849
g5
ag5
ag5
ag5
ag5
ag5
ag5
ag5
ag5
asS'intr_794'
p850
(lp851
g5
ag5
ag5
ag5
ag5
ag5
ag5
ag5
ag5
asS'intr_795'
p852
(lp853
g5
ag5
ag5
ag5
ag5
ag5
ag5
ag5
ag5
asS'intr_781'
p854
(lp855
g5
ag5
ag5
ag5
ag5
ag5
ag5
ag5
ag5
asS'softirq_10'
p856
(lp857
S'1457'
p858
aS'1457'
p859
aS'1457'
p860
aS'1457'
p861
aS'1457'
p862
aS'1457'
p863
aS'1457'
p864
aS'1457'
p865
aS'1457'
p866
asS'intr_783'
p867
(lp868
g5
ag5
ag5
ag5
ag5
ag5
ag5
ag5
ag5
asS'btime_1'
p869
(lp870
S'1329431306'
p871
aS'1329431306'
p872
aS'1329431306'
p873
aS'1329431306'
p874
aS'1329431306'
p875
aS'1329431306'
p876
aS'1329431306'
p877
aS'1329431306'
p878
aS'1329431306'
p879
asS'intr_782'
p880
(lp881
g5
ag5
ag5
ag5
ag5
ag5
ag5
ag5
ag5
asS'intr_389'
p882
(lp883
g5
ag5
ag5
ag5
ag5
ag5
ag5
ag5
ag5
asS'intr_388'
p884
(lp885
g5
ag5
ag5
ag5
ag5
ag5
ag5
ag5
ag5
asS'intr_381'
p886
(lp887
g5
ag5
ag5
ag5
ag5
ag5
ag5
ag5
ag5
asS'intr_380'
p888
(lp889
g5
ag5
ag5
ag5
ag5
ag5
ag5
ag5
ag5
asS'intr_383'
p890
(lp891
g5
ag5
ag5
ag5
ag5
ag5
ag5
ag5
ag5
asS'intr_382'
p892
(lp893
g5
ag5
ag5
ag5
ag5
ag5
ag5
ag5
ag5
asS'intr_385'
p894
(lp895
g5
ag5
ag5
ag5
ag5
ag5
ag5
ag5
ag5
asS'intr_384'
p896
(lp897
g5
ag5
ag5
ag5
ag5
ag5
ag5
ag5
ag5
asS'intr_387'
p898
(lp899
g5
ag5
ag5
ag5
ag5
ag5
ag5
ag5
ag5
asS'intr_386'
p900
(lp901
g5
ag5
ag5
ag5
ag5
ag5
ag5
ag5
ag5
asS'intr_477'
p902
(lp903
g5
ag5
ag5
ag5
ag5
ag5
ag5
ag5
ag5
asS'intr_476'
p904
(lp905
g5
ag5
ag5
ag5
ag5
ag5
ag5
ag5
ag5
asS'intr_475'
p906
(lp907
g5
ag5
ag5
ag5
ag5
ag5
ag5
ag5
ag5
asS'intr_474'
p908
(lp909
g5
ag5
ag5
ag5
ag5
ag5
ag5
ag5
ag5
asS'intr_473'
p910
(lp911
g5
ag5
ag5
ag5
ag5
ag5
ag5
ag5
ag5
asS'intr_472'
p912
(lp913
g5
ag5
ag5
ag5
ag5
ag5
ag5
ag5
ag5
asS'intr_471'
p914
(lp915
g5
ag5
ag5
ag5
ag5
ag5
ag5
ag5
ag5
asS'intr_470'
p916
(lp917
g5
ag5
ag5
ag5
ag5
ag5
ag5
ag5
ag5
asS'intr_576'
p918
(lp919
g5
ag5
ag5
ag5
ag5
ag5
ag5
ag5
ag5
asS'intr_577'
p920
(lp921
g5
ag5
ag5
ag5
ag5
ag5
ag5
ag5
ag5
asS'intr_574'
p922
(lp923
g5
ag5
ag5
ag5
ag5
ag5
ag5
ag5
ag5
asS'intr_575'
p924
(lp925
g5
ag5
ag5
ag5
ag5
ag5
ag5
ag5
ag5
asS'intr_572'
p926
(lp927
g5
ag5
ag5
ag5
ag5
ag5
ag5
ag5
ag5
asS'intr_573'
p928
(lp929
g5
ag5
ag5
ag5
ag5
ag5
ag5
ag5
ag5
asS'intr_479'
p930
(lp931
g5
ag5
ag5
ag5
ag5
ag5
ag5
ag5
ag5
asS'intr_478'
p932
(lp933
g5
ag5
ag5
ag5
ag5
ag5
ag5
ag5
ag5
asS'intr_45'
p934
(lp935
g5
ag5
ag5
ag5
ag5
ag5
ag5
ag5
ag5
asS'intr_44'
p936
(lp937
g5
ag5
ag5
ag5
ag5
ag5
ag5
ag5
ag5
asS'intr_47'
p938
(lp939
g5
ag5
ag5
ag5
ag5
ag5
ag5
ag5
ag5
asS'intr_46'
p940
(lp941
g5
ag5
ag5
ag5
ag5
ag5
ag5
ag5
ag5
asS'intr_41'
p942
(lp943
g5
ag5
ag5
ag5
ag5
ag5
ag5
ag5
ag5
asS'intr_40'
p944
(lp945
g5
ag5
ag5
ag5
ag5
ag5
ag5
ag5
ag5
asS'intr_43'
p946
(lp947
g5
ag5
ag5
ag5
ag5
ag5
ag5
ag5
ag5
asS'intr_42'
p948
(lp949
g5
ag5
ag5
ag5
ag5
ag5
ag5
ag5
ag5
asS'intr_49'
p950
(lp951
g5
ag5
ag5
ag5
ag5
ag5
ag5
ag5
ag5
asS'intr_48'
p952
(lp953
g5
ag5
ag5
ag5
ag5
ag5
ag5
ag5
ag5
asS'cpu0_5'
p954
(lp955
S'87353'
p956
aS'87353'
p957
aS'87353'
p958
aS'87353'
p959
aS'87353'
p960
aS'87353'
p961
aS'87353'
p962
aS'87353'
p963
aS'87353'
p964
asS'cpu0_4'
p965
(lp966
S'15032123'
p967
aS'15032221'
p968
aS'15032319'
p969
aS'15032414'
p970
aS'15032512'
p971
aS'15032608'
p972
aS'15032705'
p973
aS'15032801'
p974
aS'15032899'
p975
asS'cpu0_7'
p976
(lp977
S'24306'
p978
aS'24307'
p979
aS'24307'
p980
aS'24307'
p981
aS'24307'
p982
aS'24307'
p983
aS'24307'
p984
aS'24308'
p985
aS'24308'
p986
asS'cpu0_6'
p987
(lp988
g5
ag5
ag5
ag5
ag5
ag5
ag5
ag5
ag5
asS'cpu0_1'
p989
(lp990
S'182359'
p991
aS'182359'
p992
aS'182359'
p993
aS'182360'
p994
aS'182360'
p995
aS'182360'
p996
aS'182360'
p997
aS'182360'
p998
aS'182360'
p999
asS'cpu0_3'
p1000
(lp1001
S'50395'
p1002
aS'50396'
p1003
aS'50398'
p1004
aS'50400'
p1005
aS'50401'
p1006
aS'50403'
p1007
aS'50405'
p1008
aS'50407'
p1009
aS'50409'
p1010
asS'cpu0_2'
p1011
(lp1012
S'5909'
p1013
aS'5909'
p1014
aS'5909'
p1015
aS'5909'
p1016
aS'5909'
p1017
aS'5909'
p1018
aS'5909'
p1019
aS'5909'
p1020
aS'5909'
p1021
asS'cpu0_9'
p1022
(lp1023
g5
ag5
ag5
ag5
ag5
ag5
ag5
ag5
ag5
asS'cpu0_8'
p1024
(lp1025
g5
ag5
ag5
ag5
ag5
ag5
ag5
ag5
ag5
asS'intr_751'
p1026
(lp1027
g5
ag5
ag5
ag5
ag5
ag5
ag5
ag5
ag5
asS'procs_running_1'
p1028
(lp1029
g755
ag755
ag755
ag755
ag755
ag755
ag755
ag755
ag755
asS'intr_420'
p1030
(lp1031
g5
ag5
ag5
ag5
ag5
ag5
ag5
ag5
ag5
asS'intr_279'
p1032
(lp1033
g5
ag5
ag5
ag5
ag5
ag5
ag5
ag5
ag5
asS'intr_278'
p1034
(lp1035
g5
ag5
ag5
ag5
ag5
ag5
ag5
ag5
ag5
asS'intr_421'
p1036
(lp1037
g5
ag5
ag5
ag5
ag5
ag5
ag5
ag5
ag5
asS'intr_275'
p1038
(lp1039
g5
ag5
ag5
ag5
ag5
ag5
ag5
ag5
ag5
asS'intr_274'
p1040
(lp1041
g5
ag5
ag5
ag5
ag5
ag5
ag5
ag5
ag5
asS'intr_277'
p1042
(lp1043
g5
ag5
ag5
ag5
ag5
ag5
ag5
ag5
ag5
asS'intr_276'
p1044
(lp1045
g5
ag5
ag5
ag5
ag5
ag5
ag5
ag5
ag5
asS'intr_271'
p1046
(lp1047
g5
ag5
ag5
ag5
ag5
ag5
ag5
ag5
ag5
asS'intr_270'
p1048
(lp1049
g5
ag5
ag5
ag5
ag5
ag5
ag5
ag5
ag5
asS'intr_273'
p1050
(lp1051
g5
ag5
ag5
ag5
ag5
ag5
ag5
ag5
ag5
asS'intr_272'
p1052
(lp1053
g5
ag5
ag5
ag5
ag5
ag5
ag5
ag5
ag5
asS'intr_374'
p1054
(lp1055
g5
ag5
ag5
ag5
ag5
ag5
ag5
ag5
ag5
asS'intr_375'
p1056
(lp1057
g5
ag5
ag5
ag5
ag5
ag5
ag5
ag5
ag5
asS'intr_376'
p1058
(lp1059
g5
ag5
ag5
ag5
ag5
ag5
ag5
ag5
ag5
asS'intr_351'
p1060
(lp1061
g5
ag5
ag5
ag5
ag5
ag5
ag5
ag5
ag5
asS'intr_370'
p1062
(lp1063
g5
ag5
ag5
ag5
ag5
ag5
ag5
ag5
ag5
asS'intr_371'
p1064
(lp1065
g5
ag5
ag5
ag5
ag5
ag5
ag5
ag5
ag5
asS'intr_372'
p1066
(lp1067
g5
ag5
ag5
ag5
ag5
ag5
ag5
ag5
ag5
asS'intr_373'
p1068
(lp1069
g5
ag5
ag5
ag5
ag5
ag5
ag5
ag5
ag5
asS'intr_424'
p1070
(lp1071
g5
ag5
ag5
ag5
ag5
ag5
ag5
ag5
ag5
asS'intr_728'
p1072
(lp1073
g5
ag5
ag5
ag5
ag5
ag5
ag5
ag5
ag5
asS'intr_378'
p1074
(lp1075
g5
ag5
ag5
ag5
ag5
ag5
ag5
ag5
ag5
asS'intr_379'
p1076
(lp1077
g5
ag5
ag5
ag5
ag5
ag5
ag5
ag5
ag5
asS'intr_425'
p1078
(lp1079
g5
ag5
ag5
ag5
ag5
ag5
ag5
ag5
ag5
asS'intr_426'
p1080
(lp1081
g5
ag5
ag5
ag5
ag5
ag5
ag5
ag5
ag5
asS'intr_726'
p1082
(lp1083
g5
ag5
ag5
ag5
ag5
ag5
ag5
ag5
ag5
asS'intr_427'
p1084
(lp1085
g5
ag5
ag5
ag5
ag5
ag5
ag5
ag5
ag5
asS'procs_blocked_1'
p1086
(lp1087
g5
ag5
ag5
ag5
ag5
ag5
ag5
ag5
ag5
asS'intr_358'
p1088
(lp1089
g5
ag5
ag5
ag5
ag5
ag5
ag5
ag5
ag5
asS'intr_720'
p1090
(lp1091
g5
ag5
ag5
ag5
ag5
ag5
ag5
ag5
ag5
asS'intr_208'
p1092
(lp1093
g5
ag5
ag5
ag5
ag5
ag5
ag5
ag5
ag5
asS'intr_209'
p1094
(lp1095
g5
ag5
ag5
ag5
ag5
ag5
ag5
ag5
ag5
asS'intr_559'
p1096
(lp1097
g5
ag5
ag5
ag5
ag5
ag5
ag5
ag5
ag5
asS'intr_200'
p1098
(lp1099
g5
ag5
ag5
ag5
ag5
ag5
ag5
ag5
ag5
asS'intr_201'
p1100
(lp1101
g5
ag5
ag5
ag5
ag5
ag5
ag5
ag5
ag5
asS'intr_202'
p1102
(lp1103
g5
ag5
ag5
ag5
ag5
ag5
ag5
ag5
ag5
asS'intr_203'
p1104
(lp1105
g5
ag5
ag5
ag5
ag5
ag5
ag5
ag5
ag5
asS'intr_204'
p1106
(lp1107
g5
ag5
ag5
ag5
ag5
ag5
ag5
ag5
ag5
asS'intr_205'
p1108
(lp1109
g5
ag5
ag5
ag5
ag5
ag5
ag5
ag5
ag5
asS'intr_206'
p1110
(lp1111
g5
ag5
ag5
ag5
ag5
ag5
ag5
ag5
ag5
asS'intr_207'
p1112
(lp1113
g5
ag5
ag5
ag5
ag5
ag5
ag5
ag5
ag5
asS'intr_359'
p1114
(lp1115
g5
ag5
ag5
ag5
ag5
ag5
ag5
ag5
ag5
asS'intr_619'
p1116
(lp1117
g5
ag5
ag5
ag5
ag5
ag5
ag5
ag5
ag5
asS'intr_618'
p1118
(lp1119
g5
ag5
ag5
ag5
ag5
ag5
ag5
ag5
ag5
asS'intr_617'
p1120
(lp1121
g5
ag5
ag5
ag5
ag5
ag5
ag5
ag5
ag5
asS'intr_616'
p1122
(lp1123
g5
ag5
ag5
ag5
ag5
ag5
ag5
ag5
ag5
asS'intr_615'
p1124
(lp1125
g5
ag5
ag5
ag5
ag5
ag5
ag5
ag5
ag5
asS'intr_614'
p1126
(lp1127
g5
ag5
ag5
ag5
ag5
ag5
ag5
ag5
ag5
asS'intr_613'
p1128
(lp1129
g5
ag5
ag5
ag5
ag5
ag5
ag5
ag5
ag5
asS'intr_612'
p1130
(lp1131
g5
ag5
ag5
ag5
ag5
ag5
ag5
ag5
ag5
asS'intr_611'
p1132
(lp1133
g5
ag5
ag5
ag5
ag5
ag5
ag5
ag5
ag5
asS'intr_610'
p1134
(lp1135
g5
ag5
ag5
ag5
ag5
ag5
ag5
ag5
ag5
asS'intr_756'
p1136
(lp1137
g5
ag5
ag5
ag5
ag5
ag5
ag5
ag5
ag5
asS'intr_550'
p1138
(lp1139
g5
ag5
ag5
ag5
ag5
ag5
ag5
ag5
ag5
asS'intr_754'
p1140
(lp1141
g5
ag5
ag5
ag5
ag5
ag5
ag5
ag5
ag5
asS'intr_755'
p1142
(lp1143
g5
ag5
ag5
ag5
ag5
ag5
ag5
ag5
ag5
asS'intr_752'
p1144
(lp1145
g5
ag5
ag5
ag5
ag5
ag5
ag5
ag5
ag5
asS'intr_753'
p1146
(lp1147
g5
ag5
ag5
ag5
ag5
ag5
ag5
ag5
ag5
asS'intr_750'
p1148
(lp1149
g5
ag5
ag5
ag5
ag5
ag5
ag5
ag5
ag5
asS'intr_551'
p1150
(lp1151
g5
ag5
ag5
ag5
ag5
ag5
ag5
ag5
ag5
asS'intr_758'
p1152
(lp1153
g5
ag5
ag5
ag5
ag5
ag5
ag5
ag5
ag5
asS'intr_759'
p1154
(lp1155
g5
ag5
ag5
ag5
ag5
ag5
ag5
ag5
ag5
asS'intr_538'
p1156
(lp1157
g5
ag5
ag5
ag5
ag5
ag5
ag5
ag5
ag5
asS'intr_539'
p1158
(lp1159
g5
ag5
ag5
ag5
ag5
ag5
ag5
ag5
ag5
asS'intr_532'
p1160
(lp1161
g5
ag5
ag5
ag5
ag5
ag5
ag5
ag5
ag5
asS'intr_533'
p1162
(lp1163
g5
ag5
ag5
ag5
ag5
ag5
ag5
ag5
ag5
asS'intr_530'
p1164
(lp1165
g5
ag5
ag5
ag5
ag5
ag5
ag5
ag5
ag5
asS'intr_531'
p1166
(lp1167
g5
ag5
ag5
ag5
ag5
ag5
ag5
ag5
ag5
asS'intr_536'
p1168
(lp1169
g5
ag5
ag5
ag5
ag5
ag5
ag5
ag5
ag5
asS'intr_537'
p1170
(lp1171
g5
ag5
ag5
ag5
ag5
ag5
ag5
ag5
ag5
asS'intr_534'
p1172
(lp1173
g5
ag5
ag5
ag5
ag5
ag5
ag5
ag5
ag5
asS'intr_535'
p1174
(lp1175
g5
ag5
ag5
ag5
ag5
ag5
ag5
ag5
ag5
asS'intr_103'
p1176
(lp1177
g5
ag5
ag5
ag5
ag5
ag5
ag5
ag5
ag5
asS'intr_102'
p1178
(lp1179
g5
ag5
ag5
ag5
ag5
ag5
ag5
ag5
ag5
asS'intr_101'
p1180
(lp1181
g5
ag5
ag5
ag5
ag5
ag5
ag5
ag5
ag5
asS'intr_100'
p1182
(lp1183
g5
ag5
ag5
ag5
ag5
ag5
ag5
ag5
ag5
asS'intr_107'
p1184
(lp1185
g5
ag5
ag5
ag5
ag5
ag5
ag5
ag5
ag5
asS'intr_106'
p1186
(lp1187
g5
ag5
ag5
ag5
ag5
ag5
ag5
ag5
ag5
asS'intr_105'
p1188
(lp1189
g5
ag5
ag5
ag5
ag5
ag5
ag5
ag5
ag5
asS'intr_104'
p1190
(lp1191
g5
ag5
ag5
ag5
ag5
ag5
ag5
ag5
ag5
asS'intr_109'
p1192
(lp1193
g5
ag5
ag5
ag5
ag5
ag5
ag5
ag5
ag5
asS'intr_108'
p1194
(lp1195
g5
ag5
ag5
ag5
ag5
ag5
ag5
ag5
ag5
asS'intr_89'
p1196
(lp1197
g5
ag5
ag5
ag5
ag5
ag5
ag5
ag5
ag5
asS'intr_88'
p1198
(lp1199
g5
ag5
ag5
ag5
ag5
ag5
ag5
ag5
ag5
asS'intr_81'
p1200
(lp1201
g5
ag5
ag5
ag5
ag5
ag5
ag5
ag5
ag5
asS'intr_80'
p1202
(lp1203
g5
ag5
ag5
ag5
ag5
ag5
ag5
ag5
ag5
asS'intr_83'
p1204
(lp1205
g5
ag5
ag5
ag5
ag5
ag5
ag5
ag5
ag5
asS'intr_82'
p1206
(lp1207
g5
ag5
ag5
ag5
ag5
ag5
ag5
ag5
ag5
asS'intr_85'
p1208
(lp1209
g5
ag5
ag5
ag5
ag5
ag5
ag5
ag5
ag5
asS'intr_84'
p1210
(lp1211
g5
ag5
ag5
ag5
ag5
ag5
ag5
ag5
ag5
asS'intr_87'
p1212
(lp1213
g5
ag5
ag5
ag5
ag5
ag5
ag5
ag5
ag5
asS'intr_86'
p1214
(lp1215
g5
ag5
ag5
ag5
ag5
ag5
ag5
ag5
ag5
asS'intr_562'
p1216
(lp1217
g5
ag5
ag5
ag5
ag5
ag5
ag5
ag5
ag5
asS'intr_589'
p1218
(lp1219
g5
ag5
ag5
ag5
ag5
ag5
ag5
ag5
ag5
asS'intr_588'
p1220
(lp1221
g5
ag5
ag5
ag5
ag5
ag5
ag5
ag5
ag5
asS'intr_587'
p1222
(lp1223
g5
ag5
ag5
ag5
ag5
ag5
ag5
ag5
ag5
asS'intr_586'
p1224
(lp1225
g5
ag5
ag5
ag5
ag5
ag5
ag5
ag5
ag5
asS'intr_585'
p1226
(lp1227
g5
ag5
ag5
ag5
ag5
ag5
ag5
ag5
ag5
asS'intr_584'
p1228
(lp1229
g5
ag5
ag5
ag5
ag5
ag5
ag5
ag5
ag5
asS'intr_583'
p1230
(lp1231
g5
ag5
ag5
ag5
ag5
ag5
ag5
ag5
ag5
asS'intr_582'
p1232
(lp1233
g5
ag5
ag5
ag5
ag5
ag5
ag5
ag5
ag5
asS'intr_581'
p1234
(lp1235
g5
ag5
ag5
ag5
ag5
ag5
ag5
ag5
ag5
asS'intr_580'
p1236
(lp1237
g5
ag5
ag5
ag5
ag5
ag5
ag5
ag5
ag5
asS'intr_569'
p1238
(lp1239
g5
ag5
ag5
ag5
ag5
ag5
ag5
ag5
ag5
asS'intr_408'
p1240
(lp1241
g5
ag5
ag5
ag5
ag5
ag5
ag5
ag5
ag5
asS'intr_409'
p1242
(lp1243
g5
ag5
ag5
ag5
ag5
ag5
ag5
ag5
ag5
asS'intr_406'
p1244
(lp1245
g5
ag5
ag5
ag5
ag5
ag5
ag5
ag5
ag5
asS'intr_407'
p1246
(lp1247
g5
ag5
ag5
ag5
ag5
ag5
ag5
ag5
ag5
asS'intr_404'
p1248
(lp1249
g5
ag5
ag5
ag5
ag5
ag5
ag5
ag5
ag5
asS'intr_405'
p1250
(lp1251
g5
ag5
ag5
ag5
ag5
ag5
ag5
ag5
ag5
asS'intr_402'
p1252
(lp1253
g5
ag5
ag5
ag5
ag5
ag5
ag5
ag5
ag5
asS'intr_403'
p1254
(lp1255
g5
ag5
ag5
ag5
ag5
ag5
ag5
ag5
ag5
asS'intr_400'
p1256
(lp1257
g5
ag5
ag5
ag5
ag5
ag5
ag5
ag5
ag5
asS'intr_401'
p1258
(lp1259
g5
ag5
ag5
ag5
ag5
ag5
ag5
ag5
ag5
asS'intr_803'
p1260
(lp1261
g5
ag5
ag5
ag5
ag5
ag5
ag5
ag5
ag5
asS'intr_18'
p1262
(lp1263
S'793751'
p1264
aS'793751'
p1265
aS'793751'
p1266
aS'793751'
p1267
aS'793751'
p1268
aS'793751'
p1269
aS'793751'
p1270
aS'793751'
p1271
aS'793751'
p1272
asS'intr_19'
p1273
(lp1274
S'1974'
p1275
aS'1974'
p1276
aS'1974'
p1277
aS'1974'
p1278
aS'1974'
p1279
aS'1974'
p1280
aS'1974'
p1281
aS'1974'
p1282
aS'1974'
p1283
asS'intr_16'
p1284
(lp1285
S'53'
p1286
aS'53'
p1287
aS'53'
p1288
aS'53'
p1289
aS'53'
p1290
aS'53'
p1291
aS'53'
p1292
aS'53'
p1293
aS'53'
p1294
asS'intr_17'
p1295
(lp1296
g5
ag5
ag5
ag5
ag5
ag5
ag5
ag5
ag5
asS'intr_14'
p1297
(lp1298
S'246'
p1299
aS'246'
p1300
aS'246'
p1301
aS'246'
p1302
aS'246'
p1303
aS'246'
p1304
aS'246'
p1305
aS'246'
p1306
aS'246'
p1307
asS'intr_15'
p1308
(lp1309
g5
ag5
ag5
ag5
ag5
ag5
ag5
ag5
ag5
asS'intr_12'
p1310
(lp1311
g5
ag5
ag5
ag5
ag5
ag5
ag5
ag5
ag5
asS'intr_13'
p1312
(lp1313
g5
ag5
ag5
ag5
ag5
ag5
ag5
ag5
ag5
asS'intr_10'
p1314
(lp1315
g5
ag5
ag5
ag5
ag5
ag5
ag5
ag5
ag5
asS'intr_11'
p1316
(lp1317
S'840522'
p1318
aS'840522'
p1319
aS'840522'
p1320
aS'840522'
p1321
aS'840522'
p1322
aS'840522'
p1323
aS'840522'
p1324
aS'840522'
p1325
aS'840522'
p1326
asS'intr_350'
p1327
(lp1328
g5
ag5
ag5
ag5
ag5
ag5
ag5
ag5
ag5
asS'intr_805'
p1329
(lp1330
g5
ag5
ag5
ag5
ag5
ag5
ag5
ag5
ag5
asS'intr_244'
p1331
(lp1332
g5
ag5
ag5
ag5
ag5
ag5
ag5
ag5
ag5
asS'intr_245'
p1333
(lp1334
g5
ag5
ag5
ag5
ag5
ag5
ag5
ag5
ag5
asS'intr_246'
p1335
(lp1336
g5
ag5
ag5
ag5
ag5
ag5
ag5
ag5
ag5
asS'intr_247'
p1337
(lp1338
g5
ag5
ag5
ag5
ag5
ag5
ag5
ag5
ag5
asS'intr_240'
p1339
(lp1340
g5
ag5
ag5
ag5
ag5
ag5
ag5
ag5
ag5
asS'intr_241'
p1341
(lp1342
g5
ag5
ag5
ag5
ag5
ag5
ag5
ag5
ag5
asS'intr_242'
p1343
(lp1344
g5
ag5
ag5
ag5
ag5
ag5
ag5
ag5
ag5
asS'intr_243'
p1345
(lp1346
g5
ag5
ag5
ag5
ag5
ag5
ag5
ag5
ag5
asS'intr_323'
p1347
(lp1348
g5
ag5
ag5
ag5
ag5
ag5
ag5
ag5
ag5
asS'intr_322'
p1349
(lp1350
g5
ag5
ag5
ag5
ag5
ag5
ag5
ag5
ag5
asS'intr_321'
p1351
(lp1352
g5
ag5
ag5
ag5
ag5
ag5
ag5
ag5
ag5
asS'intr_320'
p1353
(lp1354
g5
ag5
ag5
ag5
ag5
ag5
ag5
ag5
ag5
asS'intr_248'
p1355
(lp1356
g5
ag5
ag5
ag5
ag5
ag5
ag5
ag5
ag5
asS'intr_249'
p1357
(lp1358
g5
ag5
ag5
ag5
ag5
ag5
ag5
ag5
ag5
asS'intr_325'
p1359
(lp1360
g5
ag5
ag5
ag5
ag5
ag5
ag5
ag5
ag5
asS'intr_324'
p1361
(lp1362
g5
ag5
ag5
ag5
ag5
ag5
ag5
ag5
ag5
asS'intr_712'
p1363
(lp1364
g5
ag5
ag5
ag5
ag5
ag5
ag5
ag5
ag5
asS'intr_713'
p1365
(lp1366
g5
ag5
ag5
ag5
ag5
ag5
ag5
ag5
ag5
asS'intr_710'
p1367
(lp1368
g5
ag5
ag5
ag5
ag5
ag5
ag5
ag5
ag5
asS'intr_711'
p1369
(lp1370
g5
ag5
ag5
ag5
ag5
ag5
ag5
ag5
ag5
asS'intr_716'
p1371
(lp1372
g5
ag5
ag5
ag5
ag5
ag5
ag5
ag5
ag5
asS'intr_717'
p1373
(lp1374
g5
ag5
ag5
ag5
ag5
ag5
ag5
ag5
ag5
asS'intr_714'
p1375
(lp1376
g5
ag5
ag5
ag5
ag5
ag5
ag5
ag5
ag5
asS'intr_715'
p1377
(lp1378
g5
ag5
ag5
ag5
ag5
ag5
ag5
ag5
ag5
asS'intr_718'
p1379
(lp1380
g5
ag5
ag5
ag5
ag5
ag5
ag5
ag5
ag5
asS'intr_719'
p1381
(lp1382
g5
ag5
ag5
ag5
ag5
ag5
ag5
ag5
ag5
asS'intr_4'
p1383
(lp1384
g5
ag5
ag5
ag5
ag5
ag5
ag5
ag5
ag5
asS'intr_5'
p1385
(lp1386
g5
ag5
ag5
ag5
ag5
ag5
ag5
ag5
ag5
asS'intr_6'
p1387
(lp1388
g5
ag5
ag5
ag5
ag5
ag5
ag5
ag5
ag5
asS'intr_7'
p1389
(lp1390
g5
ag5
ag5
ag5
ag5
ag5
ag5
ag5
ag5
asS'cpu1_8'
p1391
(lp1392
g5
ag5
ag5
ag5
ag5
ag5
ag5
ag5
ag5
asS'intr_1'
p1393
(lp1394
S'10474385'
p1395
aS'10474838'
p1396
aS'10475369'
p1397
aS'10475922'
p1398
aS'10476445'
p1399
aS'10476899'
p1400
aS'10477346'
p1401
aS'10477959'
p1402
aS'10478591'
p1403
asS'intr_2'
p1404
(lp1405
S'106'
p1406
aS'106'
p1407
aS'106'
p1408
aS'106'
p1409
aS'106'
p1410
aS'106'
p1411
aS'106'
p1412
aS'106'
p1413
aS'106'
p1414
asS'intr_3'
p1415
(lp1416
S'32'
p1417
aS'32'
p1418
aS'32'
p1419
aS'32'
p1420
aS'32'
p1421
aS'32'
p1422
aS'32'
p1423
aS'32'
p1424
aS'32'
p1425
asS'cpu1_4'
p1426
(lp1427
S'15175057'
p1428
aS'15175057'
p1429
aS'15175057'
p1430
aS'15175057'
p1431
aS'15175057'
p1432
aS'15175057'
p1433
aS'15175057'
p1434
aS'15175057'
p1435
aS'15175057'
p1436
asS'cpu1_5'
p1437
(lp1438
S'20269'
p1439
aS'20269'
p1440
aS'20269'
p1441
aS'20269'
p1442
aS'20269'
p1443
aS'20269'
p1444
aS'20269'
p1445
aS'20269'
p1446
aS'20269'
p1447
asS'cpu1_6'
p1448
(lp1449
g5
ag5
ag5
ag5
ag5
ag5
ag5
ag5
ag5
asS'cpu1_7'
p1450
(lp1451
S'3236'
p1452
aS'3236'
p1453
aS'3236'
p1454
aS'3237'
p1455
aS'3237'
p1456
aS'3237'
p1457
aS'3237'
p1458
aS'3237'
p1459
aS'3237'
p1460
asS'intr_143'
p1461
(lp1462
g5
ag5
ag5
ag5
ag5
ag5
ag5
ag5
ag5
asS'intr_9'
p1463
(lp1464
g5
ag5
ag5
ag5
ag5
ag5
ag5
ag5
ag5
asS'cpu1_2'
p1465
(lp1466
S'4314'
p1467
aS'4314'
p1468
aS'4314'
p1469
aS'4314'
p1470
aS'4314'
p1471
aS'4314'
p1472
aS'4314'
p1473
aS'4314'
p1474
aS'4314'
p1475
asS'cpu1_3'
p1476
(lp1477
S'30462'
p1478
aS'30479'
p1479
aS'30496'
p1480
aS'30510'
p1481
aS'30522'
p1482
aS'30536'
p1483
aS'30552'
p1484
aS'30564'
p1485
aS'30569'
p1486
asS'intr_666'
p1487
(lp1488
g5
ag5
ag5
ag5
ag5
ag5
ag5
ag5
ag5
asS'intr_667'
p1489
(lp1490
g5
ag5
ag5
ag5
ag5
ag5
ag5
ag5
ag5
asS'intr_664'
p1491
(lp1492
g5
ag5
ag5
ag5
ag5
ag5
ag5
ag5
ag5
asS'intr_665'
p1493
(lp1494
g5
ag5
ag5
ag5
ag5
ag5
ag5
ag5
ag5
asS'intr_662'
p1495
(lp1496
g5
ag5
ag5
ag5
ag5
ag5
ag5
ag5
ag5
asS'intr_663'
p1497
(lp1498
g5
ag5
ag5
ag5
ag5
ag5
ag5
ag5
ag5
asS'intr_660'
p1499
(lp1500
g5
ag5
ag5
ag5
ag5
ag5
ag5
ag5
ag5
asS'intr_661'
p1501
(lp1502
g5
ag5
ag5
ag5
ag5
ag5
ag5
ag5
ag5
asS'intr_785'
p1503
(lp1504
g5
ag5
ag5
ag5
ag5
ag5
ag5
ag5
ag5
asS'intr_784'
p1505
(lp1506
g5
ag5
ag5
ag5
ag5
ag5
ag5
ag5
ag5
asS'intr_787'
p1507
(lp1508
g5
ag5
ag5
ag5
ag5
ag5
ag5
ag5
ag5
asS'intr_786'
p1509
(lp1510
g5
ag5
ag5
ag5
ag5
ag5
ag5
ag5
ag5
asS'intr_464'
p1511
(lp1512
g5
ag5
ag5
ag5
ag5
ag5
ag5
ag5
ag5
asS'intr_780'
p1513
(lp1514
g5
ag5
ag5
ag5
ag5
ag5
ag5
ag5
ag5
asS'intr_668'
p1515
(lp1516
g5
ag5
ag5
ag5
ag5
ag5
ag5
ag5
ag5
asS'intr_669'
p1517
(lp1518
g5
ag5
ag5
ag5
ag5
ag5
ag5
ag5
ag5
asS'intr_501'
p1519
(lp1520
g5
ag5
ag5
ag5
ag5
ag5
ag5
ag5
ag5
asS'intr_798'
p1521
(lp1522
g5
ag5
ag5
ag5
ag5
ag5
ag5
ag5
ag5
asS'intr_799'
p1523
(lp1524
g5
ag5
ag5
ag5
ag5
ag5
ag5
ag5
ag5
asS'intr_500'
p1525
(lp1526
g5
ag5
ag5
ag5
ag5
ag5
ag5
ag5
ag5
asS'intr_448'
p1527
(lp1528
g5
ag5
ag5
ag5
ag5
ag5
ag5
ag5
ag5
asS'intr_449'
p1529
(lp1530
g5
ag5
ag5
ag5
ag5
ag5
ag5
ag5
ag5
asS'intr_442'
p1531
(lp1532
g5
ag5
ag5
ag5
ag5
ag5
ag5
ag5
ag5
asS'intr_443'
p1533
(lp1534
g5
ag5
ag5
ag5
ag5
ag5
ag5
ag5
ag5
asS'intr_440'
p1535
(lp1536
g5
ag5
ag5
ag5
ag5
ag5
ag5
ag5
ag5
asS'intr_441'
p1537
(lp1538
g5
ag5
ag5
ag5
ag5
ag5
ag5
ag5
ag5
asS'intr_446'
p1539
(lp1540
g5
ag5
ag5
ag5
ag5
ag5
ag5
ag5
ag5
asS'intr_447'
p1541
(lp1542
g5
ag5
ag5
ag5
ag5
ag5
ag5
ag5
ag5
asS'intr_444'
p1543
(lp1544
g5
ag5
ag5
ag5
ag5
ag5
ag5
ag5
ag5
asS'intr_445'
p1545
(lp1546
g5
ag5
ag5
ag5
ag5
ag5
ag5
ag5
ag5
asS'intr_561'
p1547
(lp1548
g5
ag5
ag5
ag5
ag5
ag5
ag5
ag5
ag5
asS'intr_560'
p1549
(lp1550
g5
ag5
ag5
ag5
ag5
ag5
ag5
ag5
ag5
asS'cpu_8'
p1551
(lp1552
g5
ag5
ag5
ag5
ag5
ag5
ag5
ag5
ag5
asS'cpu_9'
p1553
(lp1554
g5
ag5
ag5
ag5
ag5
ag5
ag5
ag5
ag5
asS'intr_565'
p1555
(lp1556
g5
ag5
ag5
ag5
ag5
ag5
ag5
ag5
ag5
asS'intr_564'
p1557
(lp1558
g5
ag5
ag5
ag5
ag5
ag5
ag5
ag5
ag5
asS'intr_567'
p1559
(lp1560
g5
ag5
ag5
ag5
ag5
ag5
ag5
ag5
ag5
asS'intr_566'
p1561
(lp1562
g5
ag5
ag5
ag5
ag5
ag5
ag5
ag5
ag5
asS'cpu_2'
p1563
(lp1564
S'10224'
p1565
aS'10224'
p1566
aS'10224'
p1567
aS'10224'
p1568
aS'10224'
p1569
aS'10224'
p1570
aS'10224'
p1571
aS'10224'
p1572
aS'10224'
p1573
asS'cpu_3'
p1574
(lp1575
S'80857'
p1576
aS'80876'
p1577
aS'80895'
p1578
aS'80910'
p1579
aS'80924'
p1580
aS'80939'
p1581
aS'80957'
p1582
aS'80971'
p1583
aS'80978'
p1584
asS'cpu_1'
p1585
(lp1586
S'344779'
p1587
aS'344853'
p1588
aS'344928'
p1589
aS'345004'
p1590
aS'345081'
p1591
aS'345159'
p1592
aS'345233'
p1593
aS'345313'
p1594
aS'345403'
p1595
asS'cpu_6'
p1596
(lp1597
g5
ag5
ag5
ag5
ag5
ag5
ag5
ag5
ag5
asS'cpu_7'
p1598
(lp1599
S'27542'
p1600
aS'27543'
p1601
aS'27543'
p1602
aS'27544'
p1603
aS'27544'
p1604
aS'27545'
p1605
aS'27545'
p1606
aS'27545'
p1607
aS'27545'
p1608
asS'cpu_4'
p1609
(lp1610
S'30207180'
p1611
aS'30207278'
p1612
aS'30207377'
p1613
aS'30207471'
p1614
aS'30207569'
p1615
aS'30207665'
p1616
aS'30207763'
p1617
aS'30207858'
p1618
aS'30207956'
p1619
asS'cpu_5'
p1620
(lp1621
S'107622'
p1622
aS'107622'
p1623
aS'107622'
p1624
aS'107622'
p1625
aS'107622'
p1626
aS'107622'
p1627
aS'107622'
p1628
aS'107622'
p1629
aS'107622'
p1630
asS'intr_52'
p1631
(lp1632
g5
ag5
ag5
ag5
ag5
ag5
ag5
ag5
ag5
asS'intr_53'
p1633
(lp1634
g5
ag5
ag5
ag5
ag5
ag5
ag5
ag5
ag5
asS'intr_50'
p1635
(lp1636
g5
ag5
ag5
ag5
ag5
ag5
ag5
ag5
ag5
asS'intr_51'
p1637
(lp1638
g5
ag5
ag5
ag5
ag5
ag5
ag5
ag5
ag5
asS'intr_56'
p1639
(lp1640
g5
ag5
ag5
ag5
ag5
ag5
ag5
ag5
ag5
asS'intr_57'
p1641
(lp1642
g5
ag5
ag5
ag5
ag5
ag5
ag5
ag5
ag5
asS'intr_54'
p1643
(lp1644
g5
ag5
ag5
ag5
ag5
ag5
ag5
ag5
ag5
asS'intr_55'
p1645
(lp1646
g5
ag5
ag5
ag5
ag5
ag5
ag5
ag5
ag5
asS'intr_58'
p1647
(lp1648
g5
ag5
ag5
ag5
ag5
ag5
ag5
ag5
ag5
asS'intr_59'
p1649
(lp1650
g5
ag5
ag5
ag5
ag5
ag5
ag5
ag5
ag5
asS'intr_422'
p1651
(lp1652
g5
ag5
ag5
ag5
ag5
ag5
ag5
ag5
ag5
asS'intr_600'
p1653
(lp1654
g5
ag5
ag5
ag5
ag5
ag5
ag5
ag5
ag5
asS'intr_601'
p1655
(lp1656
g5
ag5
ag5
ag5
ag5
ag5
ag5
ag5
ag5
asS'intr_280'
p1657
(lp1658
g5
ag5
ag5
ag5
ag5
ag5
ag5
ag5
ag5
asS'intr_281'
p1659
(lp1660
g5
ag5
ag5
ag5
ag5
ag5
ag5
ag5
ag5
asS'intr_282'
p1661
(lp1662
g5
ag5
ag5
ag5
ag5
ag5
ag5
ag5
ag5
asS'intr_283'
p1663
(lp1664
g5
ag5
ag5
ag5
ag5
ag5
ag5
ag5
ag5
asS'intr_284'
p1665
(lp1666
g5
ag5
ag5
ag5
ag5
ag5
ag5
ag5
ag5
asS'intr_285'
p1667
(lp1668
g5
ag5
ag5
ag5
ag5
ag5
ag5
ag5
ag5
asS'intr_286'
p1669
(lp1670
g5
ag5
ag5
ag5
ag5
ag5
ag5
ag5
ag5
asS'intr_287'
p1671
(lp1672
g5
ag5
ag5
ag5
ag5
ag5
ag5
ag5
ag5
asS'intr_288'
p1673
(lp1674
g5
ag5
ag5
ag5
ag5
ag5
ag5
ag5
ag5
asS'intr_289'
p1675
(lp1676
g5
ag5
ag5
ag5
ag5
ag5
ag5
ag5
ag5
asS'intr_367'
p1677
(lp1678
g5
ag5
ag5
ag5
ag5
ag5
ag5
ag5
ag5
asS'intr_366'
p1679
(lp1680
g5
ag5
ag5
ag5
ag5
ag5
ag5
ag5
ag5
asS'intr_365'
p1681
(lp1682
g5
ag5
ag5
ag5
ag5
ag5
ag5
ag5
ag5
asS'intr_364'
p1683
(lp1684
g5
ag5
ag5
ag5
ag5
ag5
ag5
ag5
ag5
asS'intr_363'
p1685
(lp1686
g5
ag5
ag5
ag5
ag5
ag5
ag5
ag5
ag5
asS'intr_318'
p1687
(lp1688
g5
ag5
ag5
ag5
ag5
ag5
ag5
ag5
ag5
asS'intr_361'
p1689
(lp1690
g5
ag5
ag5
ag5
ag5
ag5
ag5
ag5
ag5
asS'intr_360'
p1691
(lp1692
g5
ag5
ag5
ag5
ag5
ag5
ag5
ag5
ag5
asS'intr_791'
p1693
(lp1694
g5
ag5
ag5
ag5
ag5
ag5
ag5
ag5
ag5
asS'intr_319'
p1695
(lp1696
g5
ag5
ag5
ag5
ag5
ag5
ag5
ag5
ag5
asS'intr_369'
p1697
(lp1698
g5
ag5
ag5
ag5
ag5
ag5
ag5
ag5
ag5
asS'intr_368'
p1699
(lp1700
g5
ag5
ag5
ag5
ag5
ag5
ag5
ag5
ag5
asS'intr_27'
p1701
(lp1702
g5
ag5
ag5
ag5
ag5
ag5
ag5
ag5
ag5
asS'intr_26'
p1703
(lp1704
g5
ag5
ag5
ag5
ag5
ag5
ag5
ag5
ag5
asS'intr_25'
p1705
(lp1706
S'469178'
p1707
aS'469179'
p1708
aS'469179'
p1709
aS'469180'
p1710
aS'469180'
p1711
aS'469181'
p1712
aS'469181'
p1713
aS'469182'
p1714
aS'469183'
p1715
asS'intr_24'
p1716
(lp1717
g5
ag5
ag5
ag5
ag5
ag5
ag5
ag5
ag5
asS'intr_23'
p1718
(lp1719
g5
ag5
ag5
ag5
ag5
ag5
ag5
ag5
ag5
asS'intr_22'
p1720
(lp1721
g5
ag5
ag5
ag5
ag5
ag5
ag5
ag5
ag5
asS'intr_21'
p1722
(lp1723
g5
ag5
ag5
ag5
ag5
ag5
ag5
ag5
ag5
asS'intr_20'
p1724
(lp1725
S'30'
p1726
aS'30'
p1727
aS'30'
p1728
aS'30'
p1729
aS'30'
p1730
aS'30'
p1731
aS'30'
p1732
aS'30'
p1733
aS'30'
p1734
asS'intr_29'
p1735
(lp1736
g5
ag5
ag5
ag5
ag5
ag5
ag5
ag5
ag5
asS'intr_28'
p1737
(lp1738
g5
ag5
ag5
ag5
ag5
ag5
ag5
ag5
ag5
asS'intr_465'
p1739
(lp1740
g5
ag5
ag5
ag5
ag5
ag5
ag5
ag5
ag5
asS'intr_310'
p1741
(lp1742
g5
ag5
ag5
ag5
ag5
ag5
ag5
ag5
ag5
asS'intr_738'
p1743
(lp1744
g5
ag5
ag5
ag5
ag5
ag5
ag5
ag5
ag5
asS'intr_311'
p1745
(lp1746
g5
ag5
ag5
ag5
ag5
ag5
ag5
ag5
ag5
asS'intr_739'
p1747
(lp1748
g5
ag5
ag5
ag5
ag5
ag5
ag5
ag5
ag5
asS'intr_433'
p1749
(lp1750
g5
ag5
ag5
ag5
ag5
ag5
ag5
ag5
ag5
asS'intr_219'
p1751
(lp1752
g5
ag5
ag5
ag5
ag5
ag5
ag5
ag5
ag5
asS'intr_218'
p1753
(lp1754
g5
ag5
ag5
ag5
ag5
ag5
ag5
ag5
ag5
asS'intr_213'
p1755
(lp1756
g5
ag5
ag5
ag5
ag5
ag5
ag5
ag5
ag5
asS'intr_212'
p1757
(lp1758
g5
ag5
ag5
ag5
ag5
ag5
ag5
ag5
ag5
asS'intr_211'
p1759
(lp1760
g5
ag5
ag5
ag5
ag5
ag5
ag5
ag5
ag5
asS'intr_210'
p1761
(lp1762
g5
ag5
ag5
ag5
ag5
ag5
ag5
ag5
ag5
asS'intr_217'
p1763
(lp1764
g5
ag5
ag5
ag5
ag5
ag5
ag5
ag5
ag5
asS'intr_216'
p1765
(lp1766
g5
ag5
ag5
ag5
ag5
ag5
ag5
ag5
ag5
asS'intr_215'
p1767
(lp1768
g5
ag5
ag5
ag5
ag5
ag5
ag5
ag5
ag5
asS'intr_214'
p1769
(lp1770
g5
ag5
ag5
ag5
ag5
ag5
ag5
ag5
ag5
asS'intr_776'
p1771
(lp1772
g5
ag5
ag5
ag5
ag5
ag5
ag5
ag5
ag5
asS'intr_735'
p1773
(lp1774
g5
ag5
ag5
ag5
ag5
ag5
ag5
ag5
ag5
asS'intr_432'
p1775
(lp1776
g5
ag5
ag5
ag5
ag5
ag5
ag5
ag5
ag5
asS'softirq_11'
p1777
(lp1778
S'1353101'
p1779
aS'1353139'
p1780
aS'1353162'
p1781
aS'1353172'
p1782
aS'1353180'
p1783
aS'1353186'
p1784
aS'1353192'
p1785
aS'1353204'
p1786
aS'1353210'
p1787
asS'intr_622'
p1788
(lp1789
g5
ag5
ag5
ag5
ag5
ag5
ag5
ag5
ag5
asS'intr_623'
p1790
(lp1791
g5
ag5
ag5
ag5
ag5
ag5
ag5
ag5
ag5
asS'intr_620'
p1792
(lp1793
g5
ag5
ag5
ag5
ag5
ag5
ag5
ag5
ag5
asS'intr_621'
p1794
(lp1795
g5
ag5
ag5
ag5
ag5
ag5
ag5
ag5
ag5
asS'intr_626'
p1796
(lp1797
g5
ag5
ag5
ag5
ag5
ag5
ag5
ag5
ag5
asS'intr_627'
p1798
(lp1799
g5
ag5
ag5
ag5
ag5
ag5
ag5
ag5
ag5
asS'intr_624'
p1800
(lp1801
g5
ag5
ag5
ag5
ag5
ag5
ag5
ag5
ag5
asS'intr_625'
p1802
(lp1803
g5
ag5
ag5
ag5
ag5
ag5
ag5
ag5
ag5
asS'intr_741'
p1804
(lp1805
g5
ag5
ag5
ag5
ag5
ag5
ag5
ag5
ag5
asS'intr_730'
p1806
(lp1807
g5
ag5
ag5
ag5
ag5
ag5
ag5
ag5
ag5
asS'intr_628'
p1808
(lp1809
g5
ag5
ag5
ag5
ag5
ag5
ag5
ag5
ag5
asS'intr_629'
p1810
(lp1811
g5
ag5
ag5
ag5
ag5
ag5
ag5
ag5
ag5
asS'intr_745'
p1812
(lp1813
g5
ag5
ag5
ag5
ag5
ag5
ag5
ag5
ag5
asS'intr_744'
p1814
(lp1815
g5
ag5
ag5
ag5
ag5
ag5
ag5
ag5
ag5
asS'intr_747'
p1816
(lp1817
g5
ag5
ag5
ag5
ag5
ag5
ag5
ag5
ag5
asS'intr_731'
p1818
(lp1819
g5
ag5
ag5
ag5
ag5
ag5
ag5
ag5
ag5
asS'intr_733'
p1820
(lp1821
g5
ag5
ag5
ag5
ag5
ag5
ag5
ag5
ag5
asS'intr_362'
p1822
(lp1823
g5
ag5
ag5
ag5
ag5
ag5
ag5
ag5
ag5
asS'intr_529'
p1824
(lp1825
g5
ag5
ag5
ag5
ag5
ag5
ag5
ag5
ag5
asS'intr_486'
p1826
(lp1827
g5
ag5
ag5
ag5
ag5
ag5
ag5
ag5
ag5
asS'intr_487'
p1828
(lp1829
g5
ag5
ag5
ag5
ag5
ag5
ag5
ag5
ag5
asS'intr_484'
p1830
(lp1831
g5
ag5
ag5
ag5
ag5
ag5
ag5
ag5
ag5
asS'intr_485'
p1832
(lp1833
g5
ag5
ag5
ag5
ag5
ag5
ag5
ag5
ag5
asS'intr_482'
p1834
(lp1835
g5
ag5
ag5
ag5
ag5
ag5
ag5
ag5
ag5
asS'intr_483'
p1836
(lp1837
g5
ag5
ag5
ag5
ag5
ag5
ag5
ag5
ag5
asS'intr_480'
p1838
(lp1839
g5
ag5
ag5
ag5
ag5
ag5
ag5
ag5
ag5
asS'intr_481'
p1840
(lp1841
g5
ag5
ag5
ag5
ag5
ag5
ag5
ag5
ag5
asS'intr_525'
p1842
(lp1843
g5
ag5
ag5
ag5
ag5
ag5
ag5
ag5
ag5
asS'intr_524'
p1844
(lp1845
g5
ag5
ag5
ag5
ag5
ag5
ag5
ag5
ag5
asS'intr_527'
p1846
(lp1847
g5
ag5
ag5
ag5
ag5
ag5
ag5
ag5
ag5
asS'intr_526'
p1848
(lp1849
g5
ag5
ag5
ag5
ag5
ag5
ag5
ag5
ag5
asS'intr_521'
p1850
(lp1851
g5
ag5
ag5
ag5
ag5
ag5
ag5
ag5
ag5
asS'intr_520'
p1852
(lp1853
g5
ag5
ag5
ag5
ag5
ag5
ag5
ag5
ag5
asS'intr_488'
p1854
(lp1855
g5
ag5
ag5
ag5
ag5
ag5
ag5
ag5
ag5
asS'intr_489'
p1856
(lp1857
g5
ag5
ag5
ag5
ag5
ag5
ag5
ag5
ag5
asS'intr_136'
p1858
(lp1859
g5
ag5
ag5
ag5
ag5
ag5
ag5
ag5
ag5
asS'intr_137'
p1860
(lp1861
g5
ag5
ag5
ag5
ag5
ag5
ag5
ag5
ag5
asS'intr_134'
p1862
(lp1863
g5
ag5
ag5
ag5
ag5
ag5
ag5
ag5
ag5
asS'intr_135'
p1864
(lp1865
g5
ag5
ag5
ag5
ag5
ag5
ag5
ag5
ag5
asS'intr_132'
p1866
(lp1867
g5
ag5
ag5
ag5
ag5
ag5
ag5
ag5
ag5
asS'intr_133'
p1868
(lp1869
g5
ag5
ag5
ag5
ag5
ag5
ag5
ag5
ag5
asS'intr_130'
p1870
(lp1871
g5
ag5
ag5
ag5
ag5
ag5
ag5
ag5
ag5
asS'intr_131'
p1872
(lp1873
g5
ag5
ag5
ag5
ag5
ag5
ag5
ag5
ag5
asS'intr_701'
p1874
(lp1875
g5
ag5
ag5
ag5
ag5
ag5
ag5
ag5
ag5
asS'intr_98'
p1876
(lp1877
g5
ag5
ag5
ag5
ag5
ag5
ag5
ag5
ag5
asS'intr_99'
p1878
(lp1879
g5
ag5
ag5
ag5
ag5
ag5
ag5
ag5
ag5
asS'intr_549'
p1880
(lp1881
g5
ag5
ag5
ag5
ag5
ag5
ag5
ag5
ag5
asS'ctxt_1'
p1882
(lp1883
S'6261852'
p1884
aS'6261869'
p1885
aS'6261888'
p1886
aS'6261907'
p1887
aS'6261921'
p1888
aS'6261939'
p1889
aS'6261955'
p1890
aS'6261969'
p1891
aS'6261989'
p1892
asS'intr_548'
p1893
(lp1894
g5
ag5
ag5
ag5
ag5
ag5
ag5
ag5
ag5
asS'intr_411'
p1895
(lp1896
g5
ag5
ag5
ag5
ag5
ag5
ag5
ag5
ag5
asS'intr_410'
p1897
(lp1898
g5
ag5
ag5
ag5
ag5
ag5
ag5
ag5
ag5
asS'intr_413'
p1899
(lp1900
g5
ag5
ag5
ag5
ag5
ag5
ag5
ag5
ag5
asS'intr_412'
p1901
(lp1902
g5
ag5
ag5
ag5
ag5
ag5
ag5
ag5
ag5
asS'intr_415'
p1903
(lp1904
g5
ag5
ag5
ag5
ag5
ag5
ag5
ag5
ag5
asS'intr_414'
p1905
(lp1906
g5
ag5
ag5
ag5
ag5
ag5
ag5
ag5
ag5
asS'intr_417'
p1907
(lp1908
g5
ag5
ag5
ag5
ag5
ag5
ag5
ag5
ag5
asS'intr_416'
p1909
(lp1910
g5
ag5
ag5
ag5
ag5
ag5
ag5
ag5
ag5
asS'intr_419'
p1911
(lp1912
g5
ag5
ag5
ag5
ag5
ag5
ag5
ag5
ag5
asS'intr_418'
p1913
(lp1914
g5
ag5
ag5
ag5
ag5
ag5
ag5
ag5
ag5
asS'intr_552'
p1915
(lp1916
g5
ag5
ag5
ag5
ag5
ag5
ag5
ag5
ag5
asS'intr_553'
p1917
(lp1918
g5
ag5
ag5
ag5
ag5
ag5
ag5
ag5
ag5
asS'intr_554'
p1919
(lp1920
g5
ag5
ag5
ag5
ag5
ag5
ag5
ag5
ag5
asS'intr_555'
p1921
(lp1922
g5
ag5
ag5
ag5
ag5
ag5
ag5
ag5
ag5
asS'intr_556'
p1923
(lp1924
g5
ag5
ag5
ag5
ag5
ag5
ag5
ag5
ag5
asS'intr_557'
p1925
(lp1926
g5
ag5
ag5
ag5
ag5
ag5
ag5
ag5
ag5
asS'intr_69'
p1927
(lp1928
g5
ag5
ag5
ag5
ag5
ag5
ag5
ag5
ag5
asS'intr_68'
p1929
(lp1930
g5
ag5
ag5
ag5
ag5
ag5
ag5
ag5
ag5
asS'intr_63'
p1931
(lp1932
g5
ag5
ag5
ag5
ag5
ag5
ag5
ag5
ag5
asS'intr_62'
p1933
(lp1934
g5
ag5
ag5
ag5
ag5
ag5
ag5
ag5
ag5
asS'intr_61'
p1935
(lp1936
g5
ag5
ag5
ag5
ag5
ag5
ag5
ag5
ag5
asS'intr_60'
p1937
(lp1938
g5
ag5
ag5
ag5
ag5
ag5
ag5
ag5
ag5
asS'intr_67'
p1939
(lp1940
g5
ag5
ag5
ag5
ag5
ag5
ag5
ag5
ag5
asS'intr_66'
p1941
(lp1942
g5
ag5
ag5
ag5
ag5
ag5
ag5
ag5
ag5
asS'intr_65'
p1943
(lp1944
g5
ag5
ag5
ag5
ag5
ag5
ag5
ag5
ag5
asS'intr_64'
p1945
(lp1946
g5
ag5
ag5
ag5
ag5
ag5
ag5
ag5
ag5
asS'intr_578'
p1947
(lp1948
g5
ag5
ag5
ag5
ag5
ag5
ag5
ag5
ag5
asS'intr_579'
p1949
(lp1950
g5
ag5
ag5
ag5
ag5
ag5
ag5
ag5
ag5
asS'intr_493'
p1951
(lp1952
g5
ag5
ag5
ag5
ag5
ag5
ag5
ag5
ag5
asS'intr_257'
p1953
(lp1954
g5
ag5
ag5
ag5
ag5
ag5
ag5
ag5
ag5
asS'intr_256'
p1955
(lp1956
g5
ag5
ag5
ag5
ag5
ag5
ag5
ag5
ag5
asS'intr_255'
p1957
(lp1958
g5
ag5
ag5
ag5
ag5
ag5
ag5
ag5
ag5
asS'intr_254'
p1959
(lp1960
g5
ag5
ag5
ag5
ag5
ag5
ag5
ag5
ag5
asS'intr_253'
p1961
(lp1962
g5
ag5
ag5
ag5
ag5
ag5
ag5
ag5
ag5
asS'intr_252'
p1963
(lp1964
g5
ag5
ag5
ag5
ag5
ag5
ag5
ag5
ag5
asS'intr_251'
p1965
(lp1966
g5
ag5
ag5
ag5
ag5
ag5
ag5
ag5
ag5
asS'intr_250'
p1967
(lp1968
g5
ag5
ag5
ag5
ag5
ag5
ag5
ag5
ag5
asS'intr_316'
p1969
(lp1970
g5
ag5
ag5
ag5
ag5
ag5
ag5
ag5
ag5
asS'intr_317'
p1971
(lp1972
g5
ag5
ag5
ag5
ag5
ag5
ag5
ag5
ag5
asS'intr_314'
p1973
(lp1974
g5
ag5
ag5
ag5
ag5
ag5
ag5
ag5
ag5
asS'intr_315'
p1975
(lp1976
g5
ag5
ag5
ag5
ag5
ag5
ag5
ag5
ag5
asS'intr_312'
p1977
(lp1978
g5
ag5
ag5
ag5
ag5
ag5
ag5
ag5
ag5
asS'intr_313'
p1979
(lp1980
g5
ag5
ag5
ag5
ag5
ag5
ag5
ag5
ag5
asS'intr_259'
p1981
(lp1982
g5
ag5
ag5
ag5
ag5
ag5
ag5
ag5
ag5
asS'intr_258'
p1983
(lp1984
g5
ag5
ag5
ag5
ag5
ag5
ag5
ag5
ag5
asS'intr_570'
p1985
(lp1986
g5
ag5
ag5
ag5
ag5
ag5
ag5
ag5
ag5
asS'intr_571'
p1987
(lp1988
g5
ag5
ag5
ag5
ag5
ag5
ag5
ag5
ag5
asS'intr_705'
p1989
(lp1990
g5
ag5
ag5
ag5
ag5
ag5
ag5
ag5
ag5
asS'intr_704'
p1991
(lp1992
g5
ag5
ag5
ag5
ag5
ag5
ag5
ag5
ag5
asS'intr_707'
p1993
(lp1994
g5
ag5
ag5
ag5
ag5
ag5
ag5
ag5
ag5
asS'intr_706'
p1995
(lp1996
g5
ag5
ag5
ag5
ag5
ag5
ag5
ag5
ag5
asS'intr_608'
p1997
(lp1998
g5
ag5
ag5
ag5
ag5
ag5
ag5
ag5
ag5
asS'intr_700'
p1999
(lp2000
g5
ag5
ag5
ag5
ag5
ag5
ag5
ag5
ag5
asS'intr_703'
p2001
(lp2002
g5
ag5
ag5
ag5
ag5
ag5
ag5
ag5
ag5
asS'intr_702'
p2003
(lp2004
g5
ag5
ag5
ag5
ag5
ag5
ag5
ag5
ag5
asS'intr_709'
p2005
(lp2006
g5
ag5
ag5
ag5
ag5
ag5
ag5
ag5
ag5
asS'intr_708'
p2007
(lp2008
g5
ag5
ag5
ag5
ag5
ag5
ag5
ag5
ag5
asS'intr_507'
p2009
(lp2010
g5
ag5
ag5
ag5
ag5
ag5
ag5
ag5
ag5
asS'intr_609'
p2011
(lp2012
g5
ag5
ag5
ag5
ag5
ag5
ag5
ag5
ag5
asS'intr_506'
p2013
(lp2014
g5
ag5
ag5
ag5
ag5
ag5
ag5
ag5
ag5
asS'intr_505'
p2015
(lp2016
g5
ag5
ag5
ag5
ag5
ag5
ag5
ag5
ag5
asS'intr_504'
p2017
(lp2018
g5
ag5
ag5
ag5
ag5
ag5
ag5
ag5
ag5
asS'intr_503'
p2019
(lp2020
g5
ag5
ag5
ag5
ag5
ag5
ag5
ag5
ag5
asS'intr_502'
p2021
(lp2022
g5
ag5
ag5
ag5
ag5
ag5
ag5
ag5
ag5
asS'intr_172'
p2023
(lp2024
g5
ag5
ag5
ag5
ag5
ag5
ag5
ag5
ag5
asS'intr_173'
p2025
(lp2026
g5
ag5
ag5
ag5
ag5
ag5
ag5
ag5
ag5
asS'intr_170'
p2027
(lp2028
g5
ag5
ag5
ag5
ag5
ag5
ag5
ag5
ag5
asS'intr_171'
p2029
(lp2030
g5
ag5
ag5
ag5
ag5
ag5
ag5
ag5
ag5
asS'intr_176'
p2031
(lp2032
g5
ag5
ag5
ag5
ag5
ag5
ag5
ag5
ag5
asS'intr_177'
p2033
(lp2034
g5
ag5
ag5
ag5
ag5
ag5
ag5
ag5
ag5
asS'intr_174'
p2035
(lp2036
g5
ag5
ag5
ag5
ag5
ag5
ag5
ag5
ag5
asS'intr_175'
p2037
(lp2038
g5
ag5
ag5
ag5
ag5
ag5
ag5
ag5
ag5
asS'intr_671'
p2039
(lp2040
g5
ag5
ag5
ag5
ag5
ag5
ag5
ag5
ag5
asS'intr_670'
p2041
(lp2042
g5
ag5
ag5
ag5
ag5
ag5
ag5
ag5
ag5
asS'intr_178'
p2043
(lp2044
g5
ag5
ag5
ag5
ag5
ag5
ag5
ag5
ag5
asS'intr_179'
p2045
(lp2046
g5
ag5
ag5
ag5
ag5
ag5
ag5
ag5
ag5
asS'intr_675'
p2047
(lp2048
g5
ag5
ag5
ag5
ag5
ag5
ag5
ag5
ag5
asS'intr_674'
p2049
(lp2050
g5
ag5
ag5
ag5
ag5
ag5
ag5
ag5
ag5
asS'intr_677'
p2051
(lp2052
g5
ag5
ag5
ag5
ag5
ag5
ag5
ag5
ag5
asS'intr_676'
p2053
(lp2054
g5
ag5
ag5
ag5
ag5
ag5
ag5
ag5
ag5
asS'intr_770'
p2055
(lp2056
g5
ag5
ag5
ag5
ag5
ag5
ag5
ag5
ag5
asS'intr_771'
p2057
(lp2058
g5
ag5
ag5
ag5
ag5
ag5
ag5
ag5
ag5
asS'intr_772'
p2059
(lp2060
g5
ag5
ag5
ag5
ag5
ag5
ag5
ag5
ag5
asS'intr_773'
p2061
(lp2062
g5
ag5
ag5
ag5
ag5
ag5
ag5
ag5
ag5
asS'intr_774'
p2063
(lp2064
g5
ag5
ag5
ag5
ag5
ag5
ag5
ag5
ag5
asS'intr_775'
p2065
(lp2066
g5
ag5
ag5
ag5
ag5
ag5
ag5
ag5
ag5
asS'intr_523'
p2067
(lp2068
g5
ag5
ag5
ag5
ag5
ag5
ag5
ag5
ag5
asS'intr_777'
p2069
(lp2070
g5
ag5
ag5
ag5
ag5
ag5
ag5
ag5
ag5
asS'intr_778'
p2071
(lp2072
g5
ag5
ag5
ag5
ag5
ag5
ag5
ag5
ag5
asS'intr_779'
p2073
(lp2074
g5
ag5
ag5
ag5
ag5
ag5
ag5
ag5
ag5
asS'intr_428'
p2075
(lp2076
g5
ag5
ag5
ag5
ag5
ag5
ag5
ag5
ag5
asS'processes_1'
p2077
(lp2078
S'52918'
p2079
aS'52918'
p2080
aS'52918'
p2081
aS'52918'
p2082
aS'52918'
p2083
aS'52918'
p2084
aS'52918'
p2085
aS'52918'
p2086
aS'52918'
p2087
asS'intr_766'
p2088
(lp2089
g5
ag5
ag5
ag5
ag5
ag5
ag5
ag5
ag5
asS'intr_522'
p2090
(lp2091
g5
ag5
ag5
ag5
ag5
ag5
ag5
ag5
ag5
asS'intr_429'
p2092
(lp2093
g5
ag5
ag5
ag5
ag5
ag5
ag5
ag5
ag5
asS'intr_459'
p2094
(lp2095
g5
ag5
ag5
ag5
ag5
ag5
ag5
ag5
ag5
asS'intr_458'
p2096
(lp2097
g5
ag5
ag5
ag5
ag5
ag5
ag5
ag5
ag5
asS'intr_696'
p2098
(lp2099
g5
ag5
ag5
ag5
ag5
ag5
ag5
ag5
ag5
asS'intr_455'
p2100
(lp2101
g5
ag5
ag5
ag5
ag5
ag5
ag5
ag5
ag5
asS'intr_454'
p2102
(lp2103
g5
ag5
ag5
ag5
ag5
ag5
ag5
ag5
ag5
asS'intr_457'
p2104
(lp2105
g5
ag5
ag5
ag5
ag5
ag5
ag5
ag5
ag5
asS'intr_456'
p2106
(lp2107
g5
ag5
ag5
ag5
ag5
ag5
ag5
ag5
ag5
asS'intr_451'
p2108
(lp2109
g5
ag5
ag5
ag5
ag5
ag5
ag5
ag5
ag5
asS'intr_450'
p2110
(lp2111
g5
ag5
ag5
ag5
ag5
ag5
ag5
ag5
ag5
asS'intr_94'
p2112
(lp2113
g5
ag5
ag5
ag5
ag5
ag5
ag5
ag5
ag5
asS'intr_452'
p2114
(lp2115
g5
ag5
ag5
ag5
ag5
ag5
ag5
ag5
ag5
asS'intr_514'
p2116
(lp2117
g5
ag5
ag5
ag5
ag5
ag5
ag5
ag5
ag5
asS'intr_515'
p2118
(lp2119
g5
ag5
ag5
ag5
ag5
ag5
ag5
ag5
ag5
asS'intr_516'
p2120
(lp2121
g5
ag5
ag5
ag5
ag5
ag5
ag5
ag5
ag5
asS'intr_517'
p2122
(lp2123
g5
ag5
ag5
ag5
ag5
ag5
ag5
ag5
ag5
asS'intr_510'
p2124
(lp2125
g5
ag5
ag5
ag5
ag5
ag5
ag5
ag5
ag5
asS'intr_511'
p2126
(lp2127
g5
ag5
ag5
ag5
ag5
ag5
ag5
ag5
ag5
asS'intr_512'
p2128
(lp2129
g5
ag5
ag5
ag5
ag5
ag5
ag5
ag5
ag5
asS'intr_513'
p2130
(lp2131
g5
ag5
ag5
ag5
ag5
ag5
ag5
ag5
ag5
asS'intr_518'
p2132
(lp2133
g5
ag5
ag5
ag5
ag5
ag5
ag5
ag5
ag5
asS'intr_519'
p2134
(lp2135
g5
ag5
ag5
ag5
ag5
ag5
ag5
ag5
ag5
asS'intr_684'
p2136
(lp2137
g5
ag5
ag5
ag5
ag5
ag5
ag5
ag5
ag5
asS'intr_685'
p2138
(lp2139
g5
ag5
ag5
ag5
ag5
ag5
ag5
ag5
ag5
asS'intr_686'
p2140
(lp2141
g5
ag5
ag5
ag5
ag5
ag5
ag5
ag5
ag5
asS'intr_687'
p2142
(lp2143
g5
ag5
ag5
ag5
ag5
ag5
ag5
ag5
ag5
asS'intr_680'
p2144
(lp2145
g5
ag5
ag5
ag5
ag5
ag5
ag5
ag5
ag5
asS'intr_681'
p2146
(lp2147
g5
ag5
ag5
ag5
ag5
ag5
ag5
ag5
ag5
asS'intr_682'
p2148
(lp2149
g5
ag5
ag5
ag5
ag5
ag5
ag5
ag5
ag5
asS'intr_683'
p2150
(lp2151
g5
ag5
ag5
ag5
ag5
ag5
ag5
ag5
ag5
asS'intr_690'
p2152
(lp2153
g5
ag5
ag5
ag5
ag5
ag5
ag5
ag5
ag5
asS'intr_546'
p2154
(lp2155
g5
ag5
ag5
ag5
ag5
ag5
ag5
ag5
ag5
asS'intr_689'
p2156
(lp2157
g5
ag5
ag5
ag5
ag5
ag5
ag5
ag5
ag5
asS'intr_643'
p2158
(lp2159
g5
ag5
ag5
ag5
ag5
ag5
ag5
ag5
ag5
asS'intr_644'
p2160
(lp2161
g5
ag5
ag5
ag5
ag5
ag5
ag5
ag5
ag5
asS'softirq_7'
p2162
(lp2163
g5
ag5
ag5
ag5
ag5
ag5
ag5
ag5
ag5
asS'intr_679'
p2164
(lp2165
g5
ag5
ag5
ag5
ag5
ag5
ag5
ag5
ag5
asS'softirq_4'
p2166
(lp2167
S'30817'
p2168
aS'30817'
p2169
aS'30817'
p2170
aS'30817'
p2171
aS'30818'
p2172
aS'30818'
p2173
aS'30818'
p2174
aS'30818'
p2175
aS'30818'
p2176
asS'intr_678'
p2177
(lp2178
g5
ag5
ag5
ag5
ag5
ag5
ag5
ag5
ag5
asS'softirq_5'
p2179
(lp2180
S'549302'
p2181
aS'549303'
p2182
aS'549303'
p2183
aS'549304'
p2184
aS'549304'
p2185
aS'549305'
p2186
aS'549305'
p2187
aS'549306'
p2188
aS'549307'
p2189
asS'intr_293'
p2190
(lp2191
g5
ag5
ag5
ag5
ag5
ag5
ag5
ag5
ag5
asS'intr_292'
p2192
(lp2193
g5
ag5
ag5
ag5
ag5
ag5
ag5
ag5
ag5
asS'intr_291'
p2194
(lp2195
g5
ag5
ag5
ag5
ag5
ag5
ag5
ag5
ag5
asS'intr_290'
p2196
(lp2197
g5
ag5
ag5
ag5
ag5
ag5
ag5
ag5
ag5
asS'intr_297'
p2198
(lp2199
g5
ag5
ag5
ag5
ag5
ag5
ag5
ag5
ag5
asS'intr_296'
p2200
(lp2201
g5
ag5
ag5
ag5
ag5
ag5
ag5
ag5
ag5
asS'intr_295'
p2202
(lp2203
g5
ag5
ag5
ag5
ag5
ag5
ag5
ag5
ag5
asS'intr_294'
p2204
(lp2205
g5
ag5
ag5
ag5
ag5
ag5
ag5
ag5
ag5
asS'intr_352'
p2206
(lp2207
g5
ag5
ag5
ag5
ag5
ag5
ag5
ag5
ag5
asS'intr_353'
p2208
(lp2209
g5
ag5
ag5
ag5
ag5
ag5
ag5
ag5
ag5
asS'intr_299'
p2210
(lp2211
g5
ag5
ag5
ag5
ag5
ag5
ag5
ag5
ag5
asS'intr_298'
p2212
(lp2213
g5
ag5
ag5
ag5
ag5
ag5
ag5
ag5
ag5
asS'intr_356'
p2214
(lp2215
g5
ag5
ag5
ag5
ag5
ag5
ag5
ag5
ag5
asS'intr_357'
p2216
(lp2217
g5
ag5
ag5
ag5
ag5
ag5
ag5
ag5
ag5
asS'intr_354'
p2218
(lp2219
g5
ag5
ag5
ag5
ag5
ag5
ag5
ag5
ag5
asS'intr_355'
p2220
(lp2221
g5
ag5
ag5
ag5
ag5
ag5
ag5
ag5
ag5
asS'intr_198'
p2222
(lp2223
g5
ag5
ag5
ag5
ag5
ag5
ag5
ag5
ag5
asS'intr_199'
p2224
(lp2225
g5
ag5
ag5
ag5
ag5
ag5
ag5
ag5
ag5
asS'softirq_9'
p2226
(lp2227
S'1107286'
p2228
aS'1107304'
p2229
aS'1107318'
p2230
aS'1107333'
p2231
aS'1107346'
p2232
aS'1107360'
p2233
aS'1107374'
p2234
aS'1107389'
p2235
aS'1107404'
p2236
asS'softirq_2'
p2237
(lp2238
g5
ag5
ag5
ag5
ag5
ag5
ag5
ag5
ag5
asS'intr_190'
p2239
(lp2240
g5
ag5
ag5
ag5
ag5
ag5
ag5
ag5
ag5
asS'intr_191'
p2241
(lp2242
g5
ag5
ag5
ag5
ag5
ag5
ag5
ag5
ag5
asS'intr_192'
p2243
(lp2244
g5
ag5
ag5
ag5
ag5
ag5
ag5
ag5
ag5
asS'intr_193'
p2245
(lp2246
g5
ag5
ag5
ag5
ag5
ag5
ag5
ag5
ag5
asS'intr_194'
p2247
(lp2248
g5
ag5
ag5
ag5
ag5
ag5
ag5
ag5
ag5
asS'intr_195'
p2249
(lp2250
g5
ag5
ag5
ag5
ag5
ag5
ag5
ag5
ag5
asS'intr_196'
p2251
(lp2252
g5
ag5
ag5
ag5
ag5
ag5
ag5
ag5
ag5
asS'intr_197'
p2253
(lp2254
g5
ag5
ag5
ag5
ag5
ag5
ag5
ag5
ag5
asS'intr_34'
p2255
(lp2256
g5
ag5
ag5
ag5
ag5
ag5
ag5
ag5
ag5
asS'intr_35'
p2257
(lp2258
g5
ag5
ag5
ag5
ag5
ag5
ag5
ag5
ag5
asS'intr_36'
p2259
(lp2260
g5
ag5
ag5
ag5
ag5
ag5
ag5
ag5
ag5
asS'intr_37'
p2261
(lp2262
g5
ag5
ag5
ag5
ag5
ag5
ag5
ag5
ag5
asS'intr_30'
p2263
(lp2264
g5
ag5
ag5
ag5
ag5
ag5
ag5
ag5
ag5
asS'intr_31'
p2265
(lp2266
g5
ag5
ag5
ag5
ag5
ag5
ag5
ag5
ag5
asS'intr_32'
p2267
(lp2268
g5
ag5
ag5
ag5
ag5
ag5
ag5
ag5
ag5
asS'intr_33'
p2269
(lp2270
g5
ag5
ag5
ag5
ag5
ag5
ag5
ag5
ag5
asS'intr_38'
p2271
(lp2272
g5
ag5
ag5
ag5
ag5
ag5
ag5
ag5
ag5
asS'intr_39'
p2273
(lp2274
g5
ag5
ag5
ag5
ag5
ag5
ag5
ag5
ag5
asS'softirq_3'
p2275
(lp2276
S'2254940'
p2277
aS'2255183'
p2278
aS'2255432'
p2279
aS'2255674'
p2280
aS'2255913'
p2281
aS'2256155'
p2282
aS'2256397'
p2283
aS'2256645'
p2284
aS'2256898'
p2285
asS'intr_672'
p2286
(lp2287
g5
ag5
ag5
ag5
ag5
ag5
ag5
ag5
ag5
asS'intr_329'
p2288
(lp2289
g5
ag5
ag5
ag5
ag5
ag5
ag5
ag5
ag5
asS'intr_328'
p2290
(lp2291
g5
ag5
ag5
ag5
ag5
ag5
ag5
ag5
ag5
asS'intr_434'
p2292
(lp2293
g5
ag5
ag5
ag5
ag5
ag5
ag5
ag5
ag5
asS'intr_228'
p2294
(lp2295
g5
ag5
ag5
ag5
ag5
ag5
ag5
ag5
ag5
asS'intr_229'
p2296
(lp2297
g5
ag5
ag5
ag5
ag5
ag5
ag5
ag5
ag5
asS'intr_226'
p2298
(lp2299
g5
ag5
ag5
ag5
ag5
ag5
ag5
ag5
ag5
asS'intr_227'
p2300
(lp2301
g5
ag5
ag5
ag5
ag5
ag5
ag5
ag5
ag5
asS'intr_224'
p2302
(lp2303
g5
ag5
ag5
ag5
ag5
ag5
ag5
ag5
ag5
asS'intr_225'
p2304
(lp2305
g5
ag5
ag5
ag5
ag5
ag5
ag5
ag5
ag5
asS'intr_222'
p2306
(lp2307
g5
ag5
ag5
ag5
ag5
ag5
ag5
ag5
ag5
asS'intr_223'
p2308
(lp2309
g5
ag5
ag5
ag5
ag5
ag5
ag5
ag5
ag5
asS'intr_220'
p2310
(lp2311
g5
ag5
ag5
ag5
ag5
ag5
ag5
ag5
ag5
asS'intr_221'
p2312
(lp2313
g5
ag5
ag5
ag5
ag5
ag5
ag5
ag5
ag5
asS'softirq_1'
p2314
(lp2315
S'6090717'
p2316
aS'6091017'
p2317
aS'6091303'
p2318
aS'6091571'
p2319
aS'6091832'
p2320
aS'6092095'
p2321
aS'6092357'
p2322
aS'6092633'
p2323
aS'6092908'
p2324
asS'intr_635'
p2325
(lp2326
g5
ag5
ag5
ag5
ag5
ag5
ag5
ag5
ag5
asS'intr_634'
p2327
(lp2328
g5
ag5
ag5
ag5
ag5
ag5
ag5
ag5
ag5
asS'intr_637'
p2329
(lp2330
g5
ag5
ag5
ag5
ag5
ag5
ag5
ag5
ag5
asS'intr_636'
p2331
(lp2332
g5
ag5
ag5
ag5
ag5
ag5
ag5
ag5
ag5
asS'intr_631'
p2333
(lp2334
g5
ag5
ag5
ag5
ag5
ag5
ag5
ag5
ag5
asS'intr_630'
p2335
(lp2336
g5
ag5
ag5
ag5
ag5
ag5
ag5
ag5
ag5
asS'intr_633'
p2337
(lp2338
g5
ag5
ag5
ag5
ag5
ag5
ag5
ag5
ag5
asS'intr_632'
p2339
(lp2340
g5
ag5
ag5
ag5
ag5
ag5
ag5
ag5
ag5
asS'intr_734'
p2341
(lp2342
g5
ag5
ag5
ag5
ag5
ag5
ag5
ag5
ag5
asS'intr_327'
p2343
(lp2344
g5
ag5
ag5
ag5
ag5
ag5
ag5
ag5
ag5
asS'intr_736'
p2345
(lp2346
g5
ag5
ag5
ag5
ag5
ag5
ag5
ag5
ag5
asS'intr_737'
p2347
(lp2348
g5
ag5
ag5
ag5
ag5
ag5
ag5
ag5
ag5
asS'intr_639'
p2349
(lp2350
g5
ag5
ag5
ag5
ag5
ag5
ag5
ag5
ag5
asS'intr_638'
p2351
(lp2352
g5
ag5
ag5
ag5
ag5
ag5
ag5
ag5
ag5
asS'intr_732'
p2353
(lp2354
g5
ag5
ag5
ag5
ag5
ag5
ag5
ag5
ag5
asS'intr_326'
p2355
(lp2356
g5
ag5
ag5
ag5
ag5
ag5
ag5
ag5
ag5
asS'softirq_6'
p2357
(lp2358
S'793798'
p2359
aS'793798'
p2360
aS'793798'
p2361
aS'793798'
p2362
aS'793798'
p2363
aS'793798'
p2364
aS'793798'
p2365
aS'793798'
p2366
aS'793798'
p2367
asS'intr_740'
p2368
(lp2369
g5
ag5
ag5
ag5
ag5
ag5
ag5
ag5
ag5
asS'intr_743'
p2370
(lp2371
g5
ag5
ag5
ag5
ag5
ag5
ag5
ag5
ag5
asS'intr_129'
p2372
(lp2373
g5
ag5
ag5
ag5
ag5
ag5
ag5
ag5
ag5
asS'intr_128'
p2374
(lp2375
g5
ag5
ag5
ag5
ag5
ag5
ag5
ag5
ag5
asS'intr_742'
p2376
(lp2377
g5
ag5
ag5
ag5
ag5
ag5
ag5
ag5
ag5
asS'intr_121'
p2378
(lp2379
g5
ag5
ag5
ag5
ag5
ag5
ag5
ag5
ag5
asS'intr_120'
p2380
(lp2381
g5
ag5
ag5
ag5
ag5
ag5
ag5
ag5
ag5
asS'intr_123'
p2382
(lp2383
g5
ag5
ag5
ag5
ag5
ag5
ag5
ag5
ag5
asS'intr_122'
p2384
(lp2385
g5
ag5
ag5
ag5
ag5
ag5
ag5
ag5
ag5
asS'intr_125'
p2386
(lp2387
g5
ag5
ag5
ag5
ag5
ag5
ag5
ag5
ag5
asS'intr_124'
p2388
(lp2389
g5
ag5
ag5
ag5
ag5
ag5
ag5
ag5
ag5
asS'intr_127'
p2390
(lp2391
g5
ag5
ag5
ag5
ag5
ag5
ag5
ag5
ag5
asS'intr_126'
p2392
(lp2393
g5
ag5
ag5
ag5
ag5
ag5
ag5
ag5
ag5
asS'intr_640'
p2394
(lp2395
g5
ag5
ag5
ag5
ag5
ag5
ag5
ag5
ag5
asS'intr_641'
p2396
(lp2397
g5
ag5
ag5
ag5
ag5
ag5
ag5
ag5
ag5
asS'intr_642'
p2398
(lp2399
g5
ag5
ag5
ag5
ag5
ag5
ag5
ag5
ag5
asS'intr_377'
p2400
(lp2401
g5
ag5
ag5
ag5
ag5
ag5
ag5
ag5
ag5
asS'intr_558'
p2402
(lp2403
g5
ag5
ag5
ag5
ag5
ag5
ag5
ag5
ag5
asS'intr_645'
p2404
(lp2405
g5
ag5
ag5
ag5
ag5
ag5
ag5
ag5
ag5
asS'intr_646'
p2406
(lp2407
g5
ag5
ag5
ag5
ag5
ag5
ag5
ag5
ag5
asS'intr_647'
p2408
(lp2409
g5
ag5
ag5
ag5
ag5
ag5
ag5
ag5
ag5
asS'intr_648'
p2410
(lp2411
g5
ag5
ag5
ag5
ag5
ag5
ag5
ag5
ag5
asS'intr_649'
p2412
(lp2413
g5
ag5
ag5
ag5
ag5
ag5
ag5
ag5
ag5
asS'softirq_8'
p2414
(lp2415
S'16'
p2416
aS'16'
p2417
aS'16'
p2418
aS'16'
p2419
aS'16'
p2420
aS'16'
p2421
aS'16'
p2422
aS'16'
p2423
aS'16'
p2424
asS'intr_746'
p2425
(lp2426
g5
ag5
ag5
ag5
ag5
ag5
ag5
ag5
ag5
asS'cpu0_10'
p2427
(lp2428
g5
ag5
ag5
ag5
ag5
ag5
ag5
ag5
ag5
asS'intr_423'
p2429
(lp2430
g5
ag5
ag5
ag5
ag5
ag5
ag5
ag5
ag5
ass.