(dp0
S'mem'
p1
(dp2
S'WritebackTmp'
p3
(lp4
S'0'
p5
ag5
ag5
ag5
ag5
ag5
ag5
ag5
ag5
ag5
ag5
ag5
ag5
asS'SwapTotal'
p6
(lp7
S'1046524'
p8
aS'1046524'
p9
aS'1046524'
p10
aS'1046524'
p11
aS'1046524'
p12
aS'1046524'
p13
aS'1046524'
p14
aS'1046524'
p15
aS'1046524'
p16
aS'1046524'
p17
aS'1046524'
p18
aS'1046524'
p19
aS'1046524'
p20
asS'Active(anon)'
p21
(lp22
S'5552'
p23
aS'246784'
p24
aS'487652'
p25
aS'768508'
p26
aS'964452'
p27
aS'1209256'
p28
aS'1512008'
p29
aS'1777508'
p30
aS'1899164'
p31
aS'2339288'
p32
aS'2382668'
p33
aS'2649688'
p34
aS'2649688'
p35
asS'SwapFree'
p36
(lp37
S'979188'
p38
aS'979188'
p39
aS'979188'
p40
aS'979188'
p41
aS'979188'
p42
aS'979188'
p43
aS'979188'
p44
aS'979188'
p45
aS'979188'
p46
aS'979188'
p47
aS'979188'
p48
aS'979188'
p49
aS'979188'
p50
asS'DirectMap4k'
p51
(lp52
S'38848'
p53
aS'38848'
p54
aS'38848'
p55
aS'38848'
p56
aS'38848'
p57
aS'38848'
p58
aS'38848'
p59
aS'38848'
p60
aS'38848'
p61
aS'38848'
p62
aS'38848'
p63
aS'38848'
p64
aS'38848'
p65
asS'KernelStack'
p66
(lp67
S'1256'
p68
aS'1264'
p69
aS'1272'
p70
aS'1272'
p71
aS'1272'
p72
aS'1272'
p73
aS'1272'
p74
aS'1272'
p75
aS'1272'
p76
aS'1272'
p77
aS'1272'
p78
aS'1272'
p79
aS'1272'
p80
asS'MemFree'
p81
(lp82
S'3728436'
p83
aS'3486140'
p84
aS'3244836'
p85
aS'2963356'
p86
aS'2767064'
p87
aS'2522148'
p88
aS'2218844'
p89
aS'1952864'
p90
aS'1831096'
p91
aS'1390028'
p92
aS'1346628'
p93
aS'1079160'
p94
aS'1079160'
p95
asS'HugePages_Rsvd'
p96
(lp97
g5
ag5
ag5
ag5
ag5
ag5
ag5
ag5
ag5
ag5
ag5
ag5
ag5
asS'Committed_AS'
p98
(lp99
S'195216'
p100
aS'433760'
p101
aS'674760'
p102
aS'956000'
p103
aS'1152156'
p104
aS'1397616'
p105
aS'1700960'
p106
aS'1965712'
p107
aS'2088808'
p108
aS'2526564'
p109
aS'2573408'
p110
aS'2836408'
p111
aS'2836408'
p112
asS'Active(file)'
p113
(lp114
S'148556'
p115
aS'149240'
p116
aS'149240'
p117
aS'149240'
p118
aS'149240'
p119
aS'149240'
p120
aS'149240'
p121
aS'149240'
p122
aS'149240'
p123
aS'149240'
p124
aS'149240'
p125
aS'149240'
p126
aS'149240'
p127
asS'NFS_Unstable'
p128
(lp129
g5
ag5
ag5
ag5
ag5
ag5
ag5
ag5
ag5
ag5
ag5
ag5
ag5
asS'VmallocChunk'
p130
(lp131
S'34359713404'
p132
aS'34359713404'
p133
aS'34359713404'
p134
aS'34359713404'
p135
aS'34359713404'
p136
aS'34359713404'
p137
aS'34359713404'
p138
aS'34359713404'
p139
aS'34359713404'
p140
aS'34359713404'
p141
aS'34359713404'
p142
aS'34359713404'
p143
aS'34359713404'
p144
asS'Writeback'
p145
(lp146
g5
ag5
ag5
ag5
ag5
ag5
ag5
ag5
ag5
ag5
ag5
ag5
ag5
asS'Inactive(file)'
p147
(lp148
S'31244'
p149
aS'31320'
p150
aS'31324'
p151
aS'31324'
p152
aS'31324'
p153
aS'31324'
p154
aS'31324'
p155
aS'31332'
p156
aS'31332'
p157
aS'31332'
p158
aS'31332'
p159
aS'31332'
p160
aS'31332'
p161
asS'MemTotal'
p162
(lp163
S'4055496'
p164
aS'4055496'
p165
aS'4055496'
p166
aS'4055496'
p167
aS'4055496'
p168
aS'4055496'
p169
aS'4055496'
p170
aS'4055496'
p171
aS'4055496'
p172
aS'4055496'
p173
aS'4055496'
p174
aS'4055496'
p175
aS'4055496'
p176
asS'VmallocUsed'
p177
(lp178
S'21480'
p179
aS'21480'
p180
aS'21480'
p181
aS'21480'
p182
aS'21480'
p183
aS'21480'
p184
aS'21480'
p185
aS'21480'
p186
aS'21480'
p187
aS'21480'
p188
aS'21480'
p189
aS'21480'
p190
aS'21480'
p191
asS'HugePages_Free'
p192
(lp193
g5
ag5
ag5
ag5
ag5
ag5
ag5
ag5
ag5
ag5
ag5
ag5
ag5
asS'AnonHugePages'
p194
(lp195
g5
ag5
ag5
ag5
ag5
ag5
ag5
ag5
ag5
ag5
ag5
ag5
ag5
asS'AnonPages'
p196
(lp197
S'13536'
p198
aS'254716'
p199
aS'495536'
p200
aS'776424'
p201
aS'972296'
p202
aS'1217148'
p203
aS'1519852'
p204
aS'1785456'
p205
aS'1906984'
p206
aS'2347236'
p207
aS'2390544'
p208
aS'2657556'
p209
aS'2657556'
p210
asS'Active'
p211
(lp212
S'154108'
p213
aS'396024'
p214
aS'636892'
p215
aS'917748'
p216
aS'1113692'
p217
aS'1358496'
p218
aS'1661248'
p219
aS'1926748'
p220
aS'2048404'
p221
aS'2488528'
p222
aS'2531908'
p223
aS'2798928'
p224
aS'2798928'
p225
asS'Inactive(anon)'
p226
(lp227
S'58652'
p228
aS'58652'
p229
aS'58652'
p230
aS'58652'
p231
aS'58652'
p232
aS'58652'
p233
aS'58652'
p234
aS'58652'
p235
aS'58652'
p236
aS'58652'
p237
aS'58652'
p238
aS'58652'
p239
aS'58652'
p240
asS'CommitLimit'
p241
(lp242
S'3074272'
p243
aS'3074272'
p244
aS'3074272'
p245
aS'3074272'
p246
aS'3074272'
p247
aS'3074272'
p248
aS'3074272'
p249
aS'3074272'
p250
aS'3074272'
p251
aS'3074272'
p252
aS'3074272'
p253
aS'3074272'
p254
aS'3074272'
p255
asS'Hugepagesize'
p256
(lp257
S'2048'
p258
aS'2048'
p259
aS'2048'
p260
aS'2048'
p261
aS'2048'
p262
aS'2048'
p263
aS'2048'
p264
aS'2048'
p265
aS'2048'
p266
aS'2048'
p267
aS'2048'
p268
aS'2048'
p269
aS'2048'
p270
asS'Cached'
p271
(lp272
S'177204'
p273
aS'177916'
p274
aS'177920'
p275
aS'177920'
p276
aS'177920'
p277
aS'177916'
p278
aS'177916'
p279
aS'177920'
p280
aS'177920'
p281
aS'177920'
p282
aS'177920'
p283
aS'177920'
p284
aS'177920'
p285
asS'SwapCached'
p286
(lp287
S'53688'
p288
aS'53688'
p289
aS'53688'
p290
aS'53688'
p291
aS'53688'
p292
aS'53688'
p293
aS'53688'
p294
aS'53688'
p295
aS'53688'
p296
aS'53688'
p297
aS'53688'
p298
aS'53688'
p299
aS'53688'
p300
asS'VmallocTotal'
p301
(lp302
S'34359738367'
p303
aS'34359738367'
p304
aS'34359738367'
p305
aS'34359738367'
p306
aS'34359738367'
p307
aS'34359738367'
p308
aS'34359738367'
p309
aS'34359738367'
p310
aS'34359738367'
p311
aS'34359738367'
p312
aS'34359738367'
p313
aS'34359738367'
p314
aS'34359738367'
p315
asS'Shmem'
p316
(lp317
S'24'
p318
aS'24'
p319
aS'24'
p320
aS'24'
p321
aS'24'
p322
aS'24'
p323
aS'24'
p324
aS'24'
p325
aS'24'
p326
aS'24'
p327
aS'24'
p328
aS'24'
p329
aS'24'
p330
asS'Mapped'
p331
(lp332
S'5216'
p333
aS'6468'
p334
aS'6464'
p335
aS'6464'
p336
aS'6464'
p337
aS'6464'
p338
aS'6464'
p339
aS'6464'
p340
aS'6464'
p341
aS'6464'
p342
aS'6464'
p343
aS'6464'
p344
aS'6464'
p345
asS'SUnreclaim'
p346
(lp347
S'11360'
p348
aS'11360'
p349
aS'11360'
p350
aS'11360'
p351
aS'11360'
p352
aS'11360'
p353
aS'11360'
p354
aS'11360'
p355
aS'11360'
p356
aS'11360'
p357
aS'11360'
p358
aS'11360'
p359
aS'11360'
p360
asS'Unevictable'
p361
(lp362
g5
ag5
ag5
ag5
ag5
ag5
ag5
ag5
ag5
ag5
ag5
ag5
ag5
asS'SReclaimable'
p363
(lp364
S'9752'
p365
aS'9752'
p366
aS'9736'
p367
aS'9736'
p368
aS'9736'
p369
aS'9752'
p370
aS'9752'
p371
aS'9752'
p372
aS'9752'
p373
aS'9752'
p374
aS'9752'
p375
aS'9752'
p376
aS'9752'
p377
asS'Mlocked'
p378
(lp379
g5
ag5
ag5
ag5
ag5
ag5
ag5
ag5
ag5
ag5
ag5
ag5
ag5
asS'DirectMap2M'
p380
(lp381
S'4155392'
p382
aS'4155392'
p383
aS'4155392'
p384
aS'4155392'
p385
aS'4155392'
p386
aS'4155392'
p387
aS'4155392'
p388
aS'4155392'
p389
aS'4155392'
p390
aS'4155392'
p391
aS'4155392'
p392
aS'4155392'
p393
aS'4155392'
p394
asS'HugePages_Surp'
p395
(lp396
g5
ag5
ag5
ag5
ag5
ag5
ag5
ag5
ag5
ag5
ag5
ag5
ag5
asS'Bounce'
p397
(lp398
g5
ag5
ag5
ag5
ag5
ag5
ag5
ag5
ag5
ag5
ag5
ag5
ag5
asS'Inactive'
p399
(lp400
S'89896'
p401
aS'89972'
p402
aS'89976'
p403
aS'89976'
p404
aS'89976'
p405
aS'89976'
p406
aS'89976'
p407
aS'89984'
p408
aS'89984'
p409
aS'89984'
p410
aS'89984'
p411
aS'89984'
p412
aS'89984'
p413
asS'PageTables'
p414
(lp415
S'3608'
p416
aS'4144'
p417
aS'4516'
p418
aS'5132'
p419
aS'5500'
p420
aS'5976'
p421
aS'6556'
p422
aS'7060'
p423
aS'7308'
p424
aS'8152'
p425
aS'8240'
p426
aS'8792'
p427
aS'8792'
p428
asS'HardwareCorrupted'
p429
(lp430
g5
ag5
ag5
ag5
ag5
ag5
ag5
ag5
ag5
ag5
ag5
ag5
ag5
asS'HugePages_Total'
p431
(lp432
g5
ag5
ag5
ag5
ag5
ag5
ag5
ag5
ag5
ag5
ag5
ag5
ag5
asS'Slab'
p433
(lp434
S'21112'
p435
aS'21112'
p436
aS'21096'
p437
aS'21096'
p438
aS'21096'
p439
aS'21112'
p440
aS'21112'
p441
aS'21112'
p442
aS'21112'
p443
aS'21112'
p444
aS'21112'
p445
aS'21112'
p446
aS'21112'
p447
asS'Buffers'
p448
(lp449
S'2620'
p450
aS'2668'
p451
aS'2668'
p452
aS'2668'
p453
aS'2668'
p454
aS'2676'
p455
aS'2676'
p456
aS'2676'
p457
aS'2676'
p458
aS'2676'
p459
aS'2676'
p460
aS'2676'
p461
aS'2676'
p462
asS'Dirty'
p463
(lp464
S'312'
p465
aS'312'
p466
aS'312'
p467
aS'312'
p468
aS'244'
p469
aS'244'
p470
aS'244'
p471
aS'244'
p472
aS'188'
p473
aS'188'
p474
aS'188'
p475
aS'188'
p476
aS'188'
p477
assS'cpu'
p478
(dp479
S'intr_396'
p480
(lp481
g5
ag5
ag5
ag5
ag5
ag5
ag5
ag5
ag5
ag5
ag5
ag5
ag5
asS'intr_397'
p482
(lp483
g5
ag5
ag5
ag5
ag5
ag5
ag5
ag5
ag5
ag5
ag5
ag5
ag5
asS'intr_394'
p484
(lp485
g5
ag5
ag5
ag5
ag5
ag5
ag5
ag5
ag5
ag5
ag5
ag5
ag5
asS'intr_395'
p486
(lp487
g5
ag5
ag5
ag5
ag5
ag5
ag5
ag5
ag5
ag5
ag5
ag5
ag5
asS'intr_392'
p488
(lp489
g5
ag5
ag5
ag5
ag5
ag5
ag5
ag5
ag5
ag5
ag5
ag5
ag5
asS'intr_393'
p490
(lp491
g5
ag5
ag5
ag5
ag5
ag5
ag5
ag5
ag5
ag5
ag5
ag5
ag5
asS'intr_390'
p492
(lp493
g5
ag5
ag5
ag5
ag5
ag5
ag5
ag5
ag5
ag5
ag5
ag5
ag5
asS'intr_391'
p494
(lp495
g5
ag5
ag5
ag5
ag5
ag5
ag5
ag5
ag5
ag5
ag5
ag5
ag5
asS'intr_543'
p496
(lp497
g5
ag5
ag5
ag5
ag5
ag5
ag5
ag5
ag5
ag5
ag5
ag5
ag5
asS'intr_542'
p498
(lp499
g5
ag5
ag5
ag5
ag5
ag5
ag5
ag5
ag5
ag5
ag5
ag5
ag5
asS'intr_541'
p500
(lp501
g5
ag5
ag5
ag5
ag5
ag5
ag5
ag5
ag5
ag5
ag5
ag5
ag5
asS'intr_540'
p502
(lp503
g5
ag5
ag5
ag5
ag5
ag5
ag5
ag5
ag5
ag5
ag5
ag5
ag5
asS'intr_468'
p504
(lp505
g5
ag5
ag5
ag5
ag5
ag5
ag5
ag5
ag5
ag5
ag5
ag5
ag5
asS'intr_431'
p506
(lp507
g5
ag5
ag5
ag5
ag5
ag5
ag5
ag5
ag5
ag5
ag5
ag5
ag5
asS'intr_398'
p508
(lp509
g5
ag5
ag5
ag5
ag5
ag5
ag5
ag5
ag5
ag5
ag5
ag5
ag5
asS'intr_399'
p510
(lp511
g5
ag5
ag5
ag5
ag5
ag5
ag5
ag5
ag5
ag5
ag5
ag5
ag5
asS'intr_430'
p512
(lp513
g5
ag5
ag5
ag5
ag5
ag5
ag5
ag5
ag5
ag5
ag5
ag5
ag5
asS'intr_437'
p514
(lp515
g5
ag5
ag5
ag5
ag5
ag5
ag5
ag5
ag5
ag5
ag5
ag5
ag5
asS'intr_436'
p516
(lp517
g5
ag5
ag5
ag5
ag5
ag5
ag5
ag5
ag5
ag5
ag5
ag5
ag5
asS'intr_78'
p518
(lp519
g5
ag5
ag5
ag5
ag5
ag5
ag5
ag5
ag5
ag5
ag5
ag5
ag5
asS'intr_79'
p520
(lp521
g5
ag5
ag5
ag5
ag5
ag5
ag5
ag5
ag5
ag5
ag5
ag5
ag5
asS'intr_435'
p522
(lp523
g5
ag5
ag5
ag5
ag5
ag5
ag5
ag5
ag5
ag5
ag5
ag5
ag5
asS'intr_70'
p524
(lp525
g5
ag5
ag5
ag5
ag5
ag5
ag5
ag5
ag5
ag5
ag5
ag5
ag5
asS'intr_71'
p526
(lp527
g5
ag5
ag5
ag5
ag5
ag5
ag5
ag5
ag5
ag5
ag5
ag5
ag5
asS'intr_72'
p528
(lp529
g5
ag5
ag5
ag5
ag5
ag5
ag5
ag5
ag5
ag5
ag5
ag5
ag5
asS'intr_73'
p530
(lp531
g5
ag5
ag5
ag5
ag5
ag5
ag5
ag5
ag5
ag5
ag5
ag5
ag5
asS'intr_74'
p532
(lp533
g5
ag5
ag5
ag5
ag5
ag5
ag5
ag5
ag5
ag5
ag5
ag5
ag5
asS'intr_75'
p534
(lp535
g5
ag5
ag5
ag5
ag5
ag5
ag5
ag5
ag5
ag5
ag5
ag5
ag5
asS'intr_76'
p536
(lp537
g5
ag5
ag5
ag5
ag5
ag5
ag5
ag5
ag5
ag5
ag5
ag5
ag5
asS'intr_77'
p538
(lp539
g5
ag5
ag5
ag5
ag5
ag5
ag5
ag5
ag5
ag5
ag5
ag5
ag5
asS'intr_268'
p540
(lp541
g5
ag5
ag5
ag5
ag5
ag5
ag5
ag5
ag5
ag5
ag5
ag5
ag5
asS'intr_269'
p542
(lp543
g5
ag5
ag5
ag5
ag5
ag5
ag5
ag5
ag5
ag5
ag5
ag5
ag5
asS'intr_262'
p544
(lp545
g5
ag5
ag5
ag5
ag5
ag5
ag5
ag5
ag5
ag5
ag5
ag5
ag5
asS'intr_263'
p546
(lp547
g5
ag5
ag5
ag5
ag5
ag5
ag5
ag5
ag5
ag5
ag5
ag5
ag5
asS'intr_260'
p548
(lp549
g5
ag5
ag5
ag5
ag5
ag5
ag5
ag5
ag5
ag5
ag5
ag5
ag5
asS'intr_261'
p550
(lp551
g5
ag5
ag5
ag5
ag5
ag5
ag5
ag5
ag5
ag5
ag5
ag5
ag5
asS'intr_266'
p552
(lp553
g5
ag5
ag5
ag5
ag5
ag5
ag5
ag5
ag5
ag5
ag5
ag5
ag5
asS'intr_267'
p554
(lp555
g5
ag5
ag5
ag5
ag5
ag5
ag5
ag5
ag5
ag5
ag5
ag5
ag5
asS'intr_264'
p556
(lp557
g5
ag5
ag5
ag5
ag5
ag5
ag5
ag5
ag5
ag5
ag5
ag5
ag5
asS'intr_265'
p558
(lp559
g5
ag5
ag5
ag5
ag5
ag5
ag5
ag5
ag5
ag5
ag5
ag5
ag5
asS'intr_301'
p560
(lp561
g5
ag5
ag5
ag5
ag5
ag5
ag5
ag5
ag5
ag5
ag5
ag5
ag5
asS'intr_300'
p562
(lp563
g5
ag5
ag5
ag5
ag5
ag5
ag5
ag5
ag5
ag5
ag5
ag5
ag5
asS'intr_303'
p564
(lp565
g5
ag5
ag5
ag5
ag5
ag5
ag5
ag5
ag5
ag5
ag5
ag5
ag5
asS'intr_302'
p566
(lp567
g5
ag5
ag5
ag5
ag5
ag5
ag5
ag5
ag5
ag5
ag5
ag5
ag5
asS'intr_305'
p568
(lp569
g5
ag5
ag5
ag5
ag5
ag5
ag5
ag5
ag5
ag5
ag5
ag5
ag5
asS'intr_304'
p570
(lp571
g5
ag5
ag5
ag5
ag5
ag5
ag5
ag5
ag5
ag5
ag5
ag5
ag5
asS'intr_307'
p572
(lp573
g5
ag5
ag5
ag5
ag5
ag5
ag5
ag5
ag5
ag5
ag5
ag5
ag5
asS'intr_306'
p574
(lp575
g5
ag5
ag5
ag5
ag5
ag5
ag5
ag5
ag5
ag5
ag5
ag5
ag5
asS'intr_309'
p576
(lp577
g5
ag5
ag5
ag5
ag5
ag5
ag5
ag5
ag5
ag5
ag5
ag5
ag5
asS'intr_308'
p578
(lp579
g5
ag5
ag5
ag5
ag5
ag5
ag5
ag5
ag5
ag5
ag5
ag5
ag5
asS'intr_466'
p580
(lp581
g5
ag5
ag5
ag5
ag5
ag5
ag5
ag5
ag5
ag5
ag5
ag5
ag5
asS'intr_492'
p582
(lp583
g5
ag5
ag5
ag5
ag5
ag5
ag5
ag5
ag5
ag5
ag5
ag5
ag5
asS'intr_467'
p584
(lp585
g5
ag5
ag5
ag5
ag5
ag5
ag5
ag5
ag5
ag5
ag5
ag5
ag5
asS'intr_460'
p586
(lp587
g5
ag5
ag5
ag5
ag5
ag5
ag5
ag5
ag5
ag5
ag5
ag5
ag5
asS'intr_461'
p588
(lp589
g5
ag5
ag5
ag5
ag5
ag5
ag5
ag5
ag5
ag5
ag5
ag5
ag5
asS'intr_462'
p590
(lp591
g5
ag5
ag5
ag5
ag5
ag5
ag5
ag5
ag5
ag5
ag5
ag5
ag5
asS'cpu1_10'
p592
(lp593
g5
ag5
ag5
ag5
ag5
ag5
ag5
ag5
ag5
ag5
ag5
ag5
ag5
asS'cpu_10'
p594
(lp595
g5
ag5
ag5
ag5
ag5
ag5
ag5
ag5
ag5
ag5
ag5
ag5
ag5
asS'intr_463'
p596
(lp597
g5
ag5
ag5
ag5
ag5
ag5
ag5
ag5
ag5
ag5
ag5
ag5
ag5
asS'intr_495'
p598
(lp599
g5
ag5
ag5
ag5
ag5
ag5
ag5
ag5
ag5
ag5
ag5
ag5
ag5
asS'intr_790'
p600
(lp601
g5
ag5
ag5
ag5
ag5
ag5
ag5
ag5
ag5
ag5
ag5
ag5
ag5
asS'intr_547'
p602
(lp603
g5
ag5
ag5
ag5
ag5
ag5
ag5
ag5
ag5
ag5
ag5
ag5
ag5
asS'intr_494'
p604
(lp605
g5
ag5
ag5
ag5
ag5
ag5
ag5
ag5
ag5
ag5
ag5
ag5
ag5
asS'intr_469'
p606
(lp607
g5
ag5
ag5
ag5
ag5
ag5
ag5
ag5
ag5
ag5
ag5
ag5
ag5
asS'intr_545'
p608
(lp609
g5
ag5
ag5
ag5
ag5
ag5
ag5
ag5
ag5
ag5
ag5
ag5
ag5
asS'intr_544'
p610
(lp611
g5
ag5
ag5
ag5
ag5
ag5
ag5
ag5
ag5
ag5
ag5
ag5
ag5
asS'intr_165'
p612
(lp613
g5
ag5
ag5
ag5
ag5
ag5
ag5
ag5
ag5
ag5
ag5
ag5
ag5
asS'intr_164'
p614
(lp615
g5
ag5
ag5
ag5
ag5
ag5
ag5
ag5
ag5
ag5
ag5
ag5
ag5
asS'intr_167'
p616
(lp617
g5
ag5
ag5
ag5
ag5
ag5
ag5
ag5
ag5
ag5
ag5
ag5
ag5
asS'intr_166'
p618
(lp619
g5
ag5
ag5
ag5
ag5
ag5
ag5
ag5
ag5
ag5
ag5
ag5
ag5
asS'intr_161'
p620
(lp621
g5
ag5
ag5
ag5
ag5
ag5
ag5
ag5
ag5
ag5
ag5
ag5
ag5
asS'intr_160'
p622
(lp623
g5
ag5
ag5
ag5
ag5
ag5
ag5
ag5
ag5
ag5
ag5
ag5
ag5
asS'intr_163'
p624
(lp625
g5
ag5
ag5
ag5
ag5
ag5
ag5
ag5
ag5
ag5
ag5
ag5
ag5
asS'intr_162'
p626
(lp627
g5
ag5
ag5
ag5
ag5
ag5
ag5
ag5
ag5
ag5
ag5
ag5
ag5
asS'intr_604'
p628
(lp629
g5
ag5
ag5
ag5
ag5
ag5
ag5
ag5
ag5
ag5
ag5
ag5
ag5
asS'intr_605'
p630
(lp631
g5
ag5
ag5
ag5
ag5
ag5
ag5
ag5
ag5
ag5
ag5
ag5
ag5
asS'intr_606'
p632
(lp633
g5
ag5
ag5
ag5
ag5
ag5
ag5
ag5
ag5
ag5
ag5
ag5
ag5
asS'intr_607'
p634
(lp635
g5
ag5
ag5
ag5
ag5
ag5
ag5
ag5
ag5
ag5
ag5
ag5
ag5
asS'intr_169'
p636
(lp637
g5
ag5
ag5
ag5
ag5
ag5
ag5
ag5
ag5
ag5
ag5
ag5
ag5
asS'intr_168'
p638
(lp639
g5
ag5
ag5
ag5
ag5
ag5
ag5
ag5
ag5
ag5
ag5
ag5
ag5
asS'intr_602'
p640
(lp641
g5
ag5
ag5
ag5
ag5
ag5
ag5
ag5
ag5
ag5
ag5
ag5
ag5
asS'intr_603'
p642
(lp643
g5
ag5
ag5
ag5
ag5
ag5
ag5
ag5
ag5
ag5
ag5
ag5
ag5
asS'intr_763'
p644
(lp645
g5
ag5
ag5
ag5
ag5
ag5
ag5
ag5
ag5
ag5
ag5
ag5
ag5
asS'intr_762'
p646
(lp647
g5
ag5
ag5
ag5
ag5
ag5
ag5
ag5
ag5
ag5
ag5
ag5
ag5
asS'intr_761'
p648
(lp649
g5
ag5
ag5
ag5
ag5
ag5
ag5
ag5
ag5
ag5
ag5
ag5
ag5
asS'intr_760'
p650
(lp651
g5
ag5
ag5
ag5
ag5
ag5
ag5
ag5
ag5
ag5
ag5
ag5
ag5
asS'intr_767'
p652
(lp653
g5
ag5
ag5
ag5
ag5
ag5
ag5
ag5
ag5
ag5
ag5
ag5
ag5
asS'intr_453'
p654
(lp655
g5
ag5
ag5
ag5
ag5
ag5
ag5
ag5
ag5
ag5
ag5
ag5
ag5
asS'intr_765'
p656
(lp657
g5
ag5
ag5
ag5
ag5
ag5
ag5
ag5
ag5
ag5
ag5
ag5
ag5
asS'intr_764'
p658
(lp659
g5
ag5
ag5
ag5
ag5
ag5
ag5
ag5
ag5
ag5
ag5
ag5
ag5
asS'intr_769'
p660
(lp661
g5
ag5
ag5
ag5
ag5
ag5
ag5
ag5
ag5
ag5
ag5
ag5
ag5
asS'intr_768'
p662
(lp663
g5
ag5
ag5
ag5
ag5
ag5
ag5
ag5
ag5
ag5
ag5
ag5
ag5
asS'intr_528'
p664
(lp665
g5
ag5
ag5
ag5
ag5
ag5
ag5
ag5
ag5
ag5
ag5
ag5
ag5
asS'intr_110'
p666
(lp667
g5
ag5
ag5
ag5
ag5
ag5
ag5
ag5
ag5
ag5
ag5
ag5
ag5
asS'intr_111'
p668
(lp669
g5
ag5
ag5
ag5
ag5
ag5
ag5
ag5
ag5
ag5
ag5
ag5
ag5
asS'intr_112'
p670
(lp671
g5
ag5
ag5
ag5
ag5
ag5
ag5
ag5
ag5
ag5
ag5
ag5
ag5
asS'intr_113'
p672
(lp673
g5
ag5
ag5
ag5
ag5
ag5
ag5
ag5
ag5
ag5
ag5
ag5
ag5
asS'intr_114'
p674
(lp675
g5
ag5
ag5
ag5
ag5
ag5
ag5
ag5
ag5
ag5
ag5
ag5
ag5
asS'intr_115'
p676
(lp677
g5
ag5
ag5
ag5
ag5
ag5
ag5
ag5
ag5
ag5
ag5
ag5
ag5
asS'intr_116'
p678
(lp679
g5
ag5
ag5
ag5
ag5
ag5
ag5
ag5
ag5
ag5
ag5
ag5
ag5
asS'intr_117'
p680
(lp681
g5
ag5
ag5
ag5
ag5
ag5
ag5
ag5
ag5
ag5
ag5
ag5
ag5
asS'intr_118'
p682
(lp683
g5
ag5
ag5
ag5
ag5
ag5
ag5
ag5
ag5
ag5
ag5
ag5
ag5
asS'intr_119'
p684
(lp685
g5
ag5
ag5
ag5
ag5
ag5
ag5
ag5
ag5
ag5
ag5
ag5
ag5
asS'intr_509'
p686
(lp687
g5
ag5
ag5
ag5
ag5
ag5
ag5
ag5
ag5
ag5
ag5
ag5
ag5
asS'intr_508'
p688
(lp689
g5
ag5
ag5
ag5
ag5
ag5
ag5
ag5
ag5
ag5
ag5
ag5
ag5
asS'intr_697'
p690
(lp691
g5
ag5
ag5
ag5
ag5
ag5
ag5
ag5
ag5
ag5
ag5
ag5
ag5
asS'intr_499'
p692
(lp693
g5
ag5
ag5
ag5
ag5
ag5
ag5
ag5
ag5
ag5
ag5
ag5
ag5
asS'intr_695'
p694
(lp695
g5
ag5
ag5
ag5
ag5
ag5
ag5
ag5
ag5
ag5
ag5
ag5
ag5
asS'intr_694'
p696
(lp697
g5
ag5
ag5
ag5
ag5
ag5
ag5
ag5
ag5
ag5
ag5
ag5
ag5
asS'intr_693'
p698
(lp699
g5
ag5
ag5
ag5
ag5
ag5
ag5
ag5
ag5
ag5
ag5
ag5
ag5
asS'intr_692'
p700
(lp701
g5
ag5
ag5
ag5
ag5
ag5
ag5
ag5
ag5
ag5
ag5
ag5
ag5
asS'intr_691'
p702
(lp703
g5
ag5
ag5
ag5
ag5
ag5
ag5
ag5
ag5
ag5
ag5
ag5
ag5
asS'intr_498'
p704
(lp705
g5
ag5
ag5
ag5
ag5
ag5
ag5
ag5
ag5
ag5
ag5
ag5
ag5
asS'intr_699'
p706
(lp707
g5
ag5
ag5
ag5
ag5
ag5
ag5
ag5
ag5
ag5
ag5
ag5
ag5
asS'intr_698'
p708
(lp709
g5
ag5
ag5
ag5
ag5
ag5
ag5
ag5
ag5
ag5
ag5
ag5
ag5
asS'intr_598'
p710
(lp711
g5
ag5
ag5
ag5
ag5
ag5
ag5
ag5
ag5
ag5
ag5
ag5
ag5
asS'intr_599'
p712
(lp713
g5
ag5
ag5
ag5
ag5
ag5
ag5
ag5
ag5
ag5
ag5
ag5
ag5
asS'cpu1_1'
p714
(lp715
S'153644'
p716
aS'153644'
p717
aS'153644'
p718
aS'153644'
p719
aS'153645'
p720
aS'153645'
p721
aS'153645'
p722
aS'153646'
p723
aS'153646'
p724
aS'153646'
p725
aS'153646'
p726
aS'153646'
p727
aS'153646'
p728
asS'intr_594'
p729
(lp730
g5
ag5
ag5
ag5
ag5
ag5
ag5
ag5
ag5
ag5
ag5
ag5
ag5
asS'intr_595'
p731
(lp732
g5
ag5
ag5
ag5
ag5
ag5
ag5
ag5
ag5
ag5
ag5
ag5
ag5
asS'intr_596'
p733
(lp734
g5
ag5
ag5
ag5
ag5
ag5
ag5
ag5
ag5
ag5
ag5
ag5
ag5
asS'intr_597'
p735
(lp736
g5
ag5
ag5
ag5
ag5
ag5
ag5
ag5
ag5
ag5
ag5
ag5
ag5
asS'intr_590'
p737
(lp738
g5
ag5
ag5
ag5
ag5
ag5
ag5
ag5
ag5
ag5
ag5
ag5
ag5
asS'intr_591'
p739
(lp740
g5
ag5
ag5
ag5
ag5
ag5
ag5
ag5
ag5
ag5
ag5
ag5
ag5
asS'intr_592'
p741
(lp742
g5
ag5
ag5
ag5
ag5
ag5
ag5
ag5
ag5
ag5
ag5
ag5
ag5
asS'intr_593'
p743
(lp744
g5
ag5
ag5
ag5
ag5
ag5
ag5
ag5
ag5
ag5
ag5
ag5
ag5
asS'intr_491'
p745
(lp746
g5
ag5
ag5
ag5
ag5
ag5
ag5
ag5
ag5
ag5
ag5
ag5
ag5
asS'intr_439'
p747
(lp748
g5
ag5
ag5
ag5
ag5
ag5
ag5
ag5
ag5
ag5
ag5
ag5
ag5
asS'intr_438'
p749
(lp750
g5
ag5
ag5
ag5
ag5
ag5
ag5
ag5
ag5
ag5
ag5
ag5
ag5
asS'intr_349'
p751
(lp752
g5
ag5
ag5
ag5
ag5
ag5
ag5
ag5
ag5
ag5
ag5
ag5
ag5
asS'intr_348'
p753
(lp754
g5
ag5
ag5
ag5
ag5
ag5
ag5
ag5
ag5
ag5
ag5
ag5
ag5
asS'intr_490'
p755
(lp756
g5
ag5
ag5
ag5
ag5
ag5
ag5
ag5
ag5
ag5
ag5
ag5
ag5
asS'intr_345'
p757
(lp758
g5
ag5
ag5
ag5
ag5
ag5
ag5
ag5
ag5
ag5
ag5
ag5
ag5
asS'intr_344'
p759
(lp760
g5
ag5
ag5
ag5
ag5
ag5
ag5
ag5
ag5
ag5
ag5
ag5
ag5
asS'intr_347'
p761
(lp762
g5
ag5
ag5
ag5
ag5
ag5
ag5
ag5
ag5
ag5
ag5
ag5
ag5
asS'intr_346'
p763
(lp764
g5
ag5
ag5
ag5
ag5
ag5
ag5
ag5
ag5
ag5
ag5
ag5
ag5
asS'intr_341'
p765
(lp766
g5
ag5
ag5
ag5
ag5
ag5
ag5
ag5
ag5
ag5
ag5
ag5
ag5
asS'intr_340'
p767
(lp768
g5
ag5
ag5
ag5
ag5
ag5
ag5
ag5
ag5
ag5
ag5
ag5
ag5
asS'intr_343'
p769
(lp770
g5
ag5
ag5
ag5
ag5
ag5
ag5
ag5
ag5
ag5
ag5
ag5
ag5
asS'intr_342'
p771
(lp772
g5
ag5
ag5
ag5
ag5
ag5
ag5
ag5
ag5
ag5
ag5
ag5
ag5
asS'intr_96'
p773
(lp774
g5
ag5
ag5
ag5
ag5
ag5
ag5
ag5
ag5
ag5
ag5
ag5
ag5
asS'intr_189'
p775
(lp776
g5
ag5
ag5
ag5
ag5
ag5
ag5
ag5
ag5
ag5
ag5
ag5
ag5
asS'intr_188'
p777
(lp778
g5
ag5
ag5
ag5
ag5
ag5
ag5
ag5
ag5
ag5
ag5
ag5
ag5
asS'intr_673'
p779
(lp780
g5
ag5
ag5
ag5
ag5
ag5
ag5
ag5
ag5
ag5
ag5
ag5
ag5
asS'intr_97'
p781
(lp782
g5
ag5
ag5
ag5
ag5
ag5
ag5
ag5
ag5
ag5
ag5
ag5
ag5
asS'intr_183'
p783
(lp784
g5
ag5
ag5
ag5
ag5
ag5
ag5
ag5
ag5
ag5
ag5
ag5
ag5
asS'intr_182'
p785
(lp786
g5
ag5
ag5
ag5
ag5
ag5
ag5
ag5
ag5
ag5
ag5
ag5
ag5
asS'intr_181'
p787
(lp788
g5
ag5
ag5
ag5
ag5
ag5
ag5
ag5
ag5
ag5
ag5
ag5
ag5
asS'intr_180'
p789
(lp790
g5
ag5
ag5
ag5
ag5
ag5
ag5
ag5
ag5
ag5
ag5
ag5
ag5
asS'intr_187'
p791
(lp792
g5
ag5
ag5
ag5
ag5
ag5
ag5
ag5
ag5
ag5
ag5
ag5
ag5
asS'intr_186'
p793
(lp794
g5
ag5
ag5
ag5
ag5
ag5
ag5
ag5
ag5
ag5
ag5
ag5
ag5
asS'intr_185'
p795
(lp796
g5
ag5
ag5
ag5
ag5
ag5
ag5
ag5
ag5
ag5
ag5
ag5
ag5
asS'intr_184'
p797
(lp798
g5
ag5
ag5
ag5
ag5
ag5
ag5
ag5
ag5
ag5
ag5
ag5
ag5
asS'intr_749'
p799
(lp800
g5
ag5
ag5
ag5
ag5
ag5
ag5
ag5
ag5
ag5
ag5
ag5
ag5
asS'intr_95'
p801
(lp802
g5
ag5
ag5
ag5
ag5
ag5
ag5
ag5
ag5
ag5
ag5
ag5
ag5
asS'intr_497'
p803
(lp804
g5
ag5
ag5
ag5
ag5
ag5
ag5
ag5
ag5
ag5
ag5
ag5
ag5
asS'intr_92'
p805
(lp806
g5
ag5
ag5
ag5
ag5
ag5
ag5
ag5
ag5
ag5
ag5
ag5
ag5
asS'intr_496'
p807
(lp808
g5
ag5
ag5
ag5
ag5
ag5
ag5
ag5
ag5
ag5
ag5
ag5
ag5
asS'intr_93'
p809
(lp810
g5
ag5
ag5
ag5
ag5
ag5
ag5
ag5
ag5
ag5
ag5
ag5
ag5
asS'intr_90'
p811
(lp812
g5
ag5
ag5
ag5
ag5
ag5
ag5
ag5
ag5
ag5
ag5
ag5
ag5
asS'intr_688'
p813
(lp814
g5
ag5
ag5
ag5
ag5
ag5
ag5
ag5
ag5
ag5
ag5
ag5
ag5
asS'intr_91'
p815
(lp816
g5
ag5
ag5
ag5
ag5
ag5
ag5
ag5
ag5
ag5
ag5
ag5
ag5
asS'intr_748'
p817
(lp818
g5
ag5
ag5
ag5
ag5
ag5
ag5
ag5
ag5
ag5
ag5
ag5
ag5
asS'intr_568'
p819
(lp820
g5
ag5
ag5
ag5
ag5
ag5
ag5
ag5
ag5
ag5
ag5
ag5
ag5
asS'intr_757'
p821
(lp822
g5
ag5
ag5
ag5
ag5
ag5
ag5
ag5
ag5
ag5
ag5
ag5
ag5
asS'cpu1_9'
p823
(lp824
g5
ag5
ag5
ag5
ag5
ag5
ag5
ag5
ag5
ag5
ag5
ag5
ag5
asS'intr_231'
p825
(lp826
g5
ag5
ag5
ag5
ag5
ag5
ag5
ag5
ag5
ag5
ag5
ag5
ag5
asS'intr_230'
p827
(lp828
g5
ag5
ag5
ag5
ag5
ag5
ag5
ag5
ag5
ag5
ag5
ag5
ag5
asS'intr_233'
p829
(lp830
g5
ag5
ag5
ag5
ag5
ag5
ag5
ag5
ag5
ag5
ag5
ag5
ag5
asS'intr_232'
p831
(lp832
g5
ag5
ag5
ag5
ag5
ag5
ag5
ag5
ag5
ag5
ag5
ag5
ag5
asS'intr_235'
p833
(lp834
g5
ag5
ag5
ag5
ag5
ag5
ag5
ag5
ag5
ag5
ag5
ag5
ag5
asS'intr_149'
p835
(lp836
g5
ag5
ag5
ag5
ag5
ag5
ag5
ag5
ag5
ag5
ag5
ag5
ag5
asS'intr_237'
p837
(lp838
g5
ag5
ag5
ag5
ag5
ag5
ag5
ag5
ag5
ag5
ag5
ag5
ag5
asS'intr_236'
p839
(lp840
g5
ag5
ag5
ag5
ag5
ag5
ag5
ag5
ag5
ag5
ag5
ag5
ag5
asS'intr_239'
p841
(lp842
g5
ag5
ag5
ag5
ag5
ag5
ag5
ag5
ag5
ag5
ag5
ag5
ag5
asS'intr_238'
p843
(lp844
g5
ag5
ag5
ag5
ag5
ag5
ag5
ag5
ag5
ag5
ag5
ag5
ag5
asS'intr_332'
p845
(lp846
g5
ag5
ag5
ag5
ag5
ag5
ag5
ag5
ag5
ag5
ag5
ag5
ag5
asS'intr_148'
p847
(lp848
g5
ag5
ag5
ag5
ag5
ag5
ag5
ag5
ag5
ag5
ag5
ag5
ag5
asS'intr_334'
p849
(lp850
g5
ag5
ag5
ag5
ag5
ag5
ag5
ag5
ag5
ag5
ag5
ag5
ag5
asS'intr_335'
p851
(lp852
g5
ag5
ag5
ag5
ag5
ag5
ag5
ag5
ag5
ag5
ag5
ag5
ag5
asS'intr_336'
p853
(lp854
g5
ag5
ag5
ag5
ag5
ag5
ag5
ag5
ag5
ag5
ag5
ag5
ag5
asS'intr_337'
p855
(lp856
g5
ag5
ag5
ag5
ag5
ag5
ag5
ag5
ag5
ag5
ag5
ag5
ag5
asS'intr_147'
p857
(lp858
g5
ag5
ag5
ag5
ag5
ag5
ag5
ag5
ag5
ag5
ag5
ag5
ag5
asS'intr_138'
p859
(lp860
g5
ag5
ag5
ag5
ag5
ag5
ag5
ag5
ag5
ag5
ag5
ag5
ag5
asS'intr_146'
p861
(lp862
g5
ag5
ag5
ag5
ag5
ag5
ag5
ag5
ag5
ag5
ag5
ag5
ag5
asS'intr_139'
p863
(lp864
g5
ag5
ag5
ag5
ag5
ag5
ag5
ag5
ag5
ag5
ag5
ag5
ag5
asS'intr_145'
p865
(lp866
g5
ag5
ag5
ag5
ag5
ag5
ag5
ag5
ag5
ag5
ag5
ag5
ag5
asS'intr_338'
p867
(lp868
g5
ag5
ag5
ag5
ag5
ag5
ag5
ag5
ag5
ag5
ag5
ag5
ag5
asS'intr_144'
p869
(lp870
g5
ag5
ag5
ag5
ag5
ag5
ag5
ag5
ag5
ag5
ag5
ag5
ag5
asS'intr_729'
p871
(lp872
g5
ag5
ag5
ag5
ag5
ag5
ag5
ag5
ag5
ag5
ag5
ag5
ag5
asS'intr_339'
p873
(lp874
g5
ag5
ag5
ag5
ag5
ag5
ag5
ag5
ag5
ag5
ag5
ag5
ag5
asS'intr_727'
p875
(lp876
g5
ag5
ag5
ag5
ag5
ag5
ag5
ag5
ag5
ag5
ag5
ag5
ag5
asS'intr_8'
p877
(lp878
S'2'
p879
ag879
ag879
ag879
ag879
ag879
ag879
ag879
ag879
ag879
ag879
ag879
ag879
asS'intr_725'
p880
(lp881
g5
ag5
ag5
ag5
ag5
ag5
ag5
ag5
ag5
ag5
ag5
ag5
ag5
asS'intr_724'
p882
(lp883
g5
ag5
ag5
ag5
ag5
ag5
ag5
ag5
ag5
ag5
ag5
ag5
ag5
asS'intr_723'
p884
(lp885
g5
ag5
ag5
ag5
ag5
ag5
ag5
ag5
ag5
ag5
ag5
ag5
ag5
asS'intr_722'
p886
(lp887
g5
ag5
ag5
ag5
ag5
ag5
ag5
ag5
ag5
ag5
ag5
ag5
ag5
asS'intr_721'
p888
(lp889
g5
ag5
ag5
ag5
ag5
ag5
ag5
ag5
ag5
ag5
ag5
ag5
ag5
asS'intr_142'
p890
(lp891
g5
ag5
ag5
ag5
ag5
ag5
ag5
ag5
ag5
ag5
ag5
ag5
ag5
asS'intr_141'
p892
(lp893
g5
ag5
ag5
ag5
ag5
ag5
ag5
ag5
ag5
ag5
ag5
ag5
ag5
asS'intr_140'
p894
(lp895
g5
ag5
ag5
ag5
ag5
ag5
ag5
ag5
ag5
ag5
ag5
ag5
ag5
asS'intr_563'
p896
(lp897
g5
ag5
ag5
ag5
ag5
ag5
ag5
ag5
ag5
ag5
ag5
ag5
ag5
asS'intr_234'
p898
(lp899
g5
ag5
ag5
ag5
ag5
ag5
ag5
ag5
ag5
ag5
ag5
ag5
ag5
asS'intr_802'
p900
(lp901
g5
ag5
ag5
ag5
ag5
ag5
ag5
ag5
ag5
ag5
ag5
ag5
ag5
asS'intr_330'
p902
(lp903
g5
ag5
ag5
ag5
ag5
ag5
ag5
ag5
ag5
ag5
ag5
ag5
ag5
asS'intr_800'
p904
(lp905
g5
ag5
ag5
ag5
ag5
ag5
ag5
ag5
ag5
ag5
ag5
ag5
ag5
asS'intr_801'
p906
(lp907
g5
ag5
ag5
ag5
ag5
ag5
ag5
ag5
ag5
ag5
ag5
ag5
ag5
asS'intr_806'
p908
(lp909
g5
ag5
ag5
ag5
ag5
ag5
ag5
ag5
ag5
ag5
ag5
ag5
ag5
asS'intr_807'
p910
(lp911
g5
ag5
ag5
ag5
ag5
ag5
ag5
ag5
ag5
ag5
ag5
ag5
ag5
asS'intr_804'
p912
(lp913
g5
ag5
ag5
ag5
ag5
ag5
ag5
ag5
ag5
ag5
ag5
ag5
ag5
asS'intr_331'
p914
(lp915
g5
ag5
ag5
ag5
ag5
ag5
ag5
ag5
ag5
ag5
ag5
ag5
ag5
asS'intr_789'
p916
(lp917
g5
ag5
ag5
ag5
ag5
ag5
ag5
ag5
ag5
ag5
ag5
ag5
ag5
asS'intr_808'
p918
(lp919
g5
ag5
ag5
ag5
ag5
ag5
ag5
ag5
ag5
ag5
ag5
ag5
ag5
asS'intr_809'
p920
(lp921
g5
ag5
ag5
ag5
ag5
ag5
ag5
ag5
ag5
ag5
ag5
ag5
ag5
asS'intr_788'
p922
(lp923
g5
ag5
ag5
ag5
ag5
ag5
ag5
ag5
ag5
ag5
ag5
ag5
ag5
asS'intr_333'
p924
(lp925
g5
ag5
ag5
ag5
ag5
ag5
ag5
ag5
ag5
ag5
ag5
ag5
ag5
asS'intr_158'
p926
(lp927
g5
ag5
ag5
ag5
ag5
ag5
ag5
ag5
ag5
ag5
ag5
ag5
ag5
asS'intr_159'
p928
(lp929
g5
ag5
ag5
ag5
ag5
ag5
ag5
ag5
ag5
ag5
ag5
ag5
ag5
asS'intr_154'
p930
(lp931
g5
ag5
ag5
ag5
ag5
ag5
ag5
ag5
ag5
ag5
ag5
ag5
ag5
asS'intr_155'
p932
(lp933
g5
ag5
ag5
ag5
ag5
ag5
ag5
ag5
ag5
ag5
ag5
ag5
ag5
asS'intr_156'
p934
(lp935
g5
ag5
ag5
ag5
ag5
ag5
ag5
ag5
ag5
ag5
ag5
ag5
ag5
asS'intr_157'
p936
(lp937
g5
ag5
ag5
ag5
ag5
ag5
ag5
ag5
ag5
ag5
ag5
ag5
ag5
asS'intr_150'
p938
(lp939
g5
ag5
ag5
ag5
ag5
ag5
ag5
ag5
ag5
ag5
ag5
ag5
ag5
asS'intr_151'
p940
(lp941
g5
ag5
ag5
ag5
ag5
ag5
ag5
ag5
ag5
ag5
ag5
ag5
ag5
asS'intr_152'
p942
(lp943
g5
ag5
ag5
ag5
ag5
ag5
ag5
ag5
ag5
ag5
ag5
ag5
ag5
asS'intr_153'
p944
(lp945
g5
ag5
ag5
ag5
ag5
ag5
ag5
ag5
ag5
ag5
ag5
ag5
ag5
asS'intr_653'
p946
(lp947
g5
ag5
ag5
ag5
ag5
ag5
ag5
ag5
ag5
ag5
ag5
ag5
ag5
asS'intr_652'
p948
(lp949
g5
ag5
ag5
ag5
ag5
ag5
ag5
ag5
ag5
ag5
ag5
ag5
ag5
asS'intr_651'
p950
(lp951
g5
ag5
ag5
ag5
ag5
ag5
ag5
ag5
ag5
ag5
ag5
ag5
ag5
asS'intr_650'
p952
(lp953
g5
ag5
ag5
ag5
ag5
ag5
ag5
ag5
ag5
ag5
ag5
ag5
ag5
asS'intr_657'
p954
(lp955
g5
ag5
ag5
ag5
ag5
ag5
ag5
ag5
ag5
ag5
ag5
ag5
ag5
asS'intr_656'
p956
(lp957
g5
ag5
ag5
ag5
ag5
ag5
ag5
ag5
ag5
ag5
ag5
ag5
ag5
asS'intr_655'
p958
(lp959
g5
ag5
ag5
ag5
ag5
ag5
ag5
ag5
ag5
ag5
ag5
ag5
ag5
asS'intr_654'
p960
(lp961
g5
ag5
ag5
ag5
ag5
ag5
ag5
ag5
ag5
ag5
ag5
ag5
ag5
asS'intr_792'
p962
(lp963
g5
ag5
ag5
ag5
ag5
ag5
ag5
ag5
ag5
ag5
ag5
ag5
ag5
asS'intr_793'
p964
(lp965
g5
ag5
ag5
ag5
ag5
ag5
ag5
ag5
ag5
ag5
ag5
ag5
ag5
asS'intr_659'
p966
(lp967
g5
ag5
ag5
ag5
ag5
ag5
ag5
ag5
ag5
ag5
ag5
ag5
ag5
asS'intr_658'
p968
(lp969
g5
ag5
ag5
ag5
ag5
ag5
ag5
ag5
ag5
ag5
ag5
ag5
ag5
asS'intr_796'
p970
(lp971
g5
ag5
ag5
ag5
ag5
ag5
ag5
ag5
ag5
ag5
ag5
ag5
ag5
asS'intr_797'
p972
(lp973
g5
ag5
ag5
ag5
ag5
ag5
ag5
ag5
ag5
ag5
ag5
ag5
ag5
asS'intr_794'
p974
(lp975
g5
ag5
ag5
ag5
ag5
ag5
ag5
ag5
ag5
ag5
ag5
ag5
ag5
asS'intr_795'
p976
(lp977
g5
ag5
ag5
ag5
ag5
ag5
ag5
ag5
ag5
ag5
ag5
ag5
ag5
asS'intr_781'
p978
(lp979
g5
ag5
ag5
ag5
ag5
ag5
ag5
ag5
ag5
ag5
ag5
ag5
ag5
asS'softirq_10'
p980
(lp981
S'1267'
p982
aS'1267'
p983
aS'1267'
p984
aS'1268'
p985
aS'1268'
p986
aS'1268'
p987
aS'1268'
p988
aS'1268'
p989
aS'1268'
p990
aS'1268'
p991
aS'1268'
p992
aS'1268'
p993
aS'1268'
p994
asS'intr_783'
p995
(lp996
g5
ag5
ag5
ag5
ag5
ag5
ag5
ag5
ag5
ag5
ag5
ag5
ag5
asS'btime_1'
p997
(lp998
S'1329431306'
p999
aS'1329431306'
p1000
aS'1329431306'
p1001
aS'1329431306'
p1002
aS'1329431306'
p1003
aS'1329431306'
p1004
aS'1329431306'
p1005
aS'1329431306'
p1006
aS'1329431306'
p1007
aS'1329431306'
p1008
aS'1329431306'
p1009
aS'1329431306'
p1010
aS'1329431306'
p1011
asS'intr_782'
p1012
(lp1013
g5
ag5
ag5
ag5
ag5
ag5
ag5
ag5
ag5
ag5
ag5
ag5
ag5
asS'intr_389'
p1014
(lp1015
g5
ag5
ag5
ag5
ag5
ag5
ag5
ag5
ag5
ag5
ag5
ag5
ag5
asS'intr_388'
p1016
(lp1017
g5
ag5
ag5
ag5
ag5
ag5
ag5
ag5
ag5
ag5
ag5
ag5
ag5
asS'intr_381'
p1018
(lp1019
g5
ag5
ag5
ag5
ag5
ag5
ag5
ag5
ag5
ag5
ag5
ag5
ag5
asS'intr_380'
p1020
(lp1021
g5
ag5
ag5
ag5
ag5
ag5
ag5
ag5
ag5
ag5
ag5
ag5
ag5
asS'intr_383'
p1022
(lp1023
g5
ag5
ag5
ag5
ag5
ag5
ag5
ag5
ag5
ag5
ag5
ag5
ag5
asS'intr_382'
p1024
(lp1025
g5
ag5
ag5
ag5
ag5
ag5
ag5
ag5
ag5
ag5
ag5
ag5
ag5
asS'intr_385'
p1026
(lp1027
g5
ag5
ag5
ag5
ag5
ag5
ag5
ag5
ag5
ag5
ag5
ag5
ag5
asS'intr_384'
p1028
(lp1029
g5
ag5
ag5
ag5
ag5
ag5
ag5
ag5
ag5
ag5
ag5
ag5
ag5
asS'intr_387'
p1030
(lp1031
g5
ag5
ag5
ag5
ag5
ag5
ag5
ag5
ag5
ag5
ag5
ag5
ag5
asS'intr_386'
p1032
(lp1033
g5
ag5
ag5
ag5
ag5
ag5
ag5
ag5
ag5
ag5
ag5
ag5
ag5
asS'intr_477'
p1034
(lp1035
g5
ag5
ag5
ag5
ag5
ag5
ag5
ag5
ag5
ag5
ag5
ag5
ag5
asS'intr_476'
p1036
(lp1037
g5
ag5
ag5
ag5
ag5
ag5
ag5
ag5
ag5
ag5
ag5
ag5
ag5
asS'intr_475'
p1038
(lp1039
g5
ag5
ag5
ag5
ag5
ag5
ag5
ag5
ag5
ag5
ag5
ag5
ag5
asS'intr_474'
p1040
(lp1041
g5
ag5
ag5
ag5
ag5
ag5
ag5
ag5
ag5
ag5
ag5
ag5
ag5
asS'intr_473'
p1042
(lp1043
g5
ag5
ag5
ag5
ag5
ag5
ag5
ag5
ag5
ag5
ag5
ag5
ag5
asS'intr_472'
p1044
(lp1045
g5
ag5
ag5
ag5
ag5
ag5
ag5
ag5
ag5
ag5
ag5
ag5
ag5
asS'intr_471'
p1046
(lp1047
g5
ag5
ag5
ag5
ag5
ag5
ag5
ag5
ag5
ag5
ag5
ag5
ag5
asS'intr_470'
p1048
(lp1049
g5
ag5
ag5
ag5
ag5
ag5
ag5
ag5
ag5
ag5
ag5
ag5
ag5
asS'intr_576'
p1050
(lp1051
g5
ag5
ag5
ag5
ag5
ag5
ag5
ag5
ag5
ag5
ag5
ag5
ag5
asS'intr_577'
p1052
(lp1053
g5
ag5
ag5
ag5
ag5
ag5
ag5
ag5
ag5
ag5
ag5
ag5
ag5
asS'intr_574'
p1054
(lp1055
g5
ag5
ag5
ag5
ag5
ag5
ag5
ag5
ag5
ag5
ag5
ag5
ag5
asS'intr_575'
p1056
(lp1057
g5
ag5
ag5
ag5
ag5
ag5
ag5
ag5
ag5
ag5
ag5
ag5
ag5
asS'intr_572'
p1058
(lp1059
g5
ag5
ag5
ag5
ag5
ag5
ag5
ag5
ag5
ag5
ag5
ag5
ag5
asS'intr_573'
p1060
(lp1061
g5
ag5
ag5
ag5
ag5
ag5
ag5
ag5
ag5
ag5
ag5
ag5
ag5
asS'intr_479'
p1062
(lp1063
g5
ag5
ag5
ag5
ag5
ag5
ag5
ag5
ag5
ag5
ag5
ag5
ag5
asS'intr_478'
p1064
(lp1065
g5
ag5
ag5
ag5
ag5
ag5
ag5
ag5
ag5
ag5
ag5
ag5
ag5
asS'intr_45'
p1066
(lp1067
g5
ag5
ag5
ag5
ag5
ag5
ag5
ag5
ag5
ag5
ag5
ag5
ag5
asS'intr_44'
p1068
(lp1069
g5
ag5
ag5
ag5
ag5
ag5
ag5
ag5
ag5
ag5
ag5
ag5
ag5
asS'intr_47'
p1070
(lp1071
g5
ag5
ag5
ag5
ag5
ag5
ag5
ag5
ag5
ag5
ag5
ag5
ag5
asS'intr_46'
p1072
(lp1073
g5
ag5
ag5
ag5
ag5
ag5
ag5
ag5
ag5
ag5
ag5
ag5
ag5
asS'intr_41'
p1074
(lp1075
g5
ag5
ag5
ag5
ag5
ag5
ag5
ag5
ag5
ag5
ag5
ag5
ag5
asS'intr_40'
p1076
(lp1077
g5
ag5
ag5
ag5
ag5
ag5
ag5
ag5
ag5
ag5
ag5
ag5
ag5
asS'intr_43'
p1078
(lp1079
g5
ag5
ag5
ag5
ag5
ag5
ag5
ag5
ag5
ag5
ag5
ag5
ag5
asS'intr_42'
p1080
(lp1081
g5
ag5
ag5
ag5
ag5
ag5
ag5
ag5
ag5
ag5
ag5
ag5
ag5
asS'intr_49'
p1082
(lp1083
g5
ag5
ag5
ag5
ag5
ag5
ag5
ag5
ag5
ag5
ag5
ag5
ag5
asS'intr_48'
p1084
(lp1085
g5
ag5
ag5
ag5
ag5
ag5
ag5
ag5
ag5
ag5
ag5
ag5
ag5
asS'cpu0_5'
p1086
(lp1087
S'53980'
p1088
aS'53998'
p1089
aS'53998'
p1090
aS'53998'
p1091
aS'53998'
p1092
aS'53998'
p1093
aS'53998'
p1094
aS'53998'
p1095
aS'53998'
p1096
aS'53998'
p1097
aS'53998'
p1098
aS'53998'
p1099
aS'53998'
p1100
asS'cpu0_4'
p1101
(lp1102
S'7995153'
p1103
aS'7995154'
p1104
aS'7995154'
p1105
aS'7995154'
p1106
aS'7995154'
p1107
aS'7995154'
p1108
aS'7995154'
p1109
aS'7995154'
p1110
aS'7995154'
p1111
aS'7995154'
p1112
aS'7995154'
p1113
aS'7995154'
p1114
aS'7995154'
p1115
asS'cpu0_7'
p1116
(lp1117
S'15235'
p1118
aS'15235'
p1119
aS'15235'
p1120
aS'15235'
p1121
aS'15235'
p1122
aS'15235'
p1123
aS'15235'
p1124
aS'15235'
p1125
aS'15235'
p1126
aS'15235'
p1127
aS'15235'
p1128
aS'15235'
p1129
aS'15235'
p1130
asS'cpu0_6'
p1131
(lp1132
g5
ag5
ag5
ag5
ag5
ag5
ag5
ag5
ag5
ag5
ag5
ag5
ag5
asS'cpu0_1'
p1133
(lp1134
S'154996'
p1135
aS'155062'
p1136
aS'155152'
p1137
aS'155235'
p1138
aS'155326'
p1139
aS'155418'
p1140
aS'155505'
p1141
aS'155589'
p1142
aS'155685'
p1143
aS'155762'
p1144
aS'155859'
p1145
aS'155947'
p1146
aS'156047'
p1147
asS'cpu0_3'
p1148
(lp1149
S'38654'
p1150
aS'38670'
p1151
aS'38682'
p1152
aS'38698'
p1153
aS'38707'
p1154
aS'38715'
p1155
aS'38729'
p1156
aS'38746'
p1157
aS'38750'
p1158
aS'38773'
p1159
aS'38776'
p1160
aS'38788'
p1161
aS'38788'
p1162
asS'cpu0_2'
p1163
(lp1164
S'1964'
p1165
aS'1964'
p1166
aS'1964'
p1167
aS'1964'
p1168
aS'1964'
p1169
aS'1964'
p1170
aS'1964'
p1171
aS'1964'
p1172
aS'1964'
p1173
aS'1964'
p1174
aS'1964'
p1175
aS'1964'
p1176
aS'1964'
p1177
asS'cpu0_9'
p1178
(lp1179
g5
ag5
ag5
ag5
ag5
ag5
ag5
ag5
ag5
ag5
ag5
ag5
ag5
asS'cpu0_8'
p1180
(lp1181
g5
ag5
ag5
ag5
ag5
ag5
ag5
ag5
ag5
ag5
ag5
ag5
ag5
asS'intr_751'
p1182
(lp1183
g5
ag5
ag5
ag5
ag5
ag5
ag5
ag5
ag5
ag5
ag5
ag5
ag5
asS'procs_running_1'
p1184
(lp1185
S'1'
p1186
ag879
ag879
ag879
ag879
ag879
ag879
ag879
ag879
ag879
ag879
ag879
ag879
asS'intr_420'
p1187
(lp1188
g5
ag5
ag5
ag5
ag5
ag5
ag5
ag5
ag5
ag5
ag5
ag5
ag5
asS'intr_279'
p1189
(lp1190
g5
ag5
ag5
ag5
ag5
ag5
ag5
ag5
ag5
ag5
ag5
ag5
ag5
asS'intr_278'
p1191
(lp1192
g5
ag5
ag5
ag5
ag5
ag5
ag5
ag5
ag5
ag5
ag5
ag5
ag5
asS'intr_421'
p1193
(lp1194
g5
ag5
ag5
ag5
ag5
ag5
ag5
ag5
ag5
ag5
ag5
ag5
ag5
asS'intr_275'
p1195
(lp1196
g5
ag5
ag5
ag5
ag5
ag5
ag5
ag5
ag5
ag5
ag5
ag5
ag5
asS'intr_274'
p1197
(lp1198
g5
ag5
ag5
ag5
ag5
ag5
ag5
ag5
ag5
ag5
ag5
ag5
ag5
asS'intr_277'
p1199
(lp1200
g5
ag5
ag5
ag5
ag5
ag5
ag5
ag5
ag5
ag5
ag5
ag5
ag5
asS'intr_276'
p1201
(lp1202
g5
ag5
ag5
ag5
ag5
ag5
ag5
ag5
ag5
ag5
ag5
ag5
ag5
asS'intr_271'
p1203
(lp1204
g5
ag5
ag5
ag5
ag5
ag5
ag5
ag5
ag5
ag5
ag5
ag5
ag5
asS'intr_270'
p1205
(lp1206
g5
ag5
ag5
ag5
ag5
ag5
ag5
ag5
ag5
ag5
ag5
ag5
ag5
asS'intr_273'
p1207
(lp1208
g5
ag5
ag5
ag5
ag5
ag5
ag5
ag5
ag5
ag5
ag5
ag5
ag5
asS'intr_272'
p1209
(lp1210
g5
ag5
ag5
ag5
ag5
ag5
ag5
ag5
ag5
ag5
ag5
ag5
ag5
asS'intr_374'
p1211
(lp1212
g5
ag5
ag5
ag5
ag5
ag5
ag5
ag5
ag5
ag5
ag5
ag5
ag5
asS'intr_375'
p1213
(lp1214
g5
ag5
ag5
ag5
ag5
ag5
ag5
ag5
ag5
ag5
ag5
ag5
ag5
asS'intr_376'
p1215
(lp1216
g5
ag5
ag5
ag5
ag5
ag5
ag5
ag5
ag5
ag5
ag5
ag5
ag5
asS'intr_351'
p1217
(lp1218
g5
ag5
ag5
ag5
ag5
ag5
ag5
ag5
ag5
ag5
ag5
ag5
ag5
asS'intr_370'
p1219
(lp1220
g5
ag5
ag5
ag5
ag5
ag5
ag5
ag5
ag5
ag5
ag5
ag5
ag5
asS'intr_371'
p1221
(lp1222
g5
ag5
ag5
ag5
ag5
ag5
ag5
ag5
ag5
ag5
ag5
ag5
ag5
asS'intr_372'
p1223
(lp1224
g5
ag5
ag5
ag5
ag5
ag5
ag5
ag5
ag5
ag5
ag5
ag5
ag5
asS'intr_373'
p1225
(lp1226
g5
ag5
ag5
ag5
ag5
ag5
ag5
ag5
ag5
ag5
ag5
ag5
ag5
asS'intr_424'
p1227
(lp1228
g5
ag5
ag5
ag5
ag5
ag5
ag5
ag5
ag5
ag5
ag5
ag5
ag5
asS'intr_728'
p1229
(lp1230
g5
ag5
ag5
ag5
ag5
ag5
ag5
ag5
ag5
ag5
ag5
ag5
ag5
asS'intr_378'
p1231
(lp1232
g5
ag5
ag5
ag5
ag5
ag5
ag5
ag5
ag5
ag5
ag5
ag5
ag5
asS'intr_379'
p1233
(lp1234
g5
ag5
ag5
ag5
ag5
ag5
ag5
ag5
ag5
ag5
ag5
ag5
ag5
asS'intr_425'
p1235
(lp1236
g5
ag5
ag5
ag5
ag5
ag5
ag5
ag5
ag5
ag5
ag5
ag5
ag5
asS'intr_426'
p1237
(lp1238
g5
ag5
ag5
ag5
ag5
ag5
ag5
ag5
ag5
ag5
ag5
ag5
ag5
asS'intr_726'
p1239
(lp1240
g5
ag5
ag5
ag5
ag5
ag5
ag5
ag5
ag5
ag5
ag5
ag5
ag5
asS'intr_427'
p1241
(lp1242
g5
ag5
ag5
ag5
ag5
ag5
ag5
ag5
ag5
ag5
ag5
ag5
ag5
asS'procs_blocked_1'
p1243
(lp1244
g1186
ag5
ag5
ag5
ag5
ag5
ag5
ag5
ag5
ag5
ag5
ag5
ag5
asS'intr_358'
p1245
(lp1246
g5
ag5
ag5
ag5
ag5
ag5
ag5
ag5
ag5
ag5
ag5
ag5
ag5
asS'intr_720'
p1247
(lp1248
g5
ag5
ag5
ag5
ag5
ag5
ag5
ag5
ag5
ag5
ag5
ag5
ag5
asS'intr_208'
p1249
(lp1250
g5
ag5
ag5
ag5
ag5
ag5
ag5
ag5
ag5
ag5
ag5
ag5
ag5
asS'intr_209'
p1251
(lp1252
g5
ag5
ag5
ag5
ag5
ag5
ag5
ag5
ag5
ag5
ag5
ag5
ag5
asS'intr_559'
p1253
(lp1254
g5
ag5
ag5
ag5
ag5
ag5
ag5
ag5
ag5
ag5
ag5
ag5
ag5
asS'intr_200'
p1255
(lp1256
g5
ag5
ag5
ag5
ag5
ag5
ag5
ag5
ag5
ag5
ag5
ag5
ag5
asS'intr_201'
p1257
(lp1258
g5
ag5
ag5
ag5
ag5
ag5
ag5
ag5
ag5
ag5
ag5
ag5
ag5
asS'intr_202'
p1259
(lp1260
g5
ag5
ag5
ag5
ag5
ag5
ag5
ag5
ag5
ag5
ag5
ag5
ag5
asS'intr_203'
p1261
(lp1262
g5
ag5
ag5
ag5
ag5
ag5
ag5
ag5
ag5
ag5
ag5
ag5
ag5
asS'intr_204'
p1263
(lp1264
g5
ag5
ag5
ag5
ag5
ag5
ag5
ag5
ag5
ag5
ag5
ag5
ag5
asS'intr_205'
p1265
(lp1266
g5
ag5
ag5
ag5
ag5
ag5
ag5
ag5
ag5
ag5
ag5
ag5
ag5
asS'intr_206'
p1267
(lp1268
g5
ag5
ag5
ag5
ag5
ag5
ag5
ag5
ag5
ag5
ag5
ag5
ag5
asS'intr_207'
p1269
(lp1270
g5
ag5
ag5
ag5
ag5
ag5
ag5
ag5
ag5
ag5
ag5
ag5
ag5
asS'intr_359'
p1271
(lp1272
g5
ag5
ag5
ag5
ag5
ag5
ag5
ag5
ag5
ag5
ag5
ag5
ag5
asS'intr_619'
p1273
(lp1274
g5
ag5
ag5
ag5
ag5
ag5
ag5
ag5
ag5
ag5
ag5
ag5
ag5
asS'intr_618'
p1275
(lp1276
g5
ag5
ag5
ag5
ag5
ag5
ag5
ag5
ag5
ag5
ag5
ag5
ag5
asS'intr_617'
p1277
(lp1278
g5
ag5
ag5
ag5
ag5
ag5
ag5
ag5
ag5
ag5
ag5
ag5
ag5
asS'intr_616'
p1279
(lp1280
g5
ag5
ag5
ag5
ag5
ag5
ag5
ag5
ag5
ag5
ag5
ag5
ag5
asS'intr_615'
p1281
(lp1282
g5
ag5
ag5
ag5
ag5
ag5
ag5
ag5
ag5
ag5
ag5
ag5
ag5
asS'intr_614'
p1283
(lp1284
g5
ag5
ag5
ag5
ag5
ag5
ag5
ag5
ag5
ag5
ag5
ag5
ag5
asS'intr_613'
p1285
(lp1286
g5
ag5
ag5
ag5
ag5
ag5
ag5
ag5
ag5
ag5
ag5
ag5
ag5
asS'intr_612'
p1287
(lp1288
g5
ag5
ag5
ag5
ag5
ag5
ag5
ag5
ag5
ag5
ag5
ag5
ag5
asS'intr_611'
p1289
(lp1290
g5
ag5
ag5
ag5
ag5
ag5
ag5
ag5
ag5
ag5
ag5
ag5
ag5
asS'intr_610'
p1291
(lp1292
g5
ag5
ag5
ag5
ag5
ag5
ag5
ag5
ag5
ag5
ag5
ag5
ag5
asS'intr_756'
p1293
(lp1294
g5
ag5
ag5
ag5
ag5
ag5
ag5
ag5
ag5
ag5
ag5
ag5
ag5
asS'intr_550'
p1295
(lp1296
g5
ag5
ag5
ag5
ag5
ag5
ag5
ag5
ag5
ag5
ag5
ag5
ag5
asS'intr_754'
p1297
(lp1298
g5
ag5
ag5
ag5
ag5
ag5
ag5
ag5
ag5
ag5
ag5
ag5
ag5
asS'intr_755'
p1299
(lp1300
g5
ag5
ag5
ag5
ag5
ag5
ag5
ag5
ag5
ag5
ag5
ag5
ag5
asS'intr_752'
p1301
(lp1302
g5
ag5
ag5
ag5
ag5
ag5
ag5
ag5
ag5
ag5
ag5
ag5
ag5
asS'intr_753'
p1303
(lp1304
g5
ag5
ag5
ag5
ag5
ag5
ag5
ag5
ag5
ag5
ag5
ag5
ag5
asS'intr_750'
p1305
(lp1306
g5
ag5
ag5
ag5
ag5
ag5
ag5
ag5
ag5
ag5
ag5
ag5
ag5
asS'intr_551'
p1307
(lp1308
g5
ag5
ag5
ag5
ag5
ag5
ag5
ag5
ag5
ag5
ag5
ag5
ag5
asS'intr_758'
p1309
(lp1310
g5
ag5
ag5
ag5
ag5
ag5
ag5
ag5
ag5
ag5
ag5
ag5
ag5
asS'intr_759'
p1311
(lp1312
g5
ag5
ag5
ag5
ag5
ag5
ag5
ag5
ag5
ag5
ag5
ag5
ag5
asS'intr_538'
p1313
(lp1314
g5
ag5
ag5
ag5
ag5
ag5
ag5
ag5
ag5
ag5
ag5
ag5
ag5
asS'intr_539'
p1315
(lp1316
g5
ag5
ag5
ag5
ag5
ag5
ag5
ag5
ag5
ag5
ag5
ag5
ag5
asS'intr_532'
p1317
(lp1318
g5
ag5
ag5
ag5
ag5
ag5
ag5
ag5
ag5
ag5
ag5
ag5
ag5
asS'intr_533'
p1319
(lp1320
g5
ag5
ag5
ag5
ag5
ag5
ag5
ag5
ag5
ag5
ag5
ag5
ag5
asS'intr_530'
p1321
(lp1322
g5
ag5
ag5
ag5
ag5
ag5
ag5
ag5
ag5
ag5
ag5
ag5
ag5
asS'intr_531'
p1323
(lp1324
g5
ag5
ag5
ag5
ag5
ag5
ag5
ag5
ag5
ag5
ag5
ag5
ag5
asS'intr_536'
p1325
(lp1326
g5
ag5
ag5
ag5
ag5
ag5
ag5
ag5
ag5
ag5
ag5
ag5
ag5
asS'intr_537'
p1327
(lp1328
g5
ag5
ag5
ag5
ag5
ag5
ag5
ag5
ag5
ag5
ag5
ag5
ag5
asS'intr_534'
p1329
(lp1330
g5
ag5
ag5
ag5
ag5
ag5
ag5
ag5
ag5
ag5
ag5
ag5
ag5
asS'intr_535'
p1331
(lp1332
g5
ag5
ag5
ag5
ag5
ag5
ag5
ag5
ag5
ag5
ag5
ag5
ag5
asS'intr_103'
p1333
(lp1334
g5
ag5
ag5
ag5
ag5
ag5
ag5
ag5
ag5
ag5
ag5
ag5
ag5
asS'intr_102'
p1335
(lp1336
g5
ag5
ag5
ag5
ag5
ag5
ag5
ag5
ag5
ag5
ag5
ag5
ag5
asS'intr_101'
p1337
(lp1338
g5
ag5
ag5
ag5
ag5
ag5
ag5
ag5
ag5
ag5
ag5
ag5
ag5
asS'intr_100'
p1339
(lp1340
g5
ag5
ag5
ag5
ag5
ag5
ag5
ag5
ag5
ag5
ag5
ag5
ag5
asS'intr_107'
p1341
(lp1342
g5
ag5
ag5
ag5
ag5
ag5
ag5
ag5
ag5
ag5
ag5
ag5
ag5
asS'intr_106'
p1343
(lp1344
g5
ag5
ag5
ag5
ag5
ag5
ag5
ag5
ag5
ag5
ag5
ag5
ag5
asS'intr_105'
p1345
(lp1346
g5
ag5
ag5
ag5
ag5
ag5
ag5
ag5
ag5
ag5
ag5
ag5
ag5
asS'intr_104'
p1347
(lp1348
g5
ag5
ag5
ag5
ag5
ag5
ag5
ag5
ag5
ag5
ag5
ag5
ag5
asS'intr_109'
p1349
(lp1350
g5
ag5
ag5
ag5
ag5
ag5
ag5
ag5
ag5
ag5
ag5
ag5
ag5
asS'intr_108'
p1351
(lp1352
g5
ag5
ag5
ag5
ag5
ag5
ag5
ag5
ag5
ag5
ag5
ag5
ag5
asS'intr_89'
p1353
(lp1354
g5
ag5
ag5
ag5
ag5
ag5
ag5
ag5
ag5
ag5
ag5
ag5
ag5
asS'intr_88'
p1355
(lp1356
g5
ag5
ag5
ag5
ag5
ag5
ag5
ag5
ag5
ag5
ag5
ag5
ag5
asS'intr_81'
p1357
(lp1358
g5
ag5
ag5
ag5
ag5
ag5
ag5
ag5
ag5
ag5
ag5
ag5
ag5
asS'intr_80'
p1359
(lp1360
g5
ag5
ag5
ag5
ag5
ag5
ag5
ag5
ag5
ag5
ag5
ag5
ag5
asS'intr_83'
p1361
(lp1362
g5
ag5
ag5
ag5
ag5
ag5
ag5
ag5
ag5
ag5
ag5
ag5
ag5
asS'intr_82'
p1363
(lp1364
g5
ag5
ag5
ag5
ag5
ag5
ag5
ag5
ag5
ag5
ag5
ag5
ag5
asS'intr_85'
p1365
(lp1366
g5
ag5
ag5
ag5
ag5
ag5
ag5
ag5
ag5
ag5
ag5
ag5
ag5
asS'intr_84'
p1367
(lp1368
g5
ag5
ag5
ag5
ag5
ag5
ag5
ag5
ag5
ag5
ag5
ag5
ag5
asS'intr_87'
p1369
(lp1370
g5
ag5
ag5
ag5
ag5
ag5
ag5
ag5
ag5
ag5
ag5
ag5
ag5
asS'intr_86'
p1371
(lp1372
g5
ag5
ag5
ag5
ag5
ag5
ag5
ag5
ag5
ag5
ag5
ag5
ag5
asS'intr_562'
p1373
(lp1374
g5
ag5
ag5
ag5
ag5
ag5
ag5
ag5
ag5
ag5
ag5
ag5
ag5
asS'intr_589'
p1375
(lp1376
g5
ag5
ag5
ag5
ag5
ag5
ag5
ag5
ag5
ag5
ag5
ag5
ag5
asS'intr_588'
p1377
(lp1378
g5
ag5
ag5
ag5
ag5
ag5
ag5
ag5
ag5
ag5
ag5
ag5
ag5
asS'intr_587'
p1379
(lp1380
g5
ag5
ag5
ag5
ag5
ag5
ag5
ag5
ag5
ag5
ag5
ag5
ag5
asS'intr_586'
p1381
(lp1382
g5
ag5
ag5
ag5
ag5
ag5
ag5
ag5
ag5
ag5
ag5
ag5
ag5
asS'intr_585'
p1383
(lp1384
g5
ag5
ag5
ag5
ag5
ag5
ag5
ag5
ag5
ag5
ag5
ag5
ag5
asS'intr_584'
p1385
(lp1386
g5
ag5
ag5
ag5
ag5
ag5
ag5
ag5
ag5
ag5
ag5
ag5
ag5
asS'intr_583'
p1387
(lp1388
g5
ag5
ag5
ag5
ag5
ag5
ag5
ag5
ag5
ag5
ag5
ag5
ag5
asS'intr_582'
p1389
(lp1390
g5
ag5
ag5
ag5
ag5
ag5
ag5
ag5
ag5
ag5
ag5
ag5
ag5
asS'intr_581'
p1391
(lp1392
g5
ag5
ag5
ag5
ag5
ag5
ag5
ag5
ag5
ag5
ag5
ag5
ag5
asS'intr_580'
p1393
(lp1394
g5
ag5
ag5
ag5
ag5
ag5
ag5
ag5
ag5
ag5
ag5
ag5
ag5
asS'intr_569'
p1395
(lp1396
g5
ag5
ag5
ag5
ag5
ag5
ag5
ag5
ag5
ag5
ag5
ag5
ag5
asS'intr_408'
p1397
(lp1398
g5
ag5
ag5
ag5
ag5
ag5
ag5
ag5
ag5
ag5
ag5
ag5
ag5
asS'intr_409'
p1399
(lp1400
g5
ag5
ag5
ag5
ag5
ag5
ag5
ag5
ag5
ag5
ag5
ag5
ag5
asS'intr_406'
p1401
(lp1402
g5
ag5
ag5
ag5
ag5
ag5
ag5
ag5
ag5
ag5
ag5
ag5
ag5
asS'intr_407'
p1403
(lp1404
g5
ag5
ag5
ag5
ag5
ag5
ag5
ag5
ag5
ag5
ag5
ag5
ag5
asS'intr_404'
p1405
(lp1406
g5
ag5
ag5
ag5
ag5
ag5
ag5
ag5
ag5
ag5
ag5
ag5
ag5
asS'intr_405'
p1407
(lp1408
g5
ag5
ag5
ag5
ag5
ag5
ag5
ag5
ag5
ag5
ag5
ag5
ag5
asS'intr_402'
p1409
(lp1410
g5
ag5
ag5
ag5
ag5
ag5
ag5
ag5
ag5
ag5
ag5
ag5
ag5
asS'intr_403'
p1411
(lp1412
g5
ag5
ag5
ag5
ag5
ag5
ag5
ag5
ag5
ag5
ag5
ag5
ag5
asS'intr_400'
p1413
(lp1414
g5
ag5
ag5
ag5
ag5
ag5
ag5
ag5
ag5
ag5
ag5
ag5
ag5
asS'intr_401'
p1415
(lp1416
g5
ag5
ag5
ag5
ag5
ag5
ag5
ag5
ag5
ag5
ag5
ag5
ag5
asS'intr_803'
p1417
(lp1418
g5
ag5
ag5
ag5
ag5
ag5
ag5
ag5
ag5
ag5
ag5
ag5
ag5
asS'intr_18'
p1419
(lp1420
S'344728'
p1421
aS'344761'
p1422
aS'344761'
p1423
aS'344762'
p1424
aS'344762'
p1425
aS'344766'
p1426
aS'344766'
p1427
aS'344766'
p1428
aS'344777'
p1429
aS'344777'
p1430
aS'344777'
p1431
aS'344777'
p1432
aS'344778'
p1433
asS'intr_19'
p1434
(lp1435
S'1974'
p1436
aS'1974'
p1437
aS'1974'
p1438
aS'1974'
p1439
aS'1974'
p1440
aS'1974'
p1441
aS'1974'
p1442
aS'1974'
p1443
aS'1974'
p1444
aS'1974'
p1445
aS'1974'
p1446
aS'1974'
p1447
aS'1974'
p1448
asS'intr_16'
p1449
(lp1450
S'53'
p1451
aS'53'
p1452
aS'53'
p1453
aS'53'
p1454
aS'53'
p1455
aS'53'
p1456
aS'53'
p1457
aS'53'
p1458
aS'53'
p1459
aS'53'
p1460
aS'53'
p1461
aS'53'
p1462
aS'53'
p1463
asS'intr_17'
p1464
(lp1465
g5
ag5
ag5
ag5
ag5
ag5
ag5
ag5
ag5
ag5
ag5
ag5
ag5
asS'intr_14'
p1466
(lp1467
S'246'
p1468
aS'246'
p1469
aS'246'
p1470
aS'246'
p1471
aS'246'
p1472
aS'246'
p1473
aS'246'
p1474
aS'246'
p1475
aS'246'
p1476
aS'246'
p1477
aS'246'
p1478
aS'246'
p1479
aS'246'
p1480
asS'intr_15'
p1481
(lp1482
g5
ag5
ag5
ag5
ag5
ag5
ag5
ag5
ag5
ag5
ag5
ag5
ag5
asS'intr_12'
p1483
(lp1484
g5
ag5
ag5
ag5
ag5
ag5
ag5
ag5
ag5
ag5
ag5
ag5
ag5
asS'intr_13'
p1485
(lp1486
g5
ag5
ag5
ag5
ag5
ag5
ag5
ag5
ag5
ag5
ag5
ag5
ag5
asS'intr_10'
p1487
(lp1488
g5
ag5
ag5
ag5
ag5
ag5
ag5
ag5
ag5
ag5
ag5
ag5
ag5
asS'intr_11'
p1489
(lp1490
S'483509'
p1491
aS'483509'
p1492
aS'483509'
p1493
aS'483509'
p1494
aS'483509'
p1495
aS'483509'
p1496
aS'483509'
p1497
aS'483509'
p1498
aS'483509'
p1499
aS'483509'
p1500
aS'483509'
p1501
aS'483509'
p1502
aS'483509'
p1503
asS'intr_350'
p1504
(lp1505
g5
ag5
ag5
ag5
ag5
ag5
ag5
ag5
ag5
ag5
ag5
ag5
ag5
asS'intr_805'
p1506
(lp1507
g5
ag5
ag5
ag5
ag5
ag5
ag5
ag5
ag5
ag5
ag5
ag5
ag5
asS'intr_244'
p1508
(lp1509
g5
ag5
ag5
ag5
ag5
ag5
ag5
ag5
ag5
ag5
ag5
ag5
ag5
asS'intr_245'
p1510
(lp1511
g5
ag5
ag5
ag5
ag5
ag5
ag5
ag5
ag5
ag5
ag5
ag5
ag5
asS'intr_246'
p1512
(lp1513
g5
ag5
ag5
ag5
ag5
ag5
ag5
ag5
ag5
ag5
ag5
ag5
ag5
asS'intr_247'
p1514
(lp1515
g5
ag5
ag5
ag5
ag5
ag5
ag5
ag5
ag5
ag5
ag5
ag5
ag5
asS'intr_240'
p1516
(lp1517
g5
ag5
ag5
ag5
ag5
ag5
ag5
ag5
ag5
ag5
ag5
ag5
ag5
asS'intr_241'
p1518
(lp1519
g5
ag5
ag5
ag5
ag5
ag5
ag5
ag5
ag5
ag5
ag5
ag5
ag5
asS'intr_242'
p1520
(lp1521
g5
ag5
ag5
ag5
ag5
ag5
ag5
ag5
ag5
ag5
ag5
ag5
ag5
asS'intr_243'
p1522
(lp1523
g5
ag5
ag5
ag5
ag5
ag5
ag5
ag5
ag5
ag5
ag5
ag5
ag5
asS'intr_323'
p1524
(lp1525
g5
ag5
ag5
ag5
ag5
ag5
ag5
ag5
ag5
ag5
ag5
ag5
ag5
asS'intr_322'
p1526
(lp1527
g5
ag5
ag5
ag5
ag5
ag5
ag5
ag5
ag5
ag5
ag5
ag5
ag5
asS'intr_321'
p1528
(lp1529
g5
ag5
ag5
ag5
ag5
ag5
ag5
ag5
ag5
ag5
ag5
ag5
ag5
asS'intr_320'
p1530
(lp1531
g5
ag5
ag5
ag5
ag5
ag5
ag5
ag5
ag5
ag5
ag5
ag5
ag5
asS'intr_248'
p1532
(lp1533
g5
ag5
ag5
ag5
ag5
ag5
ag5
ag5
ag5
ag5
ag5
ag5
ag5
asS'intr_249'
p1534
(lp1535
g5
ag5
ag5
ag5
ag5
ag5
ag5
ag5
ag5
ag5
ag5
ag5
ag5
asS'intr_325'
p1536
(lp1537
g5
ag5
ag5
ag5
ag5
ag5
ag5
ag5
ag5
ag5
ag5
ag5
ag5
asS'intr_324'
p1538
(lp1539
g5
ag5
ag5
ag5
ag5
ag5
ag5
ag5
ag5
ag5
ag5
ag5
ag5
asS'intr_712'
p1540
(lp1541
g5
ag5
ag5
ag5
ag5
ag5
ag5
ag5
ag5
ag5
ag5
ag5
ag5
asS'intr_713'
p1542
(lp1543
g5
ag5
ag5
ag5
ag5
ag5
ag5
ag5
ag5
ag5
ag5
ag5
ag5
asS'intr_710'
p1544
(lp1545
g5
ag5
ag5
ag5
ag5
ag5
ag5
ag5
ag5
ag5
ag5
ag5
ag5
asS'intr_711'
p1546
(lp1547
g5
ag5
ag5
ag5
ag5
ag5
ag5
ag5
ag5
ag5
ag5
ag5
ag5
asS'intr_716'
p1548
(lp1549
g5
ag5
ag5
ag5
ag5
ag5
ag5
ag5
ag5
ag5
ag5
ag5
ag5
asS'intr_717'
p1550
(lp1551
g5
ag5
ag5
ag5
ag5
ag5
ag5
ag5
ag5
ag5
ag5
ag5
ag5
asS'intr_714'
p1552
(lp1553
g5
ag5
ag5
ag5
ag5
ag5
ag5
ag5
ag5
ag5
ag5
ag5
ag5
asS'intr_715'
p1554
(lp1555
g5
ag5
ag5
ag5
ag5
ag5
ag5
ag5
ag5
ag5
ag5
ag5
ag5
asS'intr_718'
p1556
(lp1557
g5
ag5
ag5
ag5
ag5
ag5
ag5
ag5
ag5
ag5
ag5
ag5
ag5
asS'intr_719'
p1558
(lp1559
g5
ag5
ag5
ag5
ag5
ag5
ag5
ag5
ag5
ag5
ag5
ag5
ag5
asS'intr_4'
p1560
(lp1561
g5
ag5
ag5
ag5
ag5
ag5
ag5
ag5
ag5
ag5
ag5
ag5
ag5
asS'intr_5'
p1562
(lp1563
g5
ag5
ag5
ag5
ag5
ag5
ag5
ag5
ag5
ag5
ag5
ag5
ag5
asS'intr_6'
p1564
(lp1565
g5
ag5
ag5
ag5
ag5
ag5
ag5
ag5
ag5
ag5
ag5
ag5
ag5
asS'intr_7'
p1566
(lp1567
g5
ag5
ag5
ag5
ag5
ag5
ag5
ag5
ag5
ag5
ag5
ag5
ag5
asS'cpu1_8'
p1568
(lp1569
g5
ag5
ag5
ag5
ag5
ag5
ag5
ag5
ag5
ag5
ag5
ag5
ag5
asS'intr_1'
p1570
(lp1571
S'7141554'
p1572
aS'7141823'
p1573
aS'7142082'
p1574
aS'7142343'
p1575
aS'7142610'
p1576
aS'7142882'
p1577
aS'7143140'
p1578
aS'7143398'
p1579
aS'7143670'
p1580
aS'7143930'
p1581
aS'7144190'
p1582
aS'7144455'
p1583
aS'7144715'
p1584
asS'intr_2'
p1585
(lp1586
S'106'
p1587
aS'106'
p1588
aS'106'
p1589
aS'106'
p1590
aS'106'
p1591
aS'106'
p1592
aS'106'
p1593
aS'106'
p1594
aS'106'
p1595
aS'106'
p1596
aS'106'
p1597
aS'106'
p1598
aS'106'
p1599
asS'intr_3'
p1600
(lp1601
S'32'
p1602
aS'32'
p1603
aS'32'
p1604
aS'32'
p1605
aS'32'
p1606
aS'32'
p1607
aS'32'
p1608
aS'32'
p1609
aS'32'
p1610
aS'32'
p1611
aS'32'
p1612
aS'32'
p1613
aS'32'
p1614
asS'cpu1_4'
p1615
(lp1616
S'8073675'
p1617
aS'8073775'
p1618
aS'8073875'
p1619
aS'8073975'
p1620
aS'8074075'
p1621
aS'8074171'
p1622
aS'8074271'
p1623
aS'8074371'
p1624
aS'8074471'
p1625
aS'8074571'
p1626
aS'8074671'
p1627
aS'8074771'
p1628
aS'8074871'
p1629
asS'cpu1_5'
p1630
(lp1631
S'10370'
p1632
aS'10370'
p1633
aS'10370'
p1634
aS'10370'
p1635
aS'10370'
p1636
aS'10375'
p1637
aS'10375'
p1638
aS'10375'
p1639
aS'10375'
p1640
aS'10375'
p1641
aS'10375'
p1642
aS'10375'
p1643
aS'10375'
p1644
asS'cpu1_6'
p1645
(lp1646
g5
ag5
ag5
ag5
ag5
ag5
ag5
ag5
ag5
ag5
ag5
ag5
ag5
asS'cpu1_7'
p1647
(lp1648
S'2791'
p1649
aS'2791'
p1650
aS'2791'
p1651
aS'2791'
p1652
aS'2791'
p1653
aS'2791'
p1654
aS'2791'
p1655
aS'2791'
p1656
aS'2791'
p1657
aS'2791'
p1658
aS'2791'
p1659
aS'2791'
p1660
aS'2791'
p1661
asS'intr_143'
p1662
(lp1663
g5
ag5
ag5
ag5
ag5
ag5
ag5
ag5
ag5
ag5
ag5
ag5
ag5
asS'intr_9'
p1664
(lp1665
g5
ag5
ag5
ag5
ag5
ag5
ag5
ag5
ag5
ag5
ag5
ag5
ag5
asS'cpu1_2'
p1666
(lp1667
S'3770'
p1668
aS'3770'
p1669
aS'3770'
p1670
aS'3770'
p1671
aS'3770'
p1672
aS'3770'
p1673
aS'3770'
p1674
aS'3770'
p1675
aS'3770'
p1676
aS'3770'
p1677
aS'3770'
p1678
aS'3770'
p1679
aS'3770'
p1680
asS'cpu1_3'
p1681
(lp1682
S'25804'
p1683
aS'25804'
p1684
aS'25804'
p1685
aS'25804'
p1686
aS'25804'
p1687
aS'25804'
p1688
aS'25804'
p1689
aS'25804'
p1690
aS'25804'
p1691
aS'25804'
p1692
aS'25804'
p1693
aS'25804'
p1694
aS'25804'
p1695
asS'intr_666'
p1696
(lp1697
g5
ag5
ag5
ag5
ag5
ag5
ag5
ag5
ag5
ag5
ag5
ag5
ag5
asS'intr_667'
p1698
(lp1699
g5
ag5
ag5
ag5
ag5
ag5
ag5
ag5
ag5
ag5
ag5
ag5
ag5
asS'intr_664'
p1700
(lp1701
g5
ag5
ag5
ag5
ag5
ag5
ag5
ag5
ag5
ag5
ag5
ag5
ag5
asS'intr_665'
p1702
(lp1703
g5
ag5
ag5
ag5
ag5
ag5
ag5
ag5
ag5
ag5
ag5
ag5
ag5
asS'intr_662'
p1704
(lp1705
g5
ag5
ag5
ag5
ag5
ag5
ag5
ag5
ag5
ag5
ag5
ag5
ag5
asS'intr_663'
p1706
(lp1707
g5
ag5
ag5
ag5
ag5
ag5
ag5
ag5
ag5
ag5
ag5
ag5
ag5
asS'intr_660'
p1708
(lp1709
g5
ag5
ag5
ag5
ag5
ag5
ag5
ag5
ag5
ag5
ag5
ag5
ag5
asS'intr_661'
p1710
(lp1711
g5
ag5
ag5
ag5
ag5
ag5
ag5
ag5
ag5
ag5
ag5
ag5
ag5
asS'intr_785'
p1712
(lp1713
g5
ag5
ag5
ag5
ag5
ag5
ag5
ag5
ag5
ag5
ag5
ag5
ag5
asS'intr_784'
p1714
(lp1715
g5
ag5
ag5
ag5
ag5
ag5
ag5
ag5
ag5
ag5
ag5
ag5
ag5
asS'intr_787'
p1716
(lp1717
g5
ag5
ag5
ag5
ag5
ag5
ag5
ag5
ag5
ag5
ag5
ag5
ag5
asS'intr_786'
p1718
(lp1719
g5
ag5
ag5
ag5
ag5
ag5
ag5
ag5
ag5
ag5
ag5
ag5
ag5
asS'intr_464'
p1720
(lp1721
g5
ag5
ag5
ag5
ag5
ag5
ag5
ag5
ag5
ag5
ag5
ag5
ag5
asS'intr_780'
p1722
(lp1723
g5
ag5
ag5
ag5
ag5
ag5
ag5
ag5
ag5
ag5
ag5
ag5
ag5
asS'intr_668'
p1724
(lp1725
g5
ag5
ag5
ag5
ag5
ag5
ag5
ag5
ag5
ag5
ag5
ag5
ag5
asS'intr_669'
p1726
(lp1727
g5
ag5
ag5
ag5
ag5
ag5
ag5
ag5
ag5
ag5
ag5
ag5
ag5
asS'intr_501'
p1728
(lp1729
g5
ag5
ag5
ag5
ag5
ag5
ag5
ag5
ag5
ag5
ag5
ag5
ag5
asS'intr_798'
p1730
(lp1731
g5
ag5
ag5
ag5
ag5
ag5
ag5
ag5
ag5
ag5
ag5
ag5
ag5
asS'intr_799'
p1732
(lp1733
g5
ag5
ag5
ag5
ag5
ag5
ag5
ag5
ag5
ag5
ag5
ag5
ag5
asS'intr_500'
p1734
(lp1735
g5
ag5
ag5
ag5
ag5
ag5
ag5
ag5
ag5
ag5
ag5
ag5
ag5
asS'intr_448'
p1736
(lp1737
g5
ag5
ag5
ag5
ag5
ag5
ag5
ag5
ag5
ag5
ag5
ag5
ag5
asS'intr_449'
p1738
(lp1739
g5
ag5
ag5
ag5
ag5
ag5
ag5
ag5
ag5
ag5
ag5
ag5
ag5
asS'intr_442'
p1740
(lp1741
g5
ag5
ag5
ag5
ag5
ag5
ag5
ag5
ag5
ag5
ag5
ag5
ag5
asS'intr_443'
p1742
(lp1743
g5
ag5
ag5
ag5
ag5
ag5
ag5
ag5
ag5
ag5
ag5
ag5
ag5
asS'intr_440'
p1744
(lp1745
g5
ag5
ag5
ag5
ag5
ag5
ag5
ag5
ag5
ag5
ag5
ag5
ag5
asS'intr_441'
p1746
(lp1747
g5
ag5
ag5
ag5
ag5
ag5
ag5
ag5
ag5
ag5
ag5
ag5
ag5
asS'intr_446'
p1748
(lp1749
g5
ag5
ag5
ag5
ag5
ag5
ag5
ag5
ag5
ag5
ag5
ag5
ag5
asS'intr_447'
p1750
(lp1751
g5
ag5
ag5
ag5
ag5
ag5
ag5
ag5
ag5
ag5
ag5
ag5
ag5
asS'intr_444'
p1752
(lp1753
g5
ag5
ag5
ag5
ag5
ag5
ag5
ag5
ag5
ag5
ag5
ag5
ag5
asS'intr_445'
p1754
(lp1755
g5
ag5
ag5
ag5
ag5
ag5
ag5
ag5
ag5
ag5
ag5
ag5
ag5
asS'intr_561'
p1756
(lp1757
g5
ag5
ag5
ag5
ag5
ag5
ag5
ag5
ag5
ag5
ag5
ag5
ag5
asS'intr_560'
p1758
(lp1759
g5
ag5
ag5
ag5
ag5
ag5
ag5
ag5
ag5
ag5
ag5
ag5
ag5
asS'cpu_8'
p1760
(lp1761
g5
ag5
ag5
ag5
ag5
ag5
ag5
ag5
ag5
ag5
ag5
ag5
ag5
asS'cpu_9'
p1762
(lp1763
g5
ag5
ag5
ag5
ag5
ag5
ag5
ag5
ag5
ag5
ag5
ag5
ag5
asS'intr_565'
p1764
(lp1765
g5
ag5
ag5
ag5
ag5
ag5
ag5
ag5
ag5
ag5
ag5
ag5
ag5
asS'intr_564'
p1766
(lp1767
g5
ag5
ag5
ag5
ag5
ag5
ag5
ag5
ag5
ag5
ag5
ag5
ag5
asS'intr_567'
p1768
(lp1769
g5
ag5
ag5
ag5
ag5
ag5
ag5
ag5
ag5
ag5
ag5
ag5
ag5
asS'intr_566'
p1770
(lp1771
g5
ag5
ag5
ag5
ag5
ag5
ag5
ag5
ag5
ag5
ag5
ag5
ag5
asS'cpu_2'
p1772
(lp1773
S'5734'
p1774
aS'5734'
p1775
aS'5734'
p1776
aS'5734'
p1777
aS'5734'
p1778
aS'5734'
p1779
aS'5734'
p1780
aS'5734'
p1781
aS'5734'
p1782
aS'5734'
p1783
aS'5734'
p1784
aS'5734'
p1785
aS'5734'
p1786
asS'cpu_3'
p1787
(lp1788
S'64458'
p1789
aS'64474'
p1790
aS'64486'
p1791
aS'64502'
p1792
aS'64511'
p1793
aS'64519'
p1794
aS'64533'
p1795
aS'64550'
p1796
aS'64554'
p1797
aS'64577'
p1798
aS'64580'
p1799
aS'64592'
p1800
aS'64592'
p1801
asS'cpu_1'
p1802
(lp1803
S'308641'
p1804
aS'308707'
p1805
aS'308796'
p1806
aS'308880'
p1807
aS'308972'
p1808
aS'309064'
p1809
aS'309150'
p1810
aS'309235'
p1811
aS'309331'
p1812
aS'309408'
p1813
aS'309505'
p1814
aS'309594'
p1815
aS'309694'
p1816
asS'cpu_6'
p1817
(lp1818
g5
ag5
ag5
ag5
ag5
ag5
ag5
ag5
ag5
ag5
ag5
ag5
ag5
asS'cpu_7'
p1819
(lp1820
S'18027'
p1821
aS'18027'
p1822
aS'18027'
p1823
aS'18027'
p1824
aS'18027'
p1825
aS'18027'
p1826
aS'18027'
p1827
aS'18027'
p1828
aS'18027'
p1829
aS'18027'
p1830
aS'18027'
p1831
aS'18027'
p1832
aS'18027'
p1833
asS'cpu_4'
p1834
(lp1835
S'16068829'
p1836
aS'16068929'
p1837
aS'16069029'
p1838
aS'16069129'
p1839
aS'16069229'
p1840
aS'16069325'
p1841
aS'16069425'
p1842
aS'16069525'
p1843
aS'16069625'
p1844
aS'16069725'
p1845
aS'16069825'
p1846
aS'16069925'
p1847
aS'16070025'
p1848
asS'cpu_5'
p1849
(lp1850
S'64351'
p1851
aS'64368'
p1852
aS'64368'
p1853
aS'64368'
p1854
aS'64368'
p1855
aS'64373'
p1856
aS'64373'
p1857
aS'64373'
p1858
aS'64373'
p1859
aS'64373'
p1860
aS'64373'
p1861
aS'64373'
p1862
aS'64373'
p1863
asS'intr_52'
p1864
(lp1865
g5
ag5
ag5
ag5
ag5
ag5
ag5
ag5
ag5
ag5
ag5
ag5
ag5
asS'intr_53'
p1866
(lp1867
g5
ag5
ag5
ag5
ag5
ag5
ag5
ag5
ag5
ag5
ag5
ag5
ag5
asS'intr_50'
p1868
(lp1869
g5
ag5
ag5
ag5
ag5
ag5
ag5
ag5
ag5
ag5
ag5
ag5
ag5
asS'intr_51'
p1870
(lp1871
g5
ag5
ag5
ag5
ag5
ag5
ag5
ag5
ag5
ag5
ag5
ag5
ag5
asS'intr_56'
p1872
(lp1873
g5
ag5
ag5
ag5
ag5
ag5
ag5
ag5
ag5
ag5
ag5
ag5
ag5
asS'intr_57'
p1874
(lp1875
g5
ag5
ag5
ag5
ag5
ag5
ag5
ag5
ag5
ag5
ag5
ag5
ag5
asS'intr_54'
p1876
(lp1877
g5
ag5
ag5
ag5
ag5
ag5
ag5
ag5
ag5
ag5
ag5
ag5
ag5
asS'intr_55'
p1878
(lp1879
g5
ag5
ag5
ag5
ag5
ag5
ag5
ag5
ag5
ag5
ag5
ag5
ag5
asS'intr_58'
p1880
(lp1881
g5
ag5
ag5
ag5
ag5
ag5
ag5
ag5
ag5
ag5
ag5
ag5
ag5
asS'intr_59'
p1882
(lp1883
g5
ag5
ag5
ag5
ag5
ag5
ag5
ag5
ag5
ag5
ag5
ag5
ag5
asS'intr_422'
p1884
(lp1885
g5
ag5
ag5
ag5
ag5
ag5
ag5
ag5
ag5
ag5
ag5
ag5
ag5
asS'intr_600'
p1886
(lp1887
g5
ag5
ag5
ag5
ag5
ag5
ag5
ag5
ag5
ag5
ag5
ag5
ag5
asS'intr_601'
p1888
(lp1889
g5
ag5
ag5
ag5
ag5
ag5
ag5
ag5
ag5
ag5
ag5
ag5
ag5
asS'intr_280'
p1890
(lp1891
g5
ag5
ag5
ag5
ag5
ag5
ag5
ag5
ag5
ag5
ag5
ag5
ag5
asS'intr_281'
p1892
(lp1893
g5
ag5
ag5
ag5
ag5
ag5
ag5
ag5
ag5
ag5
ag5
ag5
ag5
asS'intr_282'
p1894
(lp1895
g5
ag5
ag5
ag5
ag5
ag5
ag5
ag5
ag5
ag5
ag5
ag5
ag5
asS'intr_283'
p1896
(lp1897
g5
ag5
ag5
ag5
ag5
ag5
ag5
ag5
ag5
ag5
ag5
ag5
ag5
asS'intr_284'
p1898
(lp1899
g5
ag5
ag5
ag5
ag5
ag5
ag5
ag5
ag5
ag5
ag5
ag5
ag5
asS'intr_285'
p1900
(lp1901
g5
ag5
ag5
ag5
ag5
ag5
ag5
ag5
ag5
ag5
ag5
ag5
ag5
asS'intr_286'
p1902
(lp1903
g5
ag5
ag5
ag5
ag5
ag5
ag5
ag5
ag5
ag5
ag5
ag5
ag5
asS'intr_287'
p1904
(lp1905
g5
ag5
ag5
ag5
ag5
ag5
ag5
ag5
ag5
ag5
ag5
ag5
ag5
asS'intr_288'
p1906
(lp1907
g5
ag5
ag5
ag5
ag5
ag5
ag5
ag5
ag5
ag5
ag5
ag5
ag5
asS'intr_289'
p1908
(lp1909
g5
ag5
ag5
ag5
ag5
ag5
ag5
ag5
ag5
ag5
ag5
ag5
ag5
asS'intr_367'
p1910
(lp1911
g5
ag5
ag5
ag5
ag5
ag5
ag5
ag5
ag5
ag5
ag5
ag5
ag5
asS'intr_366'
p1912
(lp1913
g5
ag5
ag5
ag5
ag5
ag5
ag5
ag5
ag5
ag5
ag5
ag5
ag5
asS'intr_365'
p1914
(lp1915
g5
ag5
ag5
ag5
ag5
ag5
ag5
ag5
ag5
ag5
ag5
ag5
ag5
asS'intr_364'
p1916
(lp1917
g5
ag5
ag5
ag5
ag5
ag5
ag5
ag5
ag5
ag5
ag5
ag5
ag5
asS'intr_363'
p1918
(lp1919
g5
ag5
ag5
ag5
ag5
ag5
ag5
ag5
ag5
ag5
ag5
ag5
ag5
asS'intr_318'
p1920
(lp1921
g5
ag5
ag5
ag5
ag5
ag5
ag5
ag5
ag5
ag5
ag5
ag5
ag5
asS'intr_361'
p1922
(lp1923
g5
ag5
ag5
ag5
ag5
ag5
ag5
ag5
ag5
ag5
ag5
ag5
ag5
asS'intr_360'
p1924
(lp1925
g5
ag5
ag5
ag5
ag5
ag5
ag5
ag5
ag5
ag5
ag5
ag5
ag5
asS'intr_791'
p1926
(lp1927
g5
ag5
ag5
ag5
ag5
ag5
ag5
ag5
ag5
ag5
ag5
ag5
ag5
asS'intr_319'
p1928
(lp1929
g5
ag5
ag5
ag5
ag5
ag5
ag5
ag5
ag5
ag5
ag5
ag5
ag5
asS'intr_369'
p1930
(lp1931
g5
ag5
ag5
ag5
ag5
ag5
ag5
ag5
ag5
ag5
ag5
ag5
ag5
asS'intr_368'
p1932
(lp1933
g5
ag5
ag5
ag5
ag5
ag5
ag5
ag5
ag5
ag5
ag5
ag5
ag5
asS'intr_27'
p1934
(lp1935
g5
ag5
ag5
ag5
ag5
ag5
ag5
ag5
ag5
ag5
ag5
ag5
ag5
asS'intr_26'
p1936
(lp1937
g5
ag5
ag5
ag5
ag5
ag5
ag5
ag5
ag5
ag5
ag5
ag5
ag5
asS'intr_25'
p1938
(lp1939
S'371111'
p1940
aS'371111'
p1941
aS'371112'
p1942
aS'371112'
p1943
aS'371113'
p1944
aS'371113'
p1945
aS'371114'
p1946
aS'371114'
p1947
aS'371115'
p1948
aS'371115'
p1949
aS'371116'
p1950
aS'371117'
p1951
aS'371118'
p1952
asS'intr_24'
p1953
(lp1954
g5
ag5
ag5
ag5
ag5
ag5
ag5
ag5
ag5
ag5
ag5
ag5
ag5
asS'intr_23'
p1955
(lp1956
g5
ag5
ag5
ag5
ag5
ag5
ag5
ag5
ag5
ag5
ag5
ag5
ag5
asS'intr_22'
p1957
(lp1958
g5
ag5
ag5
ag5
ag5
ag5
ag5
ag5
ag5
ag5
ag5
ag5
ag5
asS'intr_21'
p1959
(lp1960
g5
ag5
ag5
ag5
ag5
ag5
ag5
ag5
ag5
ag5
ag5
ag5
ag5
asS'intr_20'
p1961
(lp1962
S'30'
p1963
aS'30'
p1964
aS'30'
p1965
aS'30'
p1966
aS'30'
p1967
aS'30'
p1968
aS'30'
p1969
aS'30'
p1970
aS'30'
p1971
aS'30'
p1972
aS'30'
p1973
aS'30'
p1974
aS'30'
p1975
asS'intr_29'
p1976
(lp1977
g5
ag5
ag5
ag5
ag5
ag5
ag5
ag5
ag5
ag5
ag5
ag5
ag5
asS'intr_28'
p1978
(lp1979
g5
ag5
ag5
ag5
ag5
ag5
ag5
ag5
ag5
ag5
ag5
ag5
ag5
asS'intr_465'
p1980
(lp1981
g5
ag5
ag5
ag5
ag5
ag5
ag5
ag5
ag5
ag5
ag5
ag5
ag5
asS'intr_310'
p1982
(lp1983
g5
ag5
ag5
ag5
ag5
ag5
ag5
ag5
ag5
ag5
ag5
ag5
ag5
asS'intr_738'
p1984
(lp1985
g5
ag5
ag5
ag5
ag5
ag5
ag5
ag5
ag5
ag5
ag5
ag5
ag5
asS'intr_311'
p1986
(lp1987
g5
ag5
ag5
ag5
ag5
ag5
ag5
ag5
ag5
ag5
ag5
ag5
ag5
asS'intr_739'
p1988
(lp1989
g5
ag5
ag5
ag5
ag5
ag5
ag5
ag5
ag5
ag5
ag5
ag5
ag5
asS'intr_433'
p1990
(lp1991
g5
ag5
ag5
ag5
ag5
ag5
ag5
ag5
ag5
ag5
ag5
ag5
ag5
asS'intr_219'
p1992
(lp1993
g5
ag5
ag5
ag5
ag5
ag5
ag5
ag5
ag5
ag5
ag5
ag5
ag5
asS'intr_218'
p1994
(lp1995
g5
ag5
ag5
ag5
ag5
ag5
ag5
ag5
ag5
ag5
ag5
ag5
ag5
asS'intr_213'
p1996
(lp1997
g5
ag5
ag5
ag5
ag5
ag5
ag5
ag5
ag5
ag5
ag5
ag5
ag5
asS'intr_212'
p1998
(lp1999
g5
ag5
ag5
ag5
ag5
ag5
ag5
ag5
ag5
ag5
ag5
ag5
ag5
asS'intr_211'
p2000
(lp2001
g5
ag5
ag5
ag5
ag5
ag5
ag5
ag5
ag5
ag5
ag5
ag5
ag5
asS'intr_210'
p2002
(lp2003
g5
ag5
ag5
ag5
ag5
ag5
ag5
ag5
ag5
ag5
ag5
ag5
ag5
asS'intr_217'
p2004
(lp2005
g5
ag5
ag5
ag5
ag5
ag5
ag5
ag5
ag5
ag5
ag5
ag5
ag5
asS'intr_216'
p2006
(lp2007
g5
ag5
ag5
ag5
ag5
ag5
ag5
ag5
ag5
ag5
ag5
ag5
ag5
asS'intr_215'
p2008
(lp2009
g5
ag5
ag5
ag5
ag5
ag5
ag5
ag5
ag5
ag5
ag5
ag5
ag5
asS'intr_214'
p2010
(lp2011
g5
ag5
ag5
ag5
ag5
ag5
ag5
ag5
ag5
ag5
ag5
ag5
ag5
asS'intr_776'
p2012
(lp2013
g5
ag5
ag5
ag5
ag5
ag5
ag5
ag5
ag5
ag5
ag5
ag5
ag5
asS'intr_735'
p2014
(lp2015
g5
ag5
ag5
ag5
ag5
ag5
ag5
ag5
ag5
ag5
ag5
ag5
ag5
asS'intr_432'
p2016
(lp2017
g5
ag5
ag5
ag5
ag5
ag5
ag5
ag5
ag5
ag5
ag5
ag5
ag5
asS'softirq_11'
p2018
(lp2019
S'1000879'
p2020
aS'1000965'
p2021
aS'1000971'
p2022
aS'1000977'
p2023
aS'1001006'
p2024
aS'1001013'
p2025
aS'1001020'
p2026
aS'1001031'
p2027
aS'1001045'
p2028
aS'1001052'
p2029
aS'1001058'
p2030
aS'1001065'
p2031
aS'1001071'
p2032
asS'intr_622'
p2033
(lp2034
g5
ag5
ag5
ag5
ag5
ag5
ag5
ag5
ag5
ag5
ag5
ag5
ag5
asS'intr_623'
p2035
(lp2036
g5
ag5
ag5
ag5
ag5
ag5
ag5
ag5
ag5
ag5
ag5
ag5
ag5
asS'intr_620'
p2037
(lp2038
g5
ag5
ag5
ag5
ag5
ag5
ag5
ag5
ag5
ag5
ag5
ag5
ag5
asS'intr_621'
p2039
(lp2040
g5
ag5
ag5
ag5
ag5
ag5
ag5
ag5
ag5
ag5
ag5
ag5
ag5
asS'intr_626'
p2041
(lp2042
g5
ag5
ag5
ag5
ag5
ag5
ag5
ag5
ag5
ag5
ag5
ag5
ag5
asS'intr_627'
p2043
(lp2044
g5
ag5
ag5
ag5
ag5
ag5
ag5
ag5
ag5
ag5
ag5
ag5
ag5
asS'intr_624'
p2045
(lp2046
g5
ag5
ag5
ag5
ag5
ag5
ag5
ag5
ag5
ag5
ag5
ag5
ag5
asS'intr_625'
p2047
(lp2048
g5
ag5
ag5
ag5
ag5
ag5
ag5
ag5
ag5
ag5
ag5
ag5
ag5
asS'intr_741'
p2049
(lp2050
g5
ag5
ag5
ag5
ag5
ag5
ag5
ag5
ag5
ag5
ag5
ag5
ag5
asS'intr_730'
p2051
(lp2052
g5
ag5
ag5
ag5
ag5
ag5
ag5
ag5
ag5
ag5
ag5
ag5
ag5
asS'intr_628'
p2053
(lp2054
g5
ag5
ag5
ag5
ag5
ag5
ag5
ag5
ag5
ag5
ag5
ag5
ag5
asS'intr_629'
p2055
(lp2056
g5
ag5
ag5
ag5
ag5
ag5
ag5
ag5
ag5
ag5
ag5
ag5
ag5
asS'intr_745'
p2057
(lp2058
g5
ag5
ag5
ag5
ag5
ag5
ag5
ag5
ag5
ag5
ag5
ag5
ag5
asS'intr_744'
p2059
(lp2060
g5
ag5
ag5
ag5
ag5
ag5
ag5
ag5
ag5
ag5
ag5
ag5
ag5
asS'intr_747'
p2061
(lp2062
g5
ag5
ag5
ag5
ag5
ag5
ag5
ag5
ag5
ag5
ag5
ag5
ag5
asS'intr_731'
p2063
(lp2064
g5
ag5
ag5
ag5
ag5
ag5
ag5
ag5
ag5
ag5
ag5
ag5
ag5
asS'intr_733'
p2065
(lp2066
g5
ag5
ag5
ag5
ag5
ag5
ag5
ag5
ag5
ag5
ag5
ag5
ag5
asS'intr_362'
p2067
(lp2068
g5
ag5
ag5
ag5
ag5
ag5
ag5
ag5
ag5
ag5
ag5
ag5
ag5
asS'intr_529'
p2069
(lp2070
g5
ag5
ag5
ag5
ag5
ag5
ag5
ag5
ag5
ag5
ag5
ag5
ag5
asS'intr_486'
p2071
(lp2072
g5
ag5
ag5
ag5
ag5
ag5
ag5
ag5
ag5
ag5
ag5
ag5
ag5
asS'intr_487'
p2073
(lp2074
g5
ag5
ag5
ag5
ag5
ag5
ag5
ag5
ag5
ag5
ag5
ag5
ag5
asS'intr_484'
p2075
(lp2076
g5
ag5
ag5
ag5
ag5
ag5
ag5
ag5
ag5
ag5
ag5
ag5
ag5
asS'intr_485'
p2077
(lp2078
g5
ag5
ag5
ag5
ag5
ag5
ag5
ag5
ag5
ag5
ag5
ag5
ag5
asS'intr_482'
p2079
(lp2080
g5
ag5
ag5
ag5
ag5
ag5
ag5
ag5
ag5
ag5
ag5
ag5
ag5
asS'intr_483'
p2081
(lp2082
g5
ag5
ag5
ag5
ag5
ag5
ag5
ag5
ag5
ag5
ag5
ag5
ag5
asS'intr_480'
p2083
(lp2084
g5
ag5
ag5
ag5
ag5
ag5
ag5
ag5
ag5
ag5
ag5
ag5
ag5
asS'intr_481'
p2085
(lp2086
g5
ag5
ag5
ag5
ag5
ag5
ag5
ag5
ag5
ag5
ag5
ag5
ag5
asS'intr_525'
p2087
(lp2088
g5
ag5
ag5
ag5
ag5
ag5
ag5
ag5
ag5
ag5
ag5
ag5
ag5
asS'intr_524'
p2089
(lp2090
g5
ag5
ag5
ag5
ag5
ag5
ag5
ag5
ag5
ag5
ag5
ag5
ag5
asS'intr_527'
p2091
(lp2092
g5
ag5
ag5
ag5
ag5
ag5
ag5
ag5
ag5
ag5
ag5
ag5
ag5
asS'intr_526'
p2093
(lp2094
g5
ag5
ag5
ag5
ag5
ag5
ag5
ag5
ag5
ag5
ag5
ag5
ag5
asS'intr_521'
p2095
(lp2096
g5
ag5
ag5
ag5
ag5
ag5
ag5
ag5
ag5
ag5
ag5
ag5
ag5
asS'intr_520'
p2097
(lp2098
g5
ag5
ag5
ag5
ag5
ag5
ag5
ag5
ag5
ag5
ag5
ag5
ag5
asS'intr_488'
p2099
(lp2100
g5
ag5
ag5
ag5
ag5
ag5
ag5
ag5
ag5
ag5
ag5
ag5
ag5
asS'intr_489'
p2101
(lp2102
g5
ag5
ag5
ag5
ag5
ag5
ag5
ag5
ag5
ag5
ag5
ag5
ag5
asS'intr_136'
p2103
(lp2104
g5
ag5
ag5
ag5
ag5
ag5
ag5
ag5
ag5
ag5
ag5
ag5
ag5
asS'intr_137'
p2105
(lp2106
g5
ag5
ag5
ag5
ag5
ag5
ag5
ag5
ag5
ag5
ag5
ag5
ag5
asS'intr_134'
p2107
(lp2108
g5
ag5
ag5
ag5
ag5
ag5
ag5
ag5
ag5
ag5
ag5
ag5
ag5
asS'intr_135'
p2109
(lp2110
g5
ag5
ag5
ag5
ag5
ag5
ag5
ag5
ag5
ag5
ag5
ag5
ag5
asS'intr_132'
p2111
(lp2112
g5
ag5
ag5
ag5
ag5
ag5
ag5
ag5
ag5
ag5
ag5
ag5
ag5
asS'intr_133'
p2113
(lp2114
g5
ag5
ag5
ag5
ag5
ag5
ag5
ag5
ag5
ag5
ag5
ag5
ag5
asS'intr_130'
p2115
(lp2116
g5
ag5
ag5
ag5
ag5
ag5
ag5
ag5
ag5
ag5
ag5
ag5
ag5
asS'intr_131'
p2117
(lp2118
g5
ag5
ag5
ag5
ag5
ag5
ag5
ag5
ag5
ag5
ag5
ag5
ag5
asS'intr_701'
p2119
(lp2120
g5
ag5
ag5
ag5
ag5
ag5
ag5
ag5
ag5
ag5
ag5
ag5
ag5
asS'intr_98'
p2121
(lp2122
g5
ag5
ag5
ag5
ag5
ag5
ag5
ag5
ag5
ag5
ag5
ag5
ag5
asS'intr_99'
p2123
(lp2124
g5
ag5
ag5
ag5
ag5
ag5
ag5
ag5
ag5
ag5
ag5
ag5
ag5
asS'intr_549'
p2125
(lp2126
g5
ag5
ag5
ag5
ag5
ag5
ag5
ag5
ag5
ag5
ag5
ag5
ag5
asS'ctxt_1'
p2127
(lp2128
S'4940154'
p2129
aS'4940257'
p2130
aS'4940263'
p2131
aS'4940278'
p2132
aS'4940286'
p2133
aS'4940309'
p2134
aS'4940313'
p2135
aS'4940321'
p2136
aS'4940334'
p2137
aS'4940342'
p2138
aS'4940348'
p2139
aS'4940362'
p2140
aS'4940371'
p2141
asS'intr_548'
p2142
(lp2143
g5
ag5
ag5
ag5
ag5
ag5
ag5
ag5
ag5
ag5
ag5
ag5
ag5
asS'intr_411'
p2144
(lp2145
g5
ag5
ag5
ag5
ag5
ag5
ag5
ag5
ag5
ag5
ag5
ag5
ag5
asS'intr_410'
p2146
(lp2147
g5
ag5
ag5
ag5
ag5
ag5
ag5
ag5
ag5
ag5
ag5
ag5
ag5
asS'intr_413'
p2148
(lp2149
g5
ag5
ag5
ag5
ag5
ag5
ag5
ag5
ag5
ag5
ag5
ag5
ag5
asS'intr_412'
p2150
(lp2151
g5
ag5
ag5
ag5
ag5
ag5
ag5
ag5
ag5
ag5
ag5
ag5
ag5
asS'intr_415'
p2152
(lp2153
g5
ag5
ag5
ag5
ag5
ag5
ag5
ag5
ag5
ag5
ag5
ag5
ag5
asS'intr_414'
p2154
(lp2155
g5
ag5
ag5
ag5
ag5
ag5
ag5
ag5
ag5
ag5
ag5
ag5
ag5
asS'intr_417'
p2156
(lp2157
g5
ag5
ag5
ag5
ag5
ag5
ag5
ag5
ag5
ag5
ag5
ag5
ag5
asS'intr_416'
p2158
(lp2159
g5
ag5
ag5
ag5
ag5
ag5
ag5
ag5
ag5
ag5
ag5
ag5
ag5
asS'intr_419'
p2160
(lp2161
g5
ag5
ag5
ag5
ag5
ag5
ag5
ag5
ag5
ag5
ag5
ag5
ag5
asS'intr_418'
p2162
(lp2163
g5
ag5
ag5
ag5
ag5
ag5
ag5
ag5
ag5
ag5
ag5
ag5
ag5
asS'intr_552'
p2164
(lp2165
g5
ag5
ag5
ag5
ag5
ag5
ag5
ag5
ag5
ag5
ag5
ag5
ag5
asS'intr_553'
p2166
(lp2167
g5
ag5
ag5
ag5
ag5
ag5
ag5
ag5
ag5
ag5
ag5
ag5
ag5
asS'intr_554'
p2168
(lp2169
g5
ag5
ag5
ag5
ag5
ag5
ag5
ag5
ag5
ag5
ag5
ag5
ag5
asS'intr_555'
p2170
(lp2171
g5
ag5
ag5
ag5
ag5
ag5
ag5
ag5
ag5
ag5
ag5
ag5
ag5
asS'intr_556'
p2172
(lp2173
g5
ag5
ag5
ag5
ag5
ag5
ag5
ag5
ag5
ag5
ag5
ag5
ag5
asS'intr_557'
p2174
(lp2175
g5
ag5
ag5
ag5
ag5
ag5
ag5
ag5
ag5
ag5
ag5
ag5
ag5
asS'intr_69'
p2176
(lp2177
g5
ag5
ag5
ag5
ag5
ag5
ag5
ag5
ag5
ag5
ag5
ag5
ag5
asS'intr_68'
p2178
(lp2179
g5
ag5
ag5
ag5
ag5
ag5
ag5
ag5
ag5
ag5
ag5
ag5
ag5
asS'intr_63'
p2180
(lp2181
g5
ag5
ag5
ag5
ag5
ag5
ag5
ag5
ag5
ag5
ag5
ag5
ag5
asS'intr_62'
p2182
(lp2183
g5
ag5
ag5
ag5
ag5
ag5
ag5
ag5
ag5
ag5
ag5
ag5
ag5
asS'intr_61'
p2184
(lp2185
g5
ag5
ag5
ag5
ag5
ag5
ag5
ag5
ag5
ag5
ag5
ag5
ag5
asS'intr_60'
p2186
(lp2187
g5
ag5
ag5
ag5
ag5
ag5
ag5
ag5
ag5
ag5
ag5
ag5
ag5
asS'intr_67'
p2188
(lp2189
g5
ag5
ag5
ag5
ag5
ag5
ag5
ag5
ag5
ag5
ag5
ag5
ag5
asS'intr_66'
p2190
(lp2191
g5
ag5
ag5
ag5
ag5
ag5
ag5
ag5
ag5
ag5
ag5
ag5
ag5
asS'intr_65'
p2192
(lp2193
g5
ag5
ag5
ag5
ag5
ag5
ag5
ag5
ag5
ag5
ag5
ag5
ag5
asS'intr_64'
p2194
(lp2195
g5
ag5
ag5
ag5
ag5
ag5
ag5
ag5
ag5
ag5
ag5
ag5
ag5
asS'intr_578'
p2196
(lp2197
g5
ag5
ag5
ag5
ag5
ag5
ag5
ag5
ag5
ag5
ag5
ag5
ag5
asS'intr_579'
p2198
(lp2199
g5
ag5
ag5
ag5
ag5
ag5
ag5
ag5
ag5
ag5
ag5
ag5
ag5
asS'intr_493'
p2200
(lp2201
g5
ag5
ag5
ag5
ag5
ag5
ag5
ag5
ag5
ag5
ag5
ag5
ag5
asS'intr_257'
p2202
(lp2203
g5
ag5
ag5
ag5
ag5
ag5
ag5
ag5
ag5
ag5
ag5
ag5
ag5
asS'intr_256'
p2204
(lp2205
g5
ag5
ag5
ag5
ag5
ag5
ag5
ag5
ag5
ag5
ag5
ag5
ag5
asS'intr_255'
p2206
(lp2207
g5
ag5
ag5
ag5
ag5
ag5
ag5
ag5
ag5
ag5
ag5
ag5
ag5
asS'intr_254'
p2208
(lp2209
g5
ag5
ag5
ag5
ag5
ag5
ag5
ag5
ag5
ag5
ag5
ag5
ag5
asS'intr_253'
p2210
(lp2211
g5
ag5
ag5
ag5
ag5
ag5
ag5
ag5
ag5
ag5
ag5
ag5
ag5
asS'intr_252'
p2212
(lp2213
g5
ag5
ag5
ag5
ag5
ag5
ag5
ag5
ag5
ag5
ag5
ag5
ag5
asS'intr_251'
p2214
(lp2215
g5
ag5
ag5
ag5
ag5
ag5
ag5
ag5
ag5
ag5
ag5
ag5
ag5
asS'intr_250'
p2216
(lp2217
g5
ag5
ag5
ag5
ag5
ag5
ag5
ag5
ag5
ag5
ag5
ag5
ag5
asS'intr_316'
p2218
(lp2219
g5
ag5
ag5
ag5
ag5
ag5
ag5
ag5
ag5
ag5
ag5
ag5
ag5
asS'intr_317'
p2220
(lp2221
g5
ag5
ag5
ag5
ag5
ag5
ag5
ag5
ag5
ag5
ag5
ag5
ag5
asS'intr_314'
p2222
(lp2223
g5
ag5
ag5
ag5
ag5
ag5
ag5
ag5
ag5
ag5
ag5
ag5
ag5
asS'intr_315'
p2224
(lp2225
g5
ag5
ag5
ag5
ag5
ag5
ag5
ag5
ag5
ag5
ag5
ag5
ag5
asS'intr_312'
p2226
(lp2227
g5
ag5
ag5
ag5
ag5
ag5
ag5
ag5
ag5
ag5
ag5
ag5
ag5
asS'intr_313'
p2228
(lp2229
g5
ag5
ag5
ag5
ag5
ag5
ag5
ag5
ag5
ag5
ag5
ag5
ag5
asS'intr_259'
p2230
(lp2231
g5
ag5
ag5
ag5
ag5
ag5
ag5
ag5
ag5
ag5
ag5
ag5
ag5
asS'intr_258'
p2232
(lp2233
g5
ag5
ag5
ag5
ag5
ag5
ag5
ag5
ag5
ag5
ag5
ag5
ag5
asS'intr_570'
p2234
(lp2235
g5
ag5
ag5
ag5
ag5
ag5
ag5
ag5
ag5
ag5
ag5
ag5
ag5
asS'intr_571'
p2236
(lp2237
g5
ag5
ag5
ag5
ag5
ag5
ag5
ag5
ag5
ag5
ag5
ag5
ag5
asS'intr_705'
p2238
(lp2239
g5
ag5
ag5
ag5
ag5
ag5
ag5
ag5
ag5
ag5
ag5
ag5
ag5
asS'intr_704'
p2240
(lp2241
g5
ag5
ag5
ag5
ag5
ag5
ag5
ag5
ag5
ag5
ag5
ag5
ag5
asS'intr_707'
p2242
(lp2243
g5
ag5
ag5
ag5
ag5
ag5
ag5
ag5
ag5
ag5
ag5
ag5
ag5
asS'intr_706'
p2244
(lp2245
g5
ag5
ag5
ag5
ag5
ag5
ag5
ag5
ag5
ag5
ag5
ag5
ag5
asS'intr_608'
p2246
(lp2247
g5
ag5
ag5
ag5
ag5
ag5
ag5
ag5
ag5
ag5
ag5
ag5
ag5
asS'intr_700'
p2248
(lp2249
g5
ag5
ag5
ag5
ag5
ag5
ag5
ag5
ag5
ag5
ag5
ag5
ag5
asS'intr_703'
p2250
(lp2251
g5
ag5
ag5
ag5
ag5
ag5
ag5
ag5
ag5
ag5
ag5
ag5
ag5
asS'intr_702'
p2252
(lp2253
g5
ag5
ag5
ag5
ag5
ag5
ag5
ag5
ag5
ag5
ag5
ag5
ag5
asS'intr_709'
p2254
(lp2255
g5
ag5
ag5
ag5
ag5
ag5
ag5
ag5
ag5
ag5
ag5
ag5
ag5
asS'intr_708'
p2256
(lp2257
g5
ag5
ag5
ag5
ag5
ag5
ag5
ag5
ag5
ag5
ag5
ag5
ag5
asS'intr_507'
p2258
(lp2259
g5
ag5
ag5
ag5
ag5
ag5
ag5
ag5
ag5
ag5
ag5
ag5
ag5
asS'intr_609'
p2260
(lp2261
g5
ag5
ag5
ag5
ag5
ag5
ag5
ag5
ag5
ag5
ag5
ag5
ag5
asS'intr_506'
p2262
(lp2263
g5
ag5
ag5
ag5
ag5
ag5
ag5
ag5
ag5
ag5
ag5
ag5
ag5
asS'intr_505'
p2264
(lp2265
g5
ag5
ag5
ag5
ag5
ag5
ag5
ag5
ag5
ag5
ag5
ag5
ag5
asS'intr_504'
p2266
(lp2267
g5
ag5
ag5
ag5
ag5
ag5
ag5
ag5
ag5
ag5
ag5
ag5
ag5
asS'intr_503'
p2268
(lp2269
g5
ag5
ag5
ag5
ag5
ag5
ag5
ag5
ag5
ag5
ag5
ag5
ag5
asS'intr_502'
p2270
(lp2271
g5
ag5
ag5
ag5
ag5
ag5
ag5
ag5
ag5
ag5
ag5
ag5
ag5
asS'intr_172'
p2272
(lp2273
g5
ag5
ag5
ag5
ag5
ag5
ag5
ag5
ag5
ag5
ag5
ag5
ag5
asS'intr_173'
p2274
(lp2275
g5
ag5
ag5
ag5
ag5
ag5
ag5
ag5
ag5
ag5
ag5
ag5
ag5
asS'intr_170'
p2276
(lp2277
g5
ag5
ag5
ag5
ag5
ag5
ag5
ag5
ag5
ag5
ag5
ag5
ag5
asS'intr_171'
p2278
(lp2279
g5
ag5
ag5
ag5
ag5
ag5
ag5
ag5
ag5
ag5
ag5
ag5
ag5
asS'intr_176'
p2280
(lp2281
g5
ag5
ag5
ag5
ag5
ag5
ag5
ag5
ag5
ag5
ag5
ag5
ag5
asS'intr_177'
p2282
(lp2283
g5
ag5
ag5
ag5
ag5
ag5
ag5
ag5
ag5
ag5
ag5
ag5
ag5
asS'intr_174'
p2284
(lp2285
g5
ag5
ag5
ag5
ag5
ag5
ag5
ag5
ag5
ag5
ag5
ag5
ag5
asS'intr_175'
p2286
(lp2287
g5
ag5
ag5
ag5
ag5
ag5
ag5
ag5
ag5
ag5
ag5
ag5
ag5
asS'intr_671'
p2288
(lp2289
g5
ag5
ag5
ag5
ag5
ag5
ag5
ag5
ag5
ag5
ag5
ag5
ag5
asS'intr_670'
p2290
(lp2291
g5
ag5
ag5
ag5
ag5
ag5
ag5
ag5
ag5
ag5
ag5
ag5
ag5
asS'intr_178'
p2292
(lp2293
g5
ag5
ag5
ag5
ag5
ag5
ag5
ag5
ag5
ag5
ag5
ag5
ag5
asS'intr_179'
p2294
(lp2295
g5
ag5
ag5
ag5
ag5
ag5
ag5
ag5
ag5
ag5
ag5
ag5
ag5
asS'intr_675'
p2296
(lp2297
g5
ag5
ag5
ag5
ag5
ag5
ag5
ag5
ag5
ag5
ag5
ag5
ag5
asS'intr_674'
p2298
(lp2299
g5
ag5
ag5
ag5
ag5
ag5
ag5
ag5
ag5
ag5
ag5
ag5
ag5
asS'intr_677'
p2300
(lp2301
g5
ag5
ag5
ag5
ag5
ag5
ag5
ag5
ag5
ag5
ag5
ag5
ag5
asS'intr_676'
p2302
(lp2303
g5
ag5
ag5
ag5
ag5
ag5
ag5
ag5
ag5
ag5
ag5
ag5
ag5
asS'intr_770'
p2304
(lp2305
g5
ag5
ag5
ag5
ag5
ag5
ag5
ag5
ag5
ag5
ag5
ag5
ag5
asS'intr_771'
p2306
(lp2307
g5
ag5
ag5
ag5
ag5
ag5
ag5
ag5
ag5
ag5
ag5
ag5
ag5
asS'intr_772'
p2308
(lp2309
g5
ag5
ag5
ag5
ag5
ag5
ag5
ag5
ag5
ag5
ag5
ag5
ag5
asS'intr_773'
p2310
(lp2311
g5
ag5
ag5
ag5
ag5
ag5
ag5
ag5
ag5
ag5
ag5
ag5
ag5
asS'intr_774'
p2312
(lp2313
g5
ag5
ag5
ag5
ag5
ag5
ag5
ag5
ag5
ag5
ag5
ag5
ag5
asS'intr_775'
p2314
(lp2315
g5
ag5
ag5
ag5
ag5
ag5
ag5
ag5
ag5
ag5
ag5
ag5
ag5
asS'intr_523'
p2316
(lp2317
g5
ag5
ag5
ag5
ag5
ag5
ag5
ag5
ag5
ag5
ag5
ag5
ag5
asS'intr_777'
p2318
(lp2319
g5
ag5
ag5
ag5
ag5
ag5
ag5
ag5
ag5
ag5
ag5
ag5
ag5
asS'intr_778'
p2320
(lp2321
g5
ag5
ag5
ag5
ag5
ag5
ag5
ag5
ag5
ag5
ag5
ag5
ag5
asS'intr_779'
p2322
(lp2323
g5
ag5
ag5
ag5
ag5
ag5
ag5
ag5
ag5
ag5
ag5
ag5
ag5
asS'intr_428'
p2324
(lp2325
g5
ag5
ag5
ag5
ag5
ag5
ag5
ag5
ag5
ag5
ag5
ag5
ag5
asS'processes_1'
p2326
(lp2327
S'46075'
p2328
aS'46075'
p2329
aS'46075'
p2330
aS'46075'
p2331
aS'46075'
p2332
aS'46075'
p2333
aS'46075'
p2334
aS'46075'
p2335
aS'46075'
p2336
aS'46075'
p2337
aS'46075'
p2338
aS'46075'
p2339
aS'46075'
p2340
asS'intr_766'
p2341
(lp2342
g5
ag5
ag5
ag5
ag5
ag5
ag5
ag5
ag5
ag5
ag5
ag5
ag5
asS'intr_522'
p2343
(lp2344
g5
ag5
ag5
ag5
ag5
ag5
ag5
ag5
ag5
ag5
ag5
ag5
ag5
asS'intr_429'
p2345
(lp2346
g5
ag5
ag5
ag5
ag5
ag5
ag5
ag5
ag5
ag5
ag5
ag5
ag5
asS'intr_459'
p2347
(lp2348
g5
ag5
ag5
ag5
ag5
ag5
ag5
ag5
ag5
ag5
ag5
ag5
ag5
asS'intr_458'
p2349
(lp2350
g5
ag5
ag5
ag5
ag5
ag5
ag5
ag5
ag5
ag5
ag5
ag5
ag5
asS'intr_696'
p2351
(lp2352
g5
ag5
ag5
ag5
ag5
ag5
ag5
ag5
ag5
ag5
ag5
ag5
ag5
asS'intr_455'
p2353
(lp2354
g5
ag5
ag5
ag5
ag5
ag5
ag5
ag5
ag5
ag5
ag5
ag5
ag5
asS'intr_454'
p2355
(lp2356
g5
ag5
ag5
ag5
ag5
ag5
ag5
ag5
ag5
ag5
ag5
ag5
ag5
asS'intr_457'
p2357
(lp2358
g5
ag5
ag5
ag5
ag5
ag5
ag5
ag5
ag5
ag5
ag5
ag5
ag5
asS'intr_456'
p2359
(lp2360
g5
ag5
ag5
ag5
ag5
ag5
ag5
ag5
ag5
ag5
ag5
ag5
ag5
asS'intr_451'
p2361
(lp2362
g5
ag5
ag5
ag5
ag5
ag5
ag5
ag5
ag5
ag5
ag5
ag5
ag5
asS'intr_450'
p2363
(lp2364
g5
ag5
ag5
ag5
ag5
ag5
ag5
ag5
ag5
ag5
ag5
ag5
ag5
asS'intr_94'
p2365
(lp2366
g5
ag5
ag5
ag5
ag5
ag5
ag5
ag5
ag5
ag5
ag5
ag5
ag5
asS'intr_452'
p2367
(lp2368
g5
ag5
ag5
ag5
ag5
ag5
ag5
ag5
ag5
ag5
ag5
ag5
ag5
asS'intr_514'
p2369
(lp2370
g5
ag5
ag5
ag5
ag5
ag5
ag5
ag5
ag5
ag5
ag5
ag5
ag5
asS'intr_515'
p2371
(lp2372
g5
ag5
ag5
ag5
ag5
ag5
ag5
ag5
ag5
ag5
ag5
ag5
ag5
asS'intr_516'
p2373
(lp2374
g5
ag5
ag5
ag5
ag5
ag5
ag5
ag5
ag5
ag5
ag5
ag5
ag5
asS'intr_517'
p2375
(lp2376
g5
ag5
ag5
ag5
ag5
ag5
ag5
ag5
ag5
ag5
ag5
ag5
ag5
asS'intr_510'
p2377
(lp2378
g5
ag5
ag5
ag5
ag5
ag5
ag5
ag5
ag5
ag5
ag5
ag5
ag5
asS'intr_511'
p2379
(lp2380
g5
ag5
ag5
ag5
ag5
ag5
ag5
ag5
ag5
ag5
ag5
ag5
ag5
asS'intr_512'
p2381
(lp2382
g5
ag5
ag5
ag5
ag5
ag5
ag5
ag5
ag5
ag5
ag5
ag5
ag5
asS'intr_513'
p2383
(lp2384
g5
ag5
ag5
ag5
ag5
ag5
ag5
ag5
ag5
ag5
ag5
ag5
ag5
asS'intr_518'
p2385
(lp2386
g5
ag5
ag5
ag5
ag5
ag5
ag5
ag5
ag5
ag5
ag5
ag5
ag5
asS'intr_519'
p2387
(lp2388
g5
ag5
ag5
ag5
ag5
ag5
ag5
ag5
ag5
ag5
ag5
ag5
ag5
asS'intr_684'
p2389
(lp2390
g5
ag5
ag5
ag5
ag5
ag5
ag5
ag5
ag5
ag5
ag5
ag5
ag5
asS'intr_685'
p2391
(lp2392
g5
ag5
ag5
ag5
ag5
ag5
ag5
ag5
ag5
ag5
ag5
ag5
ag5
asS'intr_686'
p2393
(lp2394
g5
ag5
ag5
ag5
ag5
ag5
ag5
ag5
ag5
ag5
ag5
ag5
ag5
asS'intr_687'
p2395
(lp2396
g5
ag5
ag5
ag5
ag5
ag5
ag5
ag5
ag5
ag5
ag5
ag5
ag5
asS'intr_680'
p2397
(lp2398
g5
ag5
ag5
ag5
ag5
ag5
ag5
ag5
ag5
ag5
ag5
ag5
ag5
asS'intr_681'
p2399
(lp2400
g5
ag5
ag5
ag5
ag5
ag5
ag5
ag5
ag5
ag5
ag5
ag5
ag5
asS'intr_682'
p2401
(lp2402
g5
ag5
ag5
ag5
ag5
ag5
ag5
ag5
ag5
ag5
ag5
ag5
ag5
asS'intr_683'
p2403
(lp2404
g5
ag5
ag5
ag5
ag5
ag5
ag5
ag5
ag5
ag5
ag5
ag5
ag5
asS'intr_690'
p2405
(lp2406
g5
ag5
ag5
ag5
ag5
ag5
ag5
ag5
ag5
ag5
ag5
ag5
ag5
asS'intr_546'
p2407
(lp2408
g5
ag5
ag5
ag5
ag5
ag5
ag5
ag5
ag5
ag5
ag5
ag5
ag5
asS'intr_689'
p2409
(lp2410
g5
ag5
ag5
ag5
ag5
ag5
ag5
ag5
ag5
ag5
ag5
ag5
ag5
asS'intr_643'
p2411
(lp2412
g5
ag5
ag5
ag5
ag5
ag5
ag5
ag5
ag5
ag5
ag5
ag5
ag5
asS'intr_644'
p2413
(lp2414
g5
ag5
ag5
ag5
ag5
ag5
ag5
ag5
ag5
ag5
ag5
ag5
ag5
asS'softirq_7'
p2415
(lp2416
g5
ag5
ag5
ag5
ag5
ag5
ag5
ag5
ag5
ag5
ag5
ag5
ag5
asS'intr_679'
p2417
(lp2418
g5
ag5
ag5
ag5
ag5
ag5
ag5
ag5
ag5
ag5
ag5
ag5
ag5
asS'softirq_4'
p2419
(lp2420
S'16563'
p2421
aS'16564'
p2422
aS'16564'
p2423
aS'16564'
p2424
aS'16564'
p2425
aS'16564'
p2426
aS'16565'
p2427
aS'16565'
p2428
aS'16565'
p2429
aS'16565'
p2430
aS'16565'
p2431
aS'16566'
p2432
aS'16566'
p2433
asS'intr_678'
p2434
(lp2435
g5
ag5
ag5
ag5
ag5
ag5
ag5
ag5
ag5
ag5
ag5
ag5
ag5
asS'softirq_5'
p2436
(lp2437
S'435773'
p2438
aS'435773'
p2439
aS'435774'
p2440
aS'435774'
p2441
aS'435775'
p2442
aS'435775'
p2443
aS'435776'
p2444
aS'435776'
p2445
aS'435777'
p2446
aS'435777'
p2447
aS'435778'
p2448
aS'435779'
p2449
aS'435780'
p2450
asS'intr_293'
p2451
(lp2452
g5
ag5
ag5
ag5
ag5
ag5
ag5
ag5
ag5
ag5
ag5
ag5
ag5
asS'intr_292'
p2453
(lp2454
g5
ag5
ag5
ag5
ag5
ag5
ag5
ag5
ag5
ag5
ag5
ag5
ag5
asS'intr_291'
p2455
(lp2456
g5
ag5
ag5
ag5
ag5
ag5
ag5
ag5
ag5
ag5
ag5
ag5
ag5
asS'intr_290'
p2457
(lp2458
g5
ag5
ag5
ag5
ag5
ag5
ag5
ag5
ag5
ag5
ag5
ag5
ag5
asS'intr_297'
p2459
(lp2460
g5
ag5
ag5
ag5
ag5
ag5
ag5
ag5
ag5
ag5
ag5
ag5
ag5
asS'intr_296'
p2461
(lp2462
g5
ag5
ag5
ag5
ag5
ag5
ag5
ag5
ag5
ag5
ag5
ag5
ag5
asS'intr_295'
p2463
(lp2464
g5
ag5
ag5
ag5
ag5
ag5
ag5
ag5
ag5
ag5
ag5
ag5
ag5
asS'intr_294'
p2465
(lp2466
g5
ag5
ag5
ag5
ag5
ag5
ag5
ag5
ag5
ag5
ag5
ag5
ag5
asS'intr_352'
p2467
(lp2468
g5
ag5
ag5
ag5
ag5
ag5
ag5
ag5
ag5
ag5
ag5
ag5
ag5
asS'intr_353'
p2469
(lp2470
g5
ag5
ag5
ag5
ag5
ag5
ag5
ag5
ag5
ag5
ag5
ag5
ag5
asS'intr_299'
p2471
(lp2472
g5
ag5
ag5
ag5
ag5
ag5
ag5
ag5
ag5
ag5
ag5
ag5
ag5
asS'intr_298'
p2473
(lp2474
g5
ag5
ag5
ag5
ag5
ag5
ag5
ag5
ag5
ag5
ag5
ag5
ag5
asS'intr_356'
p2475
(lp2476
g5
ag5
ag5
ag5
ag5
ag5
ag5
ag5
ag5
ag5
ag5
ag5
ag5
asS'intr_357'
p2477
(lp2478
g5
ag5
ag5
ag5
ag5
ag5
ag5
ag5
ag5
ag5
ag5
ag5
ag5
asS'intr_354'
p2479
(lp2480
g5
ag5
ag5
ag5
ag5
ag5
ag5
ag5
ag5
ag5
ag5
ag5
ag5
asS'intr_355'
p2481
(lp2482
g5
ag5
ag5
ag5
ag5
ag5
ag5
ag5
ag5
ag5
ag5
ag5
ag5
asS'intr_198'
p2483
(lp2484
g5
ag5
ag5
ag5
ag5
ag5
ag5
ag5
ag5
ag5
ag5
ag5
ag5
asS'intr_199'
p2485
(lp2486
g5
ag5
ag5
ag5
ag5
ag5
ag5
ag5
ag5
ag5
ag5
ag5
ag5
asS'softirq_9'
p2487
(lp2488
S'681231'
p2489
aS'681238'
p2490
aS'681244'
p2491
aS'681250'
p2492
aS'681257'
p2493
aS'681264'
p2494
aS'681270'
p2495
aS'681277'
p2496
aS'681286'
p2497
aS'681291'
p2498
aS'681300'
p2499
aS'681308'
p2500
aS'681317'
p2501
asS'softirq_2'
p2502
(lp2503
g5
ag5
ag5
ag5
ag5
ag5
ag5
ag5
ag5
ag5
ag5
ag5
ag5
asS'intr_190'
p2504
(lp2505
g5
ag5
ag5
ag5
ag5
ag5
ag5
ag5
ag5
ag5
ag5
ag5
ag5
asS'intr_191'
p2506
(lp2507
g5
ag5
ag5
ag5
ag5
ag5
ag5
ag5
ag5
ag5
ag5
ag5
ag5
asS'intr_192'
p2508
(lp2509
g5
ag5
ag5
ag5
ag5
ag5
ag5
ag5
ag5
ag5
ag5
ag5
ag5
asS'intr_193'
p2510
(lp2511
g5
ag5
ag5
ag5
ag5
ag5
ag5
ag5
ag5
ag5
ag5
ag5
ag5
asS'intr_194'
p2512
(lp2513
g5
ag5
ag5
ag5
ag5
ag5
ag5
ag5
ag5
ag5
ag5
ag5
ag5
asS'intr_195'
p2514
(lp2515
g5
ag5
ag5
ag5
ag5
ag5
ag5
ag5
ag5
ag5
ag5
ag5
ag5
asS'intr_196'
p2516
(lp2517
g5
ag5
ag5
ag5
ag5
ag5
ag5
ag5
ag5
ag5
ag5
ag5
ag5
asS'intr_197'
p2518
(lp2519
g5
ag5
ag5
ag5
ag5
ag5
ag5
ag5
ag5
ag5
ag5
ag5
ag5
asS'intr_34'
p2520
(lp2521
g5
ag5
ag5
ag5
ag5
ag5
ag5
ag5
ag5
ag5
ag5
ag5
ag5
asS'intr_35'
p2522
(lp2523
g5
ag5
ag5
ag5
ag5
ag5
ag5
ag5
ag5
ag5
ag5
ag5
ag5
asS'intr_36'
p2524
(lp2525
g5
ag5
ag5
ag5
ag5
ag5
ag5
ag5
ag5
ag5
ag5
ag5
ag5
asS'intr_37'
p2526
(lp2527
g5
ag5
ag5
ag5
ag5
ag5
ag5
ag5
ag5
ag5
ag5
ag5
ag5
asS'intr_30'
p2528
(lp2529
g5
ag5
ag5
ag5
ag5
ag5
ag5
ag5
ag5
ag5
ag5
ag5
ag5
asS'intr_31'
p2530
(lp2531
g5
ag5
ag5
ag5
ag5
ag5
ag5
ag5
ag5
ag5
ag5
ag5
ag5
asS'intr_32'
p2532
(lp2533
g5
ag5
ag5
ag5
ag5
ag5
ag5
ag5
ag5
ag5
ag5
ag5
ag5
asS'intr_33'
p2534
(lp2535
g5
ag5
ag5
ag5
ag5
ag5
ag5
ag5
ag5
ag5
ag5
ag5
ag5
asS'intr_38'
p2536
(lp2537
g5
ag5
ag5
ag5
ag5
ag5
ag5
ag5
ag5
ag5
ag5
ag5
ag5
asS'intr_39'
p2538
(lp2539
g5
ag5
ag5
ag5
ag5
ag5
ag5
ag5
ag5
ag5
ag5
ag5
ag5
asS'softirq_3'
p2540
(lp2541
S'1668953'
p2542
aS'1669168'
p2543
aS'1669423'
p2544
aS'1669677'
p2545
aS'1669939'
p2546
aS'1670194'
p2547
aS'1670449'
p2548
aS'1670705'
p2549
aS'1670961'
p2550
aS'1671215'
p2551
aS'1671469'
p2552
aS'1671726'
p2553
aS'1671981'
p2554
asS'intr_672'
p2555
(lp2556
g5
ag5
ag5
ag5
ag5
ag5
ag5
ag5
ag5
ag5
ag5
ag5
ag5
asS'intr_329'
p2557
(lp2558
g5
ag5
ag5
ag5
ag5
ag5
ag5
ag5
ag5
ag5
ag5
ag5
ag5
asS'intr_328'
p2559
(lp2560
g5
ag5
ag5
ag5
ag5
ag5
ag5
ag5
ag5
ag5
ag5
ag5
ag5
asS'intr_434'
p2561
(lp2562
g5
ag5
ag5
ag5
ag5
ag5
ag5
ag5
ag5
ag5
ag5
ag5
ag5
asS'intr_228'
p2563
(lp2564
g5
ag5
ag5
ag5
ag5
ag5
ag5
ag5
ag5
ag5
ag5
ag5
ag5
asS'intr_229'
p2565
(lp2566
g5
ag5
ag5
ag5
ag5
ag5
ag5
ag5
ag5
ag5
ag5
ag5
ag5
asS'intr_226'
p2567
(lp2568
g5
ag5
ag5
ag5
ag5
ag5
ag5
ag5
ag5
ag5
ag5
ag5
ag5
asS'intr_227'
p2569
(lp2570
g5
ag5
ag5
ag5
ag5
ag5
ag5
ag5
ag5
ag5
ag5
ag5
ag5
asS'intr_224'
p2571
(lp2572
g5
ag5
ag5
ag5
ag5
ag5
ag5
ag5
ag5
ag5
ag5
ag5
ag5
asS'intr_225'
p2573
(lp2574
g5
ag5
ag5
ag5
ag5
ag5
ag5
ag5
ag5
ag5
ag5
ag5
ag5
asS'intr_222'
p2575
(lp2576
g5
ag5
ag5
ag5
ag5
ag5
ag5
ag5
ag5
ag5
ag5
ag5
ag5
asS'intr_223'
p2577
(lp2578
g5
ag5
ag5
ag5
ag5
ag5
ag5
ag5
ag5
ag5
ag5
ag5
ag5
asS'intr_220'
p2579
(lp2580
g5
ag5
ag5
ag5
ag5
ag5
ag5
ag5
ag5
ag5
ag5
ag5
ag5
asS'intr_221'
p2581
(lp2582
g5
ag5
ag5
ag5
ag5
ag5
ag5
ag5
ag5
ag5
ag5
ag5
ag5
asS'softirq_1'
p2583
(lp2584
S'4149457'
p2585
aS'4149799'
p2586
aS'4150067'
p2587
aS'4150335'
p2588
aS'4150634'
p2589
aS'4150907'
p2590
aS'4151177'
p2591
aS'4151451'
p2592
aS'4151742'
p2593
aS'4152008'
p2594
aS'4152278'
p2595
aS'4152552'
p2596
aS'4152824'
p2597
asS'intr_635'
p2598
(lp2599
g5
ag5
ag5
ag5
ag5
ag5
ag5
ag5
ag5
ag5
ag5
ag5
ag5
asS'intr_634'
p2600
(lp2601
g5
ag5
ag5
ag5
ag5
ag5
ag5
ag5
ag5
ag5
ag5
ag5
ag5
asS'intr_637'
p2602
(lp2603
g5
ag5
ag5
ag5
ag5
ag5
ag5
ag5
ag5
ag5
ag5
ag5
ag5
asS'intr_636'
p2604
(lp2605
g5
ag5
ag5
ag5
ag5
ag5
ag5
ag5
ag5
ag5
ag5
ag5
ag5
asS'intr_631'
p2606
(lp2607
g5
ag5
ag5
ag5
ag5
ag5
ag5
ag5
ag5
ag5
ag5
ag5
ag5
asS'intr_630'
p2608
(lp2609
g5
ag5
ag5
ag5
ag5
ag5
ag5
ag5
ag5
ag5
ag5
ag5
ag5
asS'intr_633'
p2610
(lp2611
g5
ag5
ag5
ag5
ag5
ag5
ag5
ag5
ag5
ag5
ag5
ag5
ag5
asS'intr_632'
p2612
(lp2613
g5
ag5
ag5
ag5
ag5
ag5
ag5
ag5
ag5
ag5
ag5
ag5
ag5
asS'intr_734'
p2614
(lp2615
g5
ag5
ag5
ag5
ag5
ag5
ag5
ag5
ag5
ag5
ag5
ag5
ag5
asS'intr_327'
p2616
(lp2617
g5
ag5
ag5
ag5
ag5
ag5
ag5
ag5
ag5
ag5
ag5
ag5
ag5
asS'intr_736'
p2618
(lp2619
g5
ag5
ag5
ag5
ag5
ag5
ag5
ag5
ag5
ag5
ag5
ag5
ag5
asS'intr_737'
p2620
(lp2621
g5
ag5
ag5
ag5
ag5
ag5
ag5
ag5
ag5
ag5
ag5
ag5
ag5
asS'intr_639'
p2622
(lp2623
g5
ag5
ag5
ag5
ag5
ag5
ag5
ag5
ag5
ag5
ag5
ag5
ag5
asS'intr_638'
p2624
(lp2625
g5
ag5
ag5
ag5
ag5
ag5
ag5
ag5
ag5
ag5
ag5
ag5
ag5
asS'intr_732'
p2626
(lp2627
g5
ag5
ag5
ag5
ag5
ag5
ag5
ag5
ag5
ag5
ag5
ag5
ag5
asS'intr_326'
p2628
(lp2629
g5
ag5
ag5
ag5
ag5
ag5
ag5
ag5
ag5
ag5
ag5
ag5
ag5
asS'softirq_6'
p2630
(lp2631
S'344775'
p2632
aS'344808'
p2633
aS'344808'
p2634
aS'344809'
p2635
aS'344809'
p2636
aS'344813'
p2637
aS'344813'
p2638
aS'344813'
p2639
aS'344824'
p2640
aS'344824'
p2641
aS'344824'
p2642
aS'344824'
p2643
aS'344825'
p2644
asS'intr_740'
p2645
(lp2646
g5
ag5
ag5
ag5
ag5
ag5
ag5
ag5
ag5
ag5
ag5
ag5
ag5
asS'intr_743'
p2647
(lp2648
g5
ag5
ag5
ag5
ag5
ag5
ag5
ag5
ag5
ag5
ag5
ag5
ag5
asS'intr_129'
p2649
(lp2650
g5
ag5
ag5
ag5
ag5
ag5
ag5
ag5
ag5
ag5
ag5
ag5
ag5
asS'intr_128'
p2651
(lp2652
g5
ag5
ag5
ag5
ag5
ag5
ag5
ag5
ag5
ag5
ag5
ag5
ag5
asS'intr_742'
p2653
(lp2654
g5
ag5
ag5
ag5
ag5
ag5
ag5
ag5
ag5
ag5
ag5
ag5
ag5
asS'intr_121'
p2655
(lp2656
g5
ag5
ag5
ag5
ag5
ag5
ag5
ag5
ag5
ag5
ag5
ag5
ag5
asS'intr_120'
p2657
(lp2658
g5
ag5
ag5
ag5
ag5
ag5
ag5
ag5
ag5
ag5
ag5
ag5
ag5
asS'intr_123'
p2659
(lp2660
g5
ag5
ag5
ag5
ag5
ag5
ag5
ag5
ag5
ag5
ag5
ag5
ag5
asS'intr_122'
p2661
(lp2662
g5
ag5
ag5
ag5
ag5
ag5
ag5
ag5
ag5
ag5
ag5
ag5
ag5
asS'intr_125'
p2663
(lp2664
g5
ag5
ag5
ag5
ag5
ag5
ag5
ag5
ag5
ag5
ag5
ag5
ag5
asS'intr_124'
p2665
(lp2666
g5
ag5
ag5
ag5
ag5
ag5
ag5
ag5
ag5
ag5
ag5
ag5
ag5
asS'intr_127'
p2667
(lp2668
g5
ag5
ag5
ag5
ag5
ag5
ag5
ag5
ag5
ag5
ag5
ag5
ag5
asS'intr_126'
p2669
(lp2670
g5
ag5
ag5
ag5
ag5
ag5
ag5
ag5
ag5
ag5
ag5
ag5
ag5
asS'intr_640'
p2671
(lp2672
g5
ag5
ag5
ag5
ag5
ag5
ag5
ag5
ag5
ag5
ag5
ag5
ag5
asS'intr_641'
p2673
(lp2674
g5
ag5
ag5
ag5
ag5
ag5
ag5
ag5
ag5
ag5
ag5
ag5
ag5
asS'intr_642'
p2675
(lp2676
g5
ag5
ag5
ag5
ag5
ag5
ag5
ag5
ag5
ag5
ag5
ag5
ag5
asS'intr_377'
p2677
(lp2678
g5
ag5
ag5
ag5
ag5
ag5
ag5
ag5
ag5
ag5
ag5
ag5
ag5
asS'intr_558'
p2679
(lp2680
g5
ag5
ag5
ag5
ag5
ag5
ag5
ag5
ag5
ag5
ag5
ag5
ag5
asS'intr_645'
p2681
(lp2682
g5
ag5
ag5
ag5
ag5
ag5
ag5
ag5
ag5
ag5
ag5
ag5
ag5
asS'intr_646'
p2683
(lp2684
g5
ag5
ag5
ag5
ag5
ag5
ag5
ag5
ag5
ag5
ag5
ag5
ag5
asS'intr_647'
p2685
(lp2686
g5
ag5
ag5
ag5
ag5
ag5
ag5
ag5
ag5
ag5
ag5
ag5
ag5
asS'intr_648'
p2687
(lp2688
g5
ag5
ag5
ag5
ag5
ag5
ag5
ag5
ag5
ag5
ag5
ag5
ag5
asS'intr_649'
p2689
(lp2690
g5
ag5
ag5
ag5
ag5
ag5
ag5
ag5
ag5
ag5
ag5
ag5
ag5
asS'softirq_8'
p2691
(lp2692
S'16'
p2693
aS'16'
p2694
aS'16'
p2695
aS'16'
p2696
aS'16'
p2697
aS'16'
p2698
aS'16'
p2699
aS'16'
p2700
aS'16'
p2701
aS'16'
p2702
aS'16'
p2703
aS'16'
p2704
aS'16'
p2705
asS'intr_746'
p2706
(lp2707
g5
ag5
ag5
ag5
ag5
ag5
ag5
ag5
ag5
ag5
ag5
ag5
ag5
asS'cpu0_10'
p2708
(lp2709
g5
ag5
ag5
ag5
ag5
ag5
ag5
ag5
ag5
ag5
ag5
ag5
ag5
asS'intr_423'
p2710
(lp2711
g5
ag5
ag5
ag5
ag5
ag5
ag5
ag5
ag5
ag5
ag5
ag5
ag5
ass.